
shell.elf:     file format elf32-msp430


Disassembly of section .text:

0000c000 <__watchdog_support>:
    c000:	55 42 20 01 	mov.b	&0x0120,r5	
    c004:	35 d0 08 5a 	bis	#23048,	r5	;#0x5a08
    c008:	82 45 18 03 	mov	r5,	&0x0318	

0000c00c <__init_stack>:
    c00c:	31 40 00 04 	mov	#1024,	r1	;#0x0400

0000c010 <__do_copy_data>:
    c010:	3f 40 50 00 	mov	#80,	r15	;#0x0050
    c014:	0f 93       	tst	r15		
    c016:	08 24       	jz	$+18     	;abs 0xc028
    c018:	92 42 18 03 	mov	&0x0318,&0x0120	
    c01c:	20 01 
    c01e:	2f 83       	decd	r15		
    c020:	9f 4f 8c d0 	mov	-12148(r15),512(r15);0xd08c(r15), 0x0200(r15)
    c024:	00 02 
    c026:	f8 23       	jnz	$-14     	;abs 0xc018

0000c028 <__do_clear_bss>:
    c028:	3f 40 c8 00 	mov	#200,	r15	;#0x00c8
    c02c:	0f 93       	tst	r15		
    c02e:	07 24       	jz	$+16     	;abs 0xc03e
    c030:	92 42 18 03 	mov	&0x0318,&0x0120	
    c034:	20 01 
    c036:	1f 83       	dec	r15		
    c038:	cf 43 50 02 	mov.b	#0,	592(r15);r3 As==00, 0x0250(r15)
    c03c:	f9 23       	jnz	$-12     	;abs 0xc030

0000c03e <main>:
    c03e:	82 43 ac 02 	mov	#0,	&0x02ac	;r3 As==00
    c042:	82 43 ae 02 	mov	#0,	&0x02ae	;r3 As==00
    c046:	82 43 b0 02 	mov	#0,	&0x02b0	;r3 As==00
    c04a:	92 43 b2 02 	mov	#1,	&0x02b2	;r3 As==01
    c04e:	82 43 b4 02 	mov	#0,	&0x02b4	;r3 As==00
    c052:	82 43 b6 02 	mov	#0,	&0x02b6	;r3 As==00
    c056:	82 43 b8 02 	mov	#0,	&0x02b8	;r3 As==00
    c05a:	82 43 ba 02 	mov	#0,	&0x02ba	;r3 As==00
    c05e:	82 43 bc 02 	mov	#0,	&0x02bc	;r3 As==00
    c062:	b2 40 80 5a 	mov	#23168,	&0x0120	;#0x5a80
    c066:	20 01 
    c068:	d2 42 ff 10 	mov.b	&0x10ff,&0x0057	
    c06c:	57 00 
    c06e:	d2 42 fe 10 	mov.b	&0x10fe,&0x0056	
    c072:	56 00 
    c074:	f2 40 f7 ff 	mov.b	#-9,	&0x0022	;#0xfff7
    c078:	22 00 
    c07a:	f2 d0 41 00 	bis.b	#65,	&0x0022	;#0x0041
    c07e:	22 00 
    c080:	f2 42 21 00 	mov.b	#8,	&0x0021	;r2 As==11
    c084:	f2 42 27 00 	mov.b	#8,	&0x0027	;r2 As==11
    c088:	f2 42 25 00 	mov.b	#8,	&0x0025	;r2 As==11
    c08c:	f2 42 24 00 	mov.b	#8,	&0x0024	;r2 As==11
    c090:	c2 43 23 00 	mov.b	#0,	&0x0023	;r3 As==00
    c094:	f2 43 2a 00 	mov.b	#-1,	&0x002a	;r3 As==11
    c098:	c2 43 29 00 	mov.b	#0,	&0x0029	;r3 As==00
    c09c:	3f 40 80 25 	mov	#9600,	r15	;#0x2580
    c0a0:	b0 12 ba c9 	call	#0xc9ba	
    c0a4:	32 d2       	eint			
    c0a6:	3d 40 5a 00 	mov	#90,	r13	;#0x005a
    c0aa:	0e 43       	clr	r14		
    c0ac:	3f 40 be 02 	mov	#702,	r15	;#0x02be
    c0b0:	b0 12 4e ca 	call	#0xca4e	
    c0b4:	3f 40 96 cd 	mov	#-12906,r15	;#0xcd96
    c0b8:	b0 12 92 c6 	call	#0xc692	
    c0bc:	b0 12 8a c8 	call	#0xc88a	
    c0c0:	7f 90 0d 00 	cmp.b	#13,	r15	;#0x000d
    c0c4:	1c 24       	jz	$+58     	;abs 0xc0fe
    c0c6:	0b 43       	clr	r11		
    c0c8:	7f 92       	cmp.b	#8,	r15	;r2 As==11
    c0ca:	0f 20       	jnz	$+32     	;abs 0xc0ea
    c0cc:	0b 93       	tst	r11		
    c0ce:	12 24       	jz	$+38     	;abs 0xc0f4
    c0d0:	3b 53       	add	#-1,	r11	;r3 As==11
    c0d2:	cb 43 be 02 	mov.b	#0,	702(r11);r3 As==00, 0x02be(r11)
    c0d6:	b0 12 84 c8 	call	#0xc884	
    c0da:	7f 40 20 00 	mov.b	#32,	r15	;#0x0020
    c0de:	b0 12 84 c8 	call	#0xc884	
    c0e2:	7f 42       	mov.b	#8,	r15	;r2 As==11
    c0e4:	b0 12 84 c8 	call	#0xc884	
    c0e8:	05 3c       	jmp	$+12     	;abs 0xc0f4
    c0ea:	cb 4f be 02 	mov.b	r15,	702(r11);0x02be(r11)
    c0ee:	1b 53       	inc	r11		
    c0f0:	b0 12 84 c8 	call	#0xc884	
    c0f4:	b0 12 8a c8 	call	#0xc88a	
    c0f8:	7f 90 0d 00 	cmp.b	#13,	r15	;#0x000d
    c0fc:	e5 23       	jnz	$-52     	;abs 0xc0c8
    c0fe:	3f 40 99 cd 	mov	#-12903,r15	;#0xcd99
    c102:	b0 12 92 c6 	call	#0xc692	
    c106:	3f 40 be 02 	mov	#702,	r15	;#0x02be
    c10a:	b0 12 2e c4 	call	#0xc42e	
    c10e:	3f 90 f1 ff 	cmp	#-15,	r15	;#0xfff1
    c112:	0c 24       	jz	$+26     	;abs 0xc12c
    c114:	3f 90 f2 ff 	cmp	#-14,	r15	;#0xfff2
    c118:	04 24       	jz	$+10     	;abs 0xc122
    c11a:	3f 90 f0 ff 	cmp	#-16,	r15	;#0xfff0
    c11e:	0f 20       	jnz	$+32     	;abs 0xc13e
    c120:	0a 3c       	jmp	$+22     	;abs 0xc136
    c122:	3f 40 9d cd 	mov	#-12899,r15	;#0xcd9d
    c126:	b0 12 92 c6 	call	#0xc692	
    c12a:	09 3c       	jmp	$+20     	;abs 0xc13e
    c12c:	3f 40 bc cd 	mov	#-12868,r15	;#0xcdbc
    c130:	b0 12 92 c6 	call	#0xc692	
    c134:	04 3c       	jmp	$+10     	;abs 0xc13e
    c136:	3f 40 e0 cd 	mov	#-12832,r15	;#0xcde0
    c13a:	b0 12 92 c6 	call	#0xc692	
    c13e:	3f 40 02 ce 	mov	#-12798,r15	;#0xce02
    c142:	b0 12 92 c6 	call	#0xc692	
    c146:	af 3f       	jmp	$-160    	;abs 0xc0a6

0000c148 <__stop_progExec__>:
    c148:	32 d0 f0 00 	bis	#240,	r2	;#0x00f0
    c14c:	fd 3f       	jmp	$-4      	;abs 0xc148

0000c14e <__ctors_end>:
    c14e:	30 40 42 cb 	br	#0xcb42	

0000c152 <shell_cmd_show>:
    c152:	0b 12       	push	r11		
    c154:	3b 40 ac 02 	mov	#684,	r11	;#0x02ac
    c158:	2b 12       	push	@r11		
    c15a:	30 12 44 cb 	push	#-13500	;#0xcb44
    c15e:	b0 12 5a c7 	call	#0xc75a	
    c162:	21 52       	add	#4,	r1	;r2 As==10
    c164:	1b 12 02 00 	push	2(r11)		;0x0002(r11)
    c168:	30 12 4f cb 	push	#-13489	;#0xcb4f
    c16c:	b0 12 5a c7 	call	#0xc75a	
    c170:	21 52       	add	#4,	r1	;r2 As==10
    c172:	1b 12 04 00 	push	4(r11)		;0x0004(r11)
    c176:	30 12 5a cb 	push	#-13478	;#0xcb5a
    c17a:	b0 12 5a c7 	call	#0xc75a	
    c17e:	21 52       	add	#4,	r1	;r2 As==10
    c180:	1b 12 06 00 	push	6(r11)		;0x0006(r11)
    c184:	30 12 65 cb 	push	#-13467	;#0xcb65
    c188:	b0 12 5a c7 	call	#0xc75a	
    c18c:	21 52       	add	#4,	r1	;r2 As==10
    c18e:	1b 12 08 00 	push	8(r11)		;0x0008(r11)
    c192:	30 12 75 cb 	push	#-13451	;#0xcb75
    c196:	b0 12 5a c7 	call	#0xc75a	
    c19a:	21 52       	add	#4,	r1	;r2 As==10
    c19c:	1b 12 0a 00 	push	10(r11)	;0x000a(r11)
    c1a0:	30 12 85 cb 	push	#-13435	;#0xcb85
    c1a4:	b0 12 5a c7 	call	#0xc75a	
    c1a8:	21 52       	add	#4,	r1	;r2 As==10
    c1aa:	1b 12 0c 00 	push	12(r11)	;0x000c(r11)
    c1ae:	30 12 93 cb 	push	#-13421	;#0xcb93
    c1b2:	b0 12 5a c7 	call	#0xc75a	
    c1b6:	21 52       	add	#4,	r1	;r2 As==10
    c1b8:	1b 12 0e 00 	push	14(r11)	;0x000e(r11)
    c1bc:	30 12 a5 cb 	push	#-13403	;#0xcba5
    c1c0:	b0 12 5a c7 	call	#0xc75a	
    c1c4:	21 52       	add	#4,	r1	;r2 As==10
    c1c6:	1b 12 10 00 	push	16(r11)	;0x0010(r11)
    c1ca:	30 12 bb cb 	push	#-13381	;#0xcbbb
    c1ce:	b0 12 5a c7 	call	#0xc75a	
    c1d2:	21 52       	add	#4,	r1	;r2 As==10
    c1d4:	0f 43       	clr	r15		
    c1d6:	3b 41       	pop	r11		
    c1d8:	30 41       	ret			

0000c1da <shell_cmd_argt>:
    c1da:	0b 12       	push	r11		
    c1dc:	0a 12       	push	r10		
    c1de:	0a 4f       	mov	r15,	r10	
    c1e0:	3f 40 d2 cb 	mov	#-13358,r15	;#0xcbd2
    c1e4:	b0 12 92 c6 	call	#0xc692	
    c1e8:	ca 93 00 00 	tst.b	0(r10)		;0x0000(r10)
    c1ec:	12 24       	jz	$+38     	;abs 0xc212
    c1ee:	0b 43       	clr	r11		
    c1f0:	0e 4b       	mov	r11,	r14	
    c1f2:	0e 5e       	rla	r14		
    c1f4:	0e 5e       	rla	r14		
    c1f6:	0e 5e       	rla	r14		
    c1f8:	0e 5e       	rla	r14		
    c1fa:	2e 53       	incd	r14		
    c1fc:	0e 5a       	add	r10,	r14	
    c1fe:	0e 12       	push	r14		
    c200:	30 12 e0 cb 	push	#-13344	;#0xcbe0
    c204:	b0 12 5a c7 	call	#0xc75a	
    c208:	21 52       	add	#4,	r1	;r2 As==10
    c20a:	1b 53       	inc	r11		
    c20c:	6f 4a       	mov.b	@r10,	r15	
    c20e:	0b 9f       	cmp	r15,	r11	
    c210:	ef 3b       	jl	$-32     	;abs 0xc1f0
    c212:	0f 43       	clr	r15		
    c214:	3a 41       	pop	r10		
    c216:	3b 41       	pop	r11		
    c218:	30 41       	ret			

0000c21a <shell_cmd_help>:
    c21a:	0b 12       	push	r11		
    c21c:	0a 12       	push	r10		
    c21e:	c2 93 00 02 	tst.b	&0x0200	
    c222:	13 24       	jz	$+40     	;abs 0xc24a
    c224:	3b 40 04 02 	mov	#516,	r11	;#0x0204
    c228:	0a 43       	clr	r10		
    c22a:	2b 12       	push	@r11		
    c22c:	1b 12 fe ff 	push	-2(r11)	;0xfffe(r11)
    c230:	30 12 e8 cb 	push	#-13336	;#0xcbe8
    c234:	b0 12 5a c7 	call	#0xc75a	
    c238:	31 50 06 00 	add	#6,	r1	;#0x0006
    c23c:	1a 53       	inc	r10		
    c23e:	3b 50 06 00 	add	#6,	r11	;#0x0006
    c242:	5f 42 00 02 	mov.b	&0x0200,r15	
    c246:	0a 9f       	cmp	r15,	r10	
    c248:	f0 3b       	jl	$-30     	;abs 0xc22a
    c24a:	0f 43       	clr	r15		
    c24c:	3a 41       	pop	r10		
    c24e:	3b 41       	pop	r11		
    c250:	30 41       	ret			

0000c252 <shell_cmd_PID>:
    c252:	0b 12       	push	r11		
    c254:	0a 12       	push	r10		
    c256:	09 12       	push	r9		
    c258:	0a 4f       	mov	r15,	r10	
    c25a:	30 12 f1 cb 	push	#-13327	;#0xcbf1
    c25e:	b0 12 5a c7 	call	#0xc75a	
    c262:	21 53       	incd	r1		
    c264:	0f 4a       	mov	r10,	r15	
    c266:	2f 53       	incd	r15		
    c268:	b0 12 b8 ca 	call	#0xcab8	
    c26c:	3b 40 ac 02 	mov	#684,	r11	;#0x02ac
    c270:	8b 4f 00 00 	mov	r15,	0(r11)	;0x0000(r11)
    c274:	0f 4a       	mov	r10,	r15	
    c276:	3f 50 12 00 	add	#18,	r15	;#0x0012
    c27a:	b0 12 b8 ca 	call	#0xcab8	
    c27e:	09 4b       	mov	r11,	r9	
    c280:	29 53       	incd	r9		
    c282:	89 4f 00 00 	mov	r15,	0(r9)	;0x0000(r9)
    c286:	0f 4a       	mov	r10,	r15	
    c288:	3f 50 22 00 	add	#34,	r15	;#0x0022
    c28c:	b0 12 b8 ca 	call	#0xcab8	
    c290:	0a 4b       	mov	r11,	r10	
    c292:	2a 52       	add	#4,	r10	;r2 As==10
    c294:	8a 4f 00 00 	mov	r15,	0(r10)	;0x0000(r10)
    c298:	2b 12       	push	@r11		
    c29a:	30 12 00 cc 	push	#-13312	;#0xcc00
    c29e:	b0 12 5a c7 	call	#0xc75a	
    c2a2:	21 52       	add	#4,	r1	;r2 As==10
    c2a4:	29 12       	push	@r9		
    c2a6:	30 12 0b cc 	push	#-13301	;#0xcc0b
    c2aa:	b0 12 5a c7 	call	#0xc75a	
    c2ae:	21 52       	add	#4,	r1	;r2 As==10
    c2b0:	2a 12       	push	@r10		
    c2b2:	30 12 16 cc 	push	#-13290	;#0xcc16
    c2b6:	b0 12 5a c7 	call	#0xc75a	
    c2ba:	21 52       	add	#4,	r1	;r2 As==10
    c2bc:	0f 43       	clr	r15		
    c2be:	39 41       	pop	r9		
    c2c0:	3a 41       	pop	r10		
    c2c2:	3b 41       	pop	r11		
    c2c4:	30 41       	ret			

0000c2c6 <shell_cmd_setreportinterval>:
    c2c6:	0b 12       	push	r11		
    c2c8:	0b 4f       	mov	r15,	r11	
    c2ca:	2b 53       	incd	r11		
    c2cc:	0b 12       	push	r11		
    c2ce:	30 12 21 cc 	push	#-13279	;#0xcc21
    c2d2:	b0 12 5a c7 	call	#0xc75a	
    c2d6:	21 52       	add	#4,	r1	;r2 As==10
    c2d8:	0f 4b       	mov	r11,	r15	
    c2da:	b0 12 b8 ca 	call	#0xcab8	
    c2de:	82 4f bc 02 	mov	r15,	&0x02bc	
    c2e2:	0f 43       	clr	r15		
    c2e4:	3b 41       	pop	r11		
    c2e6:	30 41       	ret			

0000c2e8 <shell_cmd_verbose>:
    c2e8:	0b 12       	push	r11		
    c2ea:	0b 4f       	mov	r15,	r11	
    c2ec:	2b 53       	incd	r11		
    c2ee:	0b 12       	push	r11		
    c2f0:	30 12 41 cc 	push	#-13247	;#0xcc41
    c2f4:	b0 12 5a c7 	call	#0xc75a	
    c2f8:	21 52       	add	#4,	r1	;r2 As==10
    c2fa:	0f 4b       	mov	r11,	r15	
    c2fc:	b0 12 b8 ca 	call	#0xcab8	
    c300:	82 4f b2 02 	mov	r15,	&0x02b2	
    c304:	0f 43       	clr	r15		
    c306:	3b 41       	pop	r11		
    c308:	30 41       	ret			

0000c30a <shell_cmd_setstepinterval>:
    c30a:	0b 12       	push	r11		
    c30c:	0a 12       	push	r10		
    c30e:	0a 4f       	mov	r15,	r10	
    c310:	2a 53       	incd	r10		
    c312:	0a 12       	push	r10		
    c314:	3b 40 b6 02 	mov	#694,	r11	;#0x02b6
    c318:	2b 12       	push	@r11		
    c31a:	30 12 59 cc 	push	#-13223	;#0xcc59
    c31e:	b0 12 5a c7 	call	#0xc75a	
    c322:	31 50 06 00 	add	#6,	r1	;#0x0006
    c326:	0f 4a       	mov	r10,	r15	
    c328:	b0 12 b8 ca 	call	#0xcab8	
    c32c:	8b 4f 04 00 	mov	r15,	4(r11)	;0x0004(r11)
    c330:	0f 43       	clr	r15		
    c332:	3a 41       	pop	r10		
    c334:	3b 41       	pop	r11		
    c336:	30 41       	ret			

0000c338 <shell_cmd_setpoint>:
    c338:	0b 12       	push	r11		
    c33a:	0b 4f       	mov	r15,	r11	
    c33c:	2b 53       	incd	r11		
    c33e:	0b 12       	push	r11		
    c340:	30 12 7e cc 	push	#-13186	;#0xcc7e
    c344:	b0 12 5a c7 	call	#0xc75a	
    c348:	21 52       	add	#4,	r1	;r2 As==10
    c34a:	0f 4b       	mov	r11,	r15	
    c34c:	b0 12 b8 ca 	call	#0xcab8	
    c350:	82 4f b8 02 	mov	r15,	&0x02b8	
    c354:	0f 43       	clr	r15		
    c356:	3b 41       	pop	r11		
    c358:	30 41       	ret			

0000c35a <shell_cmd_loadstep>:
    c35a:	0b 12       	push	r11		
    c35c:	0b 4f       	mov	r15,	r11	
    c35e:	2b 53       	incd	r11		
    c360:	0b 12       	push	r11		
    c362:	30 12 a6 cc 	push	#-13146	;#0xcca6
    c366:	b0 12 5a c7 	call	#0xc75a	
    c36a:	21 52       	add	#4,	r1	;r2 As==10
    c36c:	0f 4b       	mov	r11,	r15	
    c36e:	b0 12 b8 ca 	call	#0xcab8	
    c372:	82 4f b6 02 	mov	r15,	&0x02b6	
    c376:	0f 43       	clr	r15		
    c378:	3b 41       	pop	r11		
    c37a:	30 41       	ret			

0000c37c <shell_cmd_loadprogram>:
    c37c:	0b 12       	push	r11		
    c37e:	0b 4f       	mov	r15,	r11	
    c380:	2b 53       	incd	r11		
    c382:	0b 12       	push	r11		
    c384:	30 12 b8 cc 	push	#-13128	;#0xccb8
    c388:	b0 12 5a c7 	call	#0xc75a	
    c38c:	21 52       	add	#4,	r1	;r2 As==10
    c38e:	0f 4b       	mov	r11,	r15	
    c390:	b0 12 b8 ca 	call	#0xcab8	
    c394:	82 4f b4 02 	mov	r15,	&0x02b4	
    c398:	0f 43       	clr	r15		
    c39a:	3b 41       	pop	r11		
    c39c:	30 41       	ret			

0000c39e <shell_cmd_stop>:
    c39e:	82 93 aa 02 	tst	&0x02aa	
    c3a2:	07 20       	jnz	$+16     	;abs 0xc3b2
    c3a4:	30 12 ee cc 	push	#-13074	;#0xccee
    c3a8:	b0 12 5a c7 	call	#0xc75a	
    c3ac:	21 53       	incd	r1		
    c3ae:	0f 43       	clr	r15		
    c3b0:	30 41       	ret			
    c3b2:	12 12 b6 02 	push	&0x02b6	
    c3b6:	12 12 b4 02 	push	&0x02b4	
    c3ba:	30 12 cd cc 	push	#-13107	;#0xcccd
    c3be:	b0 12 5a c7 	call	#0xc75a	
    c3c2:	31 50 06 00 	add	#6,	r1	;#0x0006
    c3c6:	82 43 aa 02 	mov	#0,	&0x02aa	;r3 As==00
    c3ca:	0f 43       	clr	r15		
    c3cc:	30 41       	ret			

0000c3ce <shell_cmd_pause>:
    c3ce:	92 93 aa 02 	cmp	#1,	&0x02aa	;r3 As==01
    c3d2:	07 24       	jz	$+16     	;abs 0xc3e2
    c3d4:	30 12 12 cd 	push	#-13038	;#0xcd12
    c3d8:	b0 12 5a c7 	call	#0xc75a	
    c3dc:	21 53       	incd	r1		
    c3de:	0f 43       	clr	r15		
    c3e0:	30 41       	ret			
    c3e2:	12 12 b6 02 	push	&0x02b6	
    c3e6:	12 12 b4 02 	push	&0x02b4	
    c3ea:	30 12 39 cd 	push	#-12999	;#0xcd39
    c3ee:	b0 12 5a c7 	call	#0xc75a	
    c3f2:	31 50 06 00 	add	#6,	r1	;#0x0006
    c3f6:	a2 43 aa 02 	mov	#2,	&0x02aa	;r3 As==10
    c3fa:	0f 43       	clr	r15		
    c3fc:	30 41       	ret			

0000c3fe <shell_cmd_run>:
    c3fe:	92 93 aa 02 	cmp	#1,	&0x02aa	;r3 As==01
    c402:	0e 24       	jz	$+30     	;abs 0xc420
    c404:	12 12 b6 02 	push	&0x02b6	
    c408:	12 12 b4 02 	push	&0x02b4	
    c40c:	30 12 59 cd 	push	#-12967	;#0xcd59
    c410:	b0 12 5a c7 	call	#0xc75a	
    c414:	31 50 06 00 	add	#6,	r1	;#0x0006
    c418:	92 43 aa 02 	mov	#1,	&0x02aa	;r3 As==01
    c41c:	0f 43       	clr	r15		
    c41e:	30 41       	ret			
    c420:	30 12 79 cd 	push	#-12935	;#0xcd79
    c424:	b0 12 5a c7 	call	#0xc75a	
    c428:	21 53       	incd	r1		
    c42a:	0f 43       	clr	r15		
    c42c:	30 41       	ret			

0000c42e <shell_process>:
    c42e:	0e 4f       	mov	r15,	r14	
    c430:	3f 40 00 02 	mov	#512,	r15	;#0x0200
    c434:	b0 12 8a c5 	call	#0xc58a	
    c438:	30 41       	ret			

0000c43a <Port1_ISR>:
    c43a:	0f 12       	push	r15		
    c43c:	f2 b2 20 00 	bit.b	#8,	&0x0020	;r2 As==11
    c440:	fd 27       	jz	$-4      	;abs 0xc43c
    c442:	3f 40 aa 29 	mov	#10666,	r15	;#0x29aa
    c446:	1f 83       	dec	r15		
    c448:	fe 23       	jnz	$-2      	;abs 0xc446
    c44a:	f2 f0 f7 ff 	and.b	#-9,	&0x0023	;#0xfff7
    c44e:	23 00 
    c450:	82 43 aa 02 	mov	#0,	&0x02aa	;r3 As==00
    c454:	3f 41       	pop	r15		
    c456:	00 13       	reti			

0000c458 <shell_str_len>:
    c458:	0e 4f       	mov	r15,	r14	
    c45a:	0f 43       	clr	r15		
    c45c:	01 3c       	jmp	$+4      	;abs 0xc460
    c45e:	0f 4c       	mov	r12,	r15	
    c460:	0c 4f       	mov	r15,	r12	
    c462:	1c 53       	inc	r12		
    c464:	0d 4e       	mov	r14,	r13	
    c466:	0d 5f       	add	r15,	r13	
    c468:	cd 93 00 00 	tst.b	0(r13)		;0x0000(r13)
    c46c:	f8 23       	jnz	$-14     	;abs 0xc45e
    c46e:	30 41       	ret			

0000c470 <shell_str_cmp>:
    c470:	0b 12       	push	r11		
    c472:	0a 12       	push	r10		
    c474:	09 12       	push	r9		
    c476:	0c 9d       	cmp	r13,	r12	
    c478:	14 38       	jl	$+42     	;abs 0xc4a2
    c47a:	0b 43       	clr	r11		
    c47c:	08 3c       	jmp	$+18     	;abs 0xc48e
    c47e:	09 4f       	mov	r15,	r9	
    c480:	09 5b       	add	r11,	r9	
    c482:	0a 4e       	mov	r14,	r10	
    c484:	0a 5b       	add	r11,	r10	
    c486:	e9 9a 00 00 	cmp.b	@r10,	0(r9)	;0x0000(r9)
    c48a:	0f 20       	jnz	$+32     	;abs 0xc4aa
    c48c:	1b 53       	inc	r11		
    c48e:	0b 9d       	cmp	r13,	r11	
    c490:	f6 3b       	jl	$-18     	;abs 0xc47e
    c492:	0d 9c       	cmp	r12,	r13	
    c494:	08 34       	jge	$+18     	;abs 0xc4a6
    c496:	0b 5e       	add	r14,	r11	
    c498:	fb 90 20 00 	cmp.b	#32,	0(r11)	;#0x0020, 0x0000(r11)
    c49c:	00 00 
    c49e:	05 20       	jnz	$+12     	;abs 0xc4aa
    c4a0:	02 3c       	jmp	$+6      	;abs 0xc4a6
    c4a2:	1f 43       	mov	#1,	r15	;r3 As==01
    c4a4:	03 3c       	jmp	$+8      	;abs 0xc4ac
    c4a6:	0f 43       	clr	r15		
    c4a8:	01 3c       	jmp	$+4      	;abs 0xc4ac
    c4aa:	2f 43       	mov	#2,	r15	;r3 As==10
    c4ac:	39 41       	pop	r9		
    c4ae:	3a 41       	pop	r10		
    c4b0:	3b 41       	pop	r11		
    c4b2:	30 41       	ret			

0000c4b4 <shell_parse_int>:
    c4b4:	0d 43       	clr	r13		
    c4b6:	11 3c       	jmp	$+36     	;abs 0xc4da
    c4b8:	1f 53       	inc	r15		
    c4ba:	4e 4c       	mov.b	r12,	r14	
    c4bc:	7e 50 d0 ff 	add.b	#-48,	r14	;#0xffd0
    c4c0:	7e 90 0a 00 	cmp.b	#10,	r14	;#0x000a
    c4c4:	0d 2c       	jc	$+28     	;abs 0xc4e0
    c4c6:	0d 5d       	rla	r13		
    c4c8:	0e 4d       	mov	r13,	r14	
    c4ca:	0e 5e       	rla	r14		
    c4cc:	0e 5e       	rla	r14		
    c4ce:	0d 5e       	add	r14,	r13	
    c4d0:	4e 4c       	mov.b	r12,	r14	
    c4d2:	8e 11       	sxt	r14		
    c4d4:	3e 50 d0 ff 	add	#-48,	r14	;#0xffd0
    c4d8:	0d 5e       	add	r14,	r13	
    c4da:	6c 4f       	mov.b	@r15,	r12	
    c4dc:	4c 93       	tst.b	r12		
    c4de:	ec 23       	jnz	$-38     	;abs 0xc4b8
    c4e0:	0f 4d       	mov	r13,	r15	
    c4e2:	30 41       	ret			

0000c4e4 <shell_arg_parser>:
    c4e4:	0b 12       	push	r11		
    c4e6:	0a 12       	push	r10		
    c4e8:	09 12       	push	r9		
    c4ea:	08 12       	push	r8		
    c4ec:	07 12       	push	r7		
    c4ee:	06 12       	push	r6		
    c4f0:	05 12       	push	r5		
    c4f2:	0a 43       	clr	r10		
    c4f4:	0c 43       	clr	r12		
    c4f6:	0b 43       	clr	r11		
    c4f8:	08 4e       	mov	r14,	r8	
    c4fa:	38 53       	add	#-1,	r8	;r3 As==11
    c4fc:	35 3c       	jmp	$+108    	;abs 0xc568
    c4fe:	3a 90 06 00 	cmp	#6,	r10	;#0x0006
    c502:	38 34       	jge	$+114    	;abs 0xc574
    c504:	09 4f       	mov	r15,	r9	
    c506:	09 5b       	add	r11,	r9	
    c508:	f9 90 20 00 	cmp.b	#32,	0(r9)	;#0x0020, 0x0000(r9)
    c50c:	00 00 
    c50e:	02 24       	jz	$+6      	;abs 0xc514
    c510:	0b 98       	cmp	r8,	r11	
    c512:	29 20       	jnz	$+84     	;abs 0xc566
    c514:	0b 98       	cmp	r8,	r11	
    c516:	01 20       	jnz	$+4      	;abs 0xc51a
    c518:	0b 4e       	mov	r14,	r11	
    c51a:	0c 93       	tst	r12		
    c51c:	23 24       	jz	$+72     	;abs 0xc564
    c51e:	07 4b       	mov	r11,	r7	
    c520:	07 8c       	sub	r12,	r7	
    c522:	37 90 10 00 	cmp	#16,	r7	;#0x0010
    c526:	28 34       	jge	$+82     	;abs 0xc578
    c528:	09 43       	clr	r9		
    c52a:	37 53       	add	#-1,	r7	;r3 As==11
    c52c:	05 4f       	mov	r15,	r5	
    c52e:	05 5c       	add	r12,	r5	
    c530:	0d 3c       	jmp	$+28     	;abs 0xc54c
    c532:	06 45       	mov	r5,	r6	
    c534:	06 59       	add	r9,	r6	
    c536:	0c 4a       	mov	r10,	r12	
    c538:	0c 5c       	rla	r12		
    c53a:	0c 5c       	rla	r12		
    c53c:	0c 5c       	rla	r12		
    c53e:	0c 5c       	rla	r12		
    c540:	0c 5d       	add	r13,	r12	
    c542:	0c 59       	add	r9,	r12	
    c544:	dc 46 01 00 	mov.b	1(r6),	2(r12)	;0x0001(r6), 0x0002(r12)
    c548:	02 00 
    c54a:	19 53       	inc	r9		
    c54c:	09 97       	cmp	r7,	r9	
    c54e:	f1 3b       	jl	$-28     	;abs 0xc532
    c550:	0c 4a       	mov	r10,	r12	
    c552:	0c 5c       	rla	r12		
    c554:	0c 5c       	rla	r12		
    c556:	0c 5c       	rla	r12		
    c558:	0c 5c       	rla	r12		
    c55a:	0c 5d       	add	r13,	r12	
    c55c:	0c 59       	add	r9,	r12	
    c55e:	cc 43 02 00 	mov.b	#0,	2(r12)	;r3 As==00, 0x0002(r12)
    c562:	1a 53       	inc	r10		
    c564:	0c 4b       	mov	r11,	r12	
    c566:	1b 53       	inc	r11		
    c568:	0b 9e       	cmp	r14,	r11	
    c56a:	c9 3b       	jl	$-108    	;abs 0xc4fe
    c56c:	cd 4a 00 00 	mov.b	r10,	0(r13)	;0x0000(r13)
    c570:	0f 43       	clr	r15		
    c572:	03 3c       	jmp	$+8      	;abs 0xc57a
    c574:	1f 43       	mov	#1,	r15	;r3 As==01
    c576:	01 3c       	jmp	$+4      	;abs 0xc57a
    c578:	2f 43       	mov	#2,	r15	;r3 As==10
    c57a:	35 41       	pop	r5		
    c57c:	36 41       	pop	r6		
    c57e:	37 41       	pop	r7		
    c580:	38 41       	pop	r8		
    c582:	39 41       	pop	r9		
    c584:	3a 41       	pop	r10		
    c586:	3b 41       	pop	r11		
    c588:	30 41       	ret			

0000c58a <shell_process_cmds>:
    c58a:	0b 12       	push	r11		
    c58c:	0a 12       	push	r10		
    c58e:	09 12       	push	r9		
    c590:	08 12       	push	r8		
    c592:	07 12       	push	r7		
    c594:	06 12       	push	r6		
    c596:	31 50 ae ff 	add	#-82,	r1	;#0xffae
    c59a:	0b 4f       	mov	r15,	r11	
    c59c:	08 4e       	mov	r14,	r8	
    c59e:	09 4f       	mov	r15,	r9	
    c5a0:	0a 43       	clr	r10		
    c5a2:	27 3c       	jmp	$+80     	;abs 0xc5f2
    c5a4:	0f 48       	mov	r8,	r15	
    c5a6:	b0 12 58 c4 	call	#0xc458	
    c5aa:	07 4f       	mov	r15,	r7	
    c5ac:	16 49 02 00 	mov	2(r9),	r6	;0x0002(r9)
    c5b0:	0f 46       	mov	r6,	r15	
    c5b2:	b0 12 58 c4 	call	#0xc458	
    c5b6:	0c 47       	mov	r7,	r12	
    c5b8:	0d 4f       	mov	r15,	r13	
    c5ba:	0e 48       	mov	r8,	r14	
    c5bc:	0f 46       	mov	r6,	r15	
    c5be:	b0 12 70 c4 	call	#0xc470	
    c5c2:	39 50 06 00 	add	#6,	r9	;#0x0006
    c5c6:	0f 93       	tst	r15		
    c5c8:	13 20       	jnz	$+40     	;abs 0xc5f0
    c5ca:	0d 41       	mov	r1,	r13	
    c5cc:	0e 47       	mov	r7,	r14	
    c5ce:	0f 48       	mov	r8,	r15	
    c5d0:	b0 12 e4 c4 	call	#0xc4e4	
    c5d4:	1f 93       	cmp	#1,	r15	;r3 As==01
    c5d6:	13 24       	jz	$+40     	;abs 0xc5fe
    c5d8:	2f 93       	cmp	#2,	r15	;r3 As==10
    c5da:	14 24       	jz	$+42     	;abs 0xc604
    c5dc:	0e 4a       	mov	r10,	r14	
    c5de:	1e 53       	inc	r14		
    c5e0:	0d 4e       	mov	r14,	r13	
    c5e2:	0d 5d       	rla	r13		
    c5e4:	0e 5d       	add	r13,	r14	
    c5e6:	0e 5e       	rla	r14		
    c5e8:	0e 5b       	add	r11,	r14	
    c5ea:	0f 41       	mov	r1,	r15	
    c5ec:	ae 12       	call	@r14		
    c5ee:	0c 3c       	jmp	$+26     	;abs 0xc608
    c5f0:	1a 53       	inc	r10		
    c5f2:	6f 4b       	mov.b	@r11,	r15	
    c5f4:	0a 9f       	cmp	r15,	r10	
    c5f6:	d6 3b       	jl	$-82     	;abs 0xc5a4
    c5f8:	3f 40 f2 ff 	mov	#-14,	r15	;#0xfff2
    c5fc:	05 3c       	jmp	$+12     	;abs 0xc608
    c5fe:	3f 40 f0 ff 	mov	#-16,	r15	;#0xfff0
    c602:	02 3c       	jmp	$+6      	;abs 0xc608
    c604:	3f 40 f1 ff 	mov	#-15,	r15	;#0xfff1
    c608:	31 50 52 00 	add	#82,	r1	;#0x0052
    c60c:	36 41       	pop	r6		
    c60e:	37 41       	pop	r7		
    c610:	38 41       	pop	r8		
    c612:	39 41       	pop	r9		
    c614:	3a 41       	pop	r10		
    c616:	3b 41       	pop	r11		
    c618:	30 41       	ret			

0000c61a <_xtoa>:
    c61a:	0b 12       	push	r11		
    c61c:	0a 12       	push	r10		
    c61e:	09 12       	push	r9		
    c620:	08 12       	push	r8		
    c622:	07 12       	push	r7		
    c624:	0a 4e       	mov	r14,	r10	
    c626:	0b 4f       	mov	r15,	r11	
    c628:	07 4d       	mov	r13,	r7	
    c62a:	0e 93       	tst	r14		
    c62c:	04 20       	jnz	$+10     	;abs 0xc636
    c62e:	0b 93       	tst	r11		
    c630:	1f 24       	jz	$+64     	;abs 0xc670
    c632:	01 3c       	jmp	$+4      	;abs 0xc636
    c634:	27 52       	add	#4,	r7	;r2 As==10
    c636:	1b 97 02 00 	cmp	2(r7),	r11	;0x0002(r7)
    c63a:	fc 2b       	jnc	$-6      	;abs 0xc634
    c63c:	02 20       	jnz	$+6      	;abs 0xc642
    c63e:	2a 97       	cmp	@r7,	r10	
    c640:	f9 2b       	jnc	$-12     	;abs 0xc634
    c642:	38 47       	mov	@r7+,	r8	
    c644:	39 47       	mov	@r7+,	r9	
    c646:	7f 40 30 00 	mov.b	#48,	r15	;#0x0030
    c64a:	03 3c       	jmp	$+8      	;abs 0xc652
    c64c:	5f 53       	inc.b	r15		
    c64e:	0a 88       	sub	r8,	r10	
    c650:	0b 79       	subc	r9,	r11	
    c652:	0b 99       	cmp	r9,	r11	
    c654:	04 28       	jnc	$+10     	;abs 0xc65e
    c656:	09 9b       	cmp	r11,	r9	
    c658:	f9 2b       	jnc	$-12     	;abs 0xc64c
    c65a:	0a 98       	cmp	r8,	r10	
    c65c:	f7 2f       	jc	$-16     	;abs 0xc64c
    c65e:	b0 12 84 c8 	call	#0xc884	
    c662:	18 f3       	and	#1,	r8	;r3 As==01
    c664:	09 f3       	and	#0,	r9	;r3 As==00
    c666:	08 93       	tst	r8		
    c668:	07 20       	jnz	$+16     	;abs 0xc678
    c66a:	09 93       	tst	r9		
    c66c:	ea 27       	jz	$-42     	;abs 0xc642
    c66e:	04 3c       	jmp	$+10     	;abs 0xc678
    c670:	7f 40 30 00 	mov.b	#48,	r15	;#0x0030
    c674:	b0 12 84 c8 	call	#0xc884	
    c678:	37 41       	pop	r7		
    c67a:	38 41       	pop	r8		
    c67c:	39 41       	pop	r9		
    c67e:	3a 41       	pop	r10		
    c680:	3b 41       	pop	r11		
    c682:	30 41       	ret			

0000c684 <_puth>:
    c684:	3f f0 0f 00 	and	#15,	r15	;#0x000f
    c688:	5f 4f 7c d0 	mov.b	-12164(r15),r15	;0xd07c(r15)
    c68c:	b0 12 84 c8 	call	#0xc884	
    c690:	30 41       	ret			

0000c692 <cio_print>:
    c692:	0b 12       	push	r11		
    c694:	0b 4f       	mov	r15,	r11	
    c696:	02 3c       	jmp	$+6      	;abs 0xc69c
    c698:	b0 12 84 c8 	call	#0xc884	
    c69c:	7f 4b       	mov.b	@r11+,	r15	
    c69e:	4f 93       	tst.b	r15		
    c6a0:	fb 23       	jnz	$-8      	;abs 0xc698
    c6a2:	3b 41       	pop	r11		
    c6a4:	30 41       	ret			

0000c6a6 <cio_printi>:
    c6a6:	0b 12       	push	r11		
    c6a8:	0a 12       	push	r10		
    c6aa:	09 12       	push	r9		
    c6ac:	31 50 e0 ff 	add	#-32,	r1	;#0xffe0
    c6b0:	0b 4f       	mov	r15,	r11	
    c6b2:	0f 93       	tst	r15		
    c6b4:	06 24       	jz	$+14     	;abs 0xc6c2
    c6b6:	09 41       	mov	r1,	r9	
    c6b8:	39 50 1e 00 	add	#30,	r9	;#0x001e
    c6bc:	3a 40 0f 00 	mov	#15,	r10	;#0x000f
    c6c0:	18 3c       	jmp	$+50     	;abs 0xc6f2
    c6c2:	7f 40 30 00 	mov.b	#48,	r15	;#0x0030
    c6c6:	b0 12 84 c8 	call	#0xc884	
    c6ca:	24 3c       	jmp	$+74     	;abs 0xc714
    c6cc:	3e 40 0a 00 	mov	#10,	r14	;#0x000a
    c6d0:	0f 4b       	mov	r11,	r15	
    c6d2:	b0 12 24 ca 	call	#0xca24	
    c6d6:	3f 50 30 00 	add	#48,	r15	;#0x0030
    c6da:	89 4f 00 00 	mov	r15,	0(r9)	;0x0000(r9)
    c6de:	3e 40 0a 00 	mov	#10,	r14	;#0x000a
    c6e2:	0f 4b       	mov	r11,	r15	
    c6e4:	b0 12 f2 c9 	call	#0xc9f2	
    c6e8:	0b 4f       	mov	r15,	r11	
    c6ea:	3a 53       	add	#-1,	r10	;r3 As==11
    c6ec:	29 83       	decd	r9		
    c6ee:	0a 93       	tst	r10		
    c6f0:	02 24       	jz	$+6      	;abs 0xc6f6
    c6f2:	1b 93       	cmp	#1,	r11	;r3 As==01
    c6f4:	eb 37       	jge	$-40     	;abs 0xc6cc
    c6f6:	09 4a       	mov	r10,	r9	
    c6f8:	0b 43       	clr	r11		
    c6fa:	07 3c       	jmp	$+16     	;abs 0xc70a
    c6fc:	0f 4a       	mov	r10,	r15	
    c6fe:	0f 5f       	rla	r15		
    c700:	0f 51       	add	r1,	r15	
    c702:	0f 5b       	add	r11,	r15	
    c704:	6f 4f       	mov.b	@r15,	r15	
    c706:	b0 12 84 c8 	call	#0xc884	
    c70a:	19 53       	inc	r9		
    c70c:	2b 53       	incd	r11		
    c70e:	39 90 10 00 	cmp	#16,	r9	;#0x0010
    c712:	f4 23       	jnz	$-22     	;abs 0xc6fc
    c714:	31 50 20 00 	add	#32,	r1	;#0x0020
    c718:	39 41       	pop	r9		
    c71a:	3a 41       	pop	r10		
    c71c:	3b 41       	pop	r11		
    c71e:	30 41       	ret			

0000c720 <cio_printb>:
    c720:	0b 12       	push	r11		
    c722:	0a 12       	push	r10		
    c724:	0a 4f       	mov	r15,	r10	
    c726:	0b 4e       	mov	r14,	r11	
    c728:	12 3c       	jmp	$+38     	;abs 0xc74e
    c72a:	0d 4a       	mov	r10,	r13	
    c72c:	4e 4b       	mov.b	r11,	r14	
    c72e:	7e f0 0f 00 	and.b	#15,	r14	;#0x000f
    c732:	4e 93       	tst.b	r14		
    c734:	03 24       	jz	$+8      	;abs 0xc73c
    c736:	0d 11       	rra	r13		
    c738:	7e 53       	add.b	#-1,	r14	;r3 As==11
    c73a:	fb 3f       	jmp	$-8      	;abs 0xc732
    c73c:	1d f3       	and	#1,	r13	;r3 As==01
    c73e:	03 24       	jz	$+8      	;abs 0xc746
    c740:	7f 40 31 00 	mov.b	#49,	r15	;#0x0031
    c744:	02 3c       	jmp	$+6      	;abs 0xc74a
    c746:	7f 40 30 00 	mov.b	#48,	r15	;#0x0030
    c74a:	b0 12 84 c8 	call	#0xc884	
    c74e:	3b 53       	add	#-1,	r11	;r3 As==11
    c750:	0b 93       	tst	r11		
    c752:	eb 37       	jge	$-40     	;abs 0xc72a
    c754:	3a 41       	pop	r10		
    c756:	3b 41       	pop	r11		
    c758:	30 41       	ret			

0000c75a <cio_printf>:
    c75a:	0b 12       	push	r11		
    c75c:	0a 12       	push	r10		
    c75e:	09 12       	push	r9		
    c760:	08 12       	push	r8		
    c762:	0b 41       	mov	r1,	r11	
    c764:	3b 50 0a 00 	add	#10,	r11	;#0x000a
    c768:	3a 4b       	mov	@r11+,	r10	
    c76a:	84 3c       	jmp	$+266    	;abs 0xc874
    c76c:	7f 90 25 00 	cmp.b	#37,	r15	;#0x0025
    c770:	7e 20       	jnz	$+254    	;abs 0xc86e
    c772:	5f 4a 01 00 	mov.b	1(r10),	r15	;0x0001(r10)
    c776:	2a 53       	incd	r10		
    c778:	7f 90 6e 00 	cmp.b	#110,	r15	;#0x006e
    c77c:	3e 24       	jz	$+126    	;abs 0xc7fa
    c77e:	7f 90 6f 00 	cmp.b	#111,	r15	;#0x006f
    c782:	10 34       	jge	$+34     	;abs 0xc7a4
    c784:	7f 90 69 00 	cmp.b	#105,	r15	;#0x0069
    c788:	23 24       	jz	$+72     	;abs 0xc7d0
    c78a:	7f 90 6a 00 	cmp.b	#106,	r15	;#0x006a
    c78e:	06 34       	jge	$+14     	;abs 0xc79c
    c790:	4f 93       	tst.b	r15		
    c792:	73 24       	jz	$+232    	;abs 0xc87a
    c794:	7f 90 63 00 	cmp.b	#99,	r15	;#0x0063
    c798:	6b 20       	jnz	$+216    	;abs 0xc870
    c79a:	13 3c       	jmp	$+40     	;abs 0xc7c2
    c79c:	7f 90 6c 00 	cmp.b	#108,	r15	;#0x006c
    c7a0:	67 20       	jnz	$+208    	;abs 0xc870
    c7a2:	2b 3c       	jmp	$+88     	;abs 0xc7fa
    c7a4:	7f 90 75 00 	cmp.b	#117,	r15	;#0x0075
    c7a8:	13 24       	jz	$+40     	;abs 0xc7d0
    c7aa:	7f 90 78 00 	cmp.b	#120,	r15	;#0x0078
    c7ae:	43 24       	jz	$+136    	;abs 0xc836
    c7b0:	7f 90 73 00 	cmp.b	#115,	r15	;#0x0073
    c7b4:	5d 20       	jnz	$+188    	;abs 0xc870
    c7b6:	09 4b       	mov	r11,	r9	
    c7b8:	29 53       	incd	r9		
    c7ba:	2f 4b       	mov	@r11,	r15	
    c7bc:	b0 12 92 c6 	call	#0xc692	
    c7c0:	05 3c       	jmp	$+12     	;abs 0xc7cc
    c7c2:	09 4b       	mov	r11,	r9	
    c7c4:	29 53       	incd	r9		
    c7c6:	6f 4b       	mov.b	@r11,	r15	
    c7c8:	b0 12 84 c8 	call	#0xc884	
    c7cc:	0b 49       	mov	r9,	r11	
    c7ce:	52 3c       	jmp	$+166    	;abs 0xc874
    c7d0:	09 4b       	mov	r11,	r9	
    c7d2:	29 53       	incd	r9		
    c7d4:	2b 4b       	mov	@r11,	r11	
    c7d6:	7f 90 69 00 	cmp.b	#105,	r15	;#0x0069
    c7da:	08 20       	jnz	$+18     	;abs 0xc7ec
    c7dc:	0b 93       	tst	r11		
    c7de:	06 34       	jge	$+14     	;abs 0xc7ec
    c7e0:	3b e3       	inv	r11		
    c7e2:	1b 53       	inc	r11		
    c7e4:	7f 40 2d 00 	mov.b	#45,	r15	;#0x002d
    c7e8:	b0 12 84 c8 	call	#0xc884	
    c7ec:	3d 40 68 d0 	mov	#-12184,r13	;#0xd068
    c7f0:	0e 4b       	mov	r11,	r14	
    c7f2:	0f 43       	clr	r15		
    c7f4:	b0 12 1a c6 	call	#0xc61a	
    c7f8:	e9 3f       	jmp	$-44     	;abs 0xc7cc
    c7fa:	08 4b       	mov	r11,	r8	
    c7fc:	28 52       	add	#4,	r8	;r2 As==10
    c7fe:	29 4b       	mov	@r11,	r9	
    c800:	1b 4b 02 00 	mov	2(r11),	r11	;0x0002(r11)
    c804:	7f 90 6c 00 	cmp.b	#108,	r15	;#0x006c
    c808:	0e 20       	jnz	$+30     	;abs 0xc826
    c80a:	0b 93       	tst	r11		
    c80c:	0c 34       	jge	$+26     	;abs 0xc826
    c80e:	0c 49       	mov	r9,	r12	
    c810:	0d 4b       	mov	r11,	r13	
    c812:	3c e3       	inv	r12		
    c814:	3d e3       	inv	r13		
    c816:	1c 53       	inc	r12		
    c818:	0d 63       	adc	r13		
    c81a:	09 4c       	mov	r12,	r9	
    c81c:	0b 4d       	mov	r13,	r11	
    c81e:	7f 40 2d 00 	mov.b	#45,	r15	;#0x002d
    c822:	b0 12 84 c8 	call	#0xc884	
    c826:	3d 40 54 d0 	mov	#-12204,r13	;#0xd054
    c82a:	0e 49       	mov	r9,	r14	
    c82c:	0f 4b       	mov	r11,	r15	
    c82e:	b0 12 1a c6 	call	#0xc61a	
    c832:	0b 48       	mov	r8,	r11	
    c834:	1f 3c       	jmp	$+64     	;abs 0xc874
    c836:	09 4b       	mov	r11,	r9	
    c838:	29 53       	incd	r9		
    c83a:	2b 4b       	mov	@r11,	r11	
    c83c:	0f 4b       	mov	r11,	r15	
    c83e:	8f 10       	swpb	r15		
    c840:	8f 11       	sxt	r15		
    c842:	0f 11       	rra	r15		
    c844:	0f 11       	rra	r15		
    c846:	0f 11       	rra	r15		
    c848:	0f 11       	rra	r15		
    c84a:	b0 12 84 c6 	call	#0xc684	
    c84e:	0f 4b       	mov	r11,	r15	
    c850:	8f 10       	swpb	r15		
    c852:	8f 11       	sxt	r15		
    c854:	b0 12 84 c6 	call	#0xc684	
    c858:	0f 4b       	mov	r11,	r15	
    c85a:	0f 11       	rra	r15		
    c85c:	0f 11       	rra	r15		
    c85e:	0f 11       	rra	r15		
    c860:	0f 11       	rra	r15		
    c862:	b0 12 84 c6 	call	#0xc684	
    c866:	0f 4b       	mov	r11,	r15	
    c868:	b0 12 84 c6 	call	#0xc684	
    c86c:	af 3f       	jmp	$-160    	;abs 0xc7cc
    c86e:	1a 53       	inc	r10		
    c870:	b0 12 84 c8 	call	#0xc884	
    c874:	6f 4a       	mov.b	@r10,	r15	
    c876:	4f 93       	tst.b	r15		
    c878:	79 23       	jnz	$-268    	;abs 0xc76c
    c87a:	38 41       	pop	r8		
    c87c:	39 41       	pop	r9		
    c87e:	3a 41       	pop	r10		
    c880:	3b 41       	pop	r11		
    c882:	30 41       	ret			

0000c884 <cio_printc>:
    c884:	b0 12 d0 c9 	call	#0xc9d0	
    c888:	30 41       	ret			

0000c88a <cio_getc>:
    c88a:	b0 12 e4 c9 	call	#0xc9e4	
    c88e:	30 41       	ret			

0000c890 <serial_clk_init>:
    c890:	f2 d0 06 00 	bis.b	#6,	&0x0026	;#0x0006
    c894:	26 00 
    c896:	f2 d0 06 00 	bis.b	#6,	&0x0041	;#0x0006
    c89a:	41 00 
    c89c:	f2 d0 80 ff 	bis.b	#-128,	&0x0061	;#0xff80
    c8a0:	61 00 
    c8a2:	3e 90 00 12 	cmp	#4608,	r14	;#0x1200
    c8a6:	04 20       	jnz	$+10     	;abs 0xc8b0
    c8a8:	3f 90 7a 00 	cmp	#122,	r15	;#0x007a
    c8ac:	67 20       	jnz	$+208    	;abs 0xc97c
    c8ae:	07 3c       	jmp	$+16     	;abs 0xc8be
    c8b0:	3e 90 00 24 	cmp	#9216,	r14	;#0x2400
    c8b4:	63 20       	jnz	$+200    	;abs 0xc97c
    c8b6:	3f 90 f4 00 	cmp	#244,	r15	;#0x00f4
    c8ba:	60 20       	jnz	$+194    	;abs 0xc97c
    c8bc:	2a 3c       	jmp	$+86     	;abs 0xc912
    c8be:	3d 90 00 84 	cmp	#-31744,r13	;#0x8400
    c8c2:	21 24       	jz	$+68     	;abs 0xc906
    c8c4:	3d 90 01 84 	cmp	#-31743,r13	;#0x8401
    c8c8:	07 2c       	jc	$+16     	;abs 0xc8d8
    c8ca:	3d 90 80 25 	cmp	#9600,	r13	;#0x2580
    c8ce:	38 24       	jz	$+114    	;abs 0xc940
    c8d0:	3d 90 00 4b 	cmp	#19200,	r13	;#0x4b00
    c8d4:	35 20       	jnz	$+108    	;abs 0xc940
    c8d6:	0a 3c       	jmp	$+22     	;abs 0xc8ec
    c8d8:	3d 90 00 c2 	cmp	#-15872,r13	;#0xc200
    c8dc:	42 24       	jz	$+134    	;abs 0xc962
    c8de:	3d 90 00 e1 	cmp	#-7936,	r13	;#0xe100
    c8e2:	39 24       	jz	$+116    	;abs 0xc956
    c8e4:	3d 90 00 96 	cmp	#-27136,r13	;#0x9600
    c8e8:	2b 20       	jnz	$+88     	;abs 0xc940
    c8ea:	07 3c       	jmp	$+16     	;abs 0xc8fa
    c8ec:	f2 40 1a 00 	mov.b	#26,	&0x0062	;#0x001a
    c8f0:	62 00 
    c8f2:	f2 40 11 00 	mov.b	#17,	&0x0064	;#0x0011
    c8f6:	64 00 
    c8f8:	5a 3c       	jmp	$+182    	;abs 0xc9ae
    c8fa:	f2 40 0d 00 	mov.b	#13,	&0x0062	;#0x000d
    c8fe:	62 00 
    c900:	d2 43 64 00 	mov.b	#1,	&0x0064	;r3 As==01
    c904:	54 3c       	jmp	$+170    	;abs 0xc9ae
    c906:	e2 43 62 00 	mov.b	#2,	&0x0062	;r3 As==10
    c90a:	f2 40 27 00 	mov.b	#39,	&0x0064	;#0x0027
    c90e:	64 00 
    c910:	4e 3c       	jmp	$+158    	;abs 0xc9ae
    c912:	3d 90 00 84 	cmp	#-31744,r13	;#0x8400
    c916:	25 24       	jz	$+76     	;abs 0xc962
    c918:	3d 90 01 84 	cmp	#-31743,r13	;#0x8401
    c91c:	07 2c       	jc	$+16     	;abs 0xc92c
    c91e:	3d 90 80 25 	cmp	#9600,	r13	;#0x2580
    c922:	25 24       	jz	$+76     	;abs 0xc96e
    c924:	3d 90 00 4b 	cmp	#19200,	r13	;#0x4b00
    c928:	22 20       	jnz	$+70     	;abs 0xc96e
    c92a:	0a 3c       	jmp	$+22     	;abs 0xc940
    c92c:	3d 90 00 c2 	cmp	#-15872,r13	;#0xc200
    c930:	12 24       	jz	$+38     	;abs 0xc956
    c932:	3d 90 00 e1 	cmp	#-7936,	r13	;#0xe100
    c936:	08 24       	jz	$+18     	;abs 0xc948
    c938:	3d 90 00 96 	cmp	#-27136,r13	;#0x9600
    c93c:	18 20       	jnz	$+50     	;abs 0xc96e
    c93e:	d6 3f       	jmp	$-82     	;abs 0xc8ec
    c940:	f2 40 34 00 	mov.b	#52,	&0x0062	;#0x0034
    c944:	62 00 
    c946:	d5 3f       	jmp	$-84     	;abs 0xc8f2
    c948:	f2 40 11 00 	mov.b	#17,	&0x0062	;#0x0011
    c94c:	62 00 
    c94e:	f2 40 61 00 	mov.b	#97,	&0x0064	;#0x0061
    c952:	64 00 
    c954:	2c 3c       	jmp	$+90     	;abs 0xc9ae
    c956:	f2 42 62 00 	mov.b	#8,	&0x0062	;r2 As==11
    c95a:	f2 40 b1 ff 	mov.b	#-79,	&0x0064	;#0xffb1
    c95e:	64 00 
    c960:	26 3c       	jmp	$+78     	;abs 0xc9ae
    c962:	e2 42 62 00 	mov.b	#4,	&0x0062	;r2 As==10
    c966:	f2 40 3b 00 	mov.b	#59,	&0x0064	;#0x003b
    c96a:	64 00 
    c96c:	20 3c       	jmp	$+66     	;abs 0xc9ae
    c96e:	f2 40 68 00 	mov.b	#104,	&0x0062	;#0x0068
    c972:	62 00 
    c974:	f2 40 31 00 	mov.b	#49,	&0x0064	;#0x0031
    c978:	64 00 
    c97a:	19 3c       	jmp	$+52     	;abs 0xc9ae
    c97c:	3d 90 00 4b 	cmp	#19200,	r13	;#0x4b00
    c980:	0a 24       	jz	$+22     	;abs 0xc996
    c982:	3d 90 00 e1 	cmp	#-7936,	r13	;#0xe100
    c986:	0e 24       	jz	$+30     	;abs 0xc9a4
    c988:	f2 40 06 00 	mov.b	#6,	&0x0062	;#0x0006
    c98c:	62 00 
    c98e:	f2 40 81 ff 	mov.b	#-127,	&0x0064	;#0xff81
    c992:	64 00 
    c994:	0c 3c       	jmp	$+26     	;abs 0xc9ae
    c996:	f2 40 03 00 	mov.b	#3,	&0x0062	;#0x0003
    c99a:	62 00 
    c99c:	f2 40 41 00 	mov.b	#65,	&0x0064	;#0x0041
    c9a0:	64 00 
    c9a2:	05 3c       	jmp	$+12     	;abs 0xc9ae
    c9a4:	d2 43 62 00 	mov.b	#1,	&0x0062	;r3 As==01
    c9a8:	f2 40 0f 00 	mov.b	#15,	&0x0064	;#0x000f
    c9ac:	64 00 
    c9ae:	c2 43 63 00 	mov.b	#0,	&0x0063	;r3 As==00
    c9b2:	f2 f0 fe ff 	and.b	#-2,	&0x0061	;#0xfffe
    c9b6:	61 00 
    c9b8:	30 41       	ret			

0000c9ba <serial_init>:
    c9ba:	0d 4f       	mov	r15,	r13	
    c9bc:	3e 40 40 42 	mov	#16960,	r14	;#0x4240
    c9c0:	3f 40 0f 00 	mov	#15,	r15	;#0x000f
    c9c4:	b0 12 90 c8 	call	#0xc890	
    c9c8:	30 41       	ret			

0000c9ca <serial_send>:
    c9ca:	c2 4f 67 00 	mov.b	r15,	&0x0067	
    c9ce:	30 41       	ret			

0000c9d0 <serial_send_blocking>:
    c9d0:	5e 42 03 00 	mov.b	&0x0003,r14	
    c9d4:	2e f3       	and	#2,	r14	;r3 As==10
    c9d6:	fc 27       	jz	$-6      	;abs 0xc9d0
    c9d8:	c2 4f 67 00 	mov.b	r15,	&0x0067	
    c9dc:	30 41       	ret			

0000c9de <serial_recv>:
    c9de:	5f 42 66 00 	mov.b	&0x0066,r15	
    c9e2:	30 41       	ret			

0000c9e4 <serial_recv_blocking>:
    c9e4:	5f 42 03 00 	mov.b	&0x0003,r15	
    c9e8:	1f f3       	and	#1,	r15	;r3 As==01
    c9ea:	fc 27       	jz	$-6      	;abs 0xc9e4
    c9ec:	5f 42 66 00 	mov.b	&0x0066,r15	
    c9f0:	30 41       	ret			

0000c9f2 <__divhi3>:
    c9f2:	0d 43       	clr	r13		
    c9f4:	0f 93       	tst	r15		
    c9f6:	04 34       	jge	$+10     	;abs 0xca00
    c9f8:	3d 40 03 00 	mov	#3,	r13	;#0x0003
    c9fc:	3f e3       	inv	r15		
    c9fe:	1f 53       	inc	r15		
    ca00:	0e 93       	tst	r14		
    ca02:	03 34       	jge	$+8      	;abs 0xca0a
    ca04:	5d e3       	xor.b	#1,	r13	;r3 As==01
    ca06:	3e e3       	inv	r14		
    ca08:	1e 53       	inc	r14		
    ca0a:	0d 12       	push	r13		
    ca0c:	b0 12 2c ca 	call	#0xca2c	
    ca10:	3d 41       	pop	r13		
    ca12:	6d b3       	bit.b	#2,	r13	;r3 As==10
    ca14:	02 24       	jz	$+6      	;abs 0xca1a
    ca16:	3e e3       	inv	r14		
    ca18:	1e 53       	inc	r14		
    ca1a:	5d b3       	bit.b	#1,	r13	;r3 As==01
    ca1c:	02 24       	jz	$+6      	;abs 0xca22
    ca1e:	3f e3       	inv	r15		
    ca20:	1f 53       	inc	r15		
    ca22:	30 41       	ret			

0000ca24 <__modhi3>:
    ca24:	b0 12 f2 c9 	call	#0xc9f2	
    ca28:	0f 4e       	mov	r14,	r15	
    ca2a:	30 41       	ret			

0000ca2c <__udivhi3>:
    ca2c:	7c 40 10 00 	mov.b	#16,	r12	;#0x0010
    ca30:	0d 4e       	mov	r14,	r13	
    ca32:	0e 43       	clr	r14		
    ca34:	0f 5f       	rla	r15		
    ca36:	0e 6e       	rlc	r14		
    ca38:	0e 9d       	cmp	r13,	r14	
    ca3a:	02 28       	jnc	$+6      	;abs 0xca40
    ca3c:	0e 8d       	sub	r13,	r14	
    ca3e:	1f d3       	bis	#1,	r15	;r3 As==01
    ca40:	1c 83       	dec	r12		
    ca42:	f8 23       	jnz	$-14     	;abs 0xca34
    ca44:	30 41       	ret			

0000ca46 <__umodhi3>:
    ca46:	b0 12 2c ca 	call	#0xca2c	
    ca4a:	0f 4e       	mov	r14,	r15	
    ca4c:	30 41       	ret			

0000ca4e <memset>:
    ca4e:	0b 12       	push	r11		
    ca50:	0a 12       	push	r10		
    ca52:	09 12       	push	r9		
    ca54:	08 12       	push	r8		
    ca56:	3d 90 06 00 	cmp	#6,	r13	;#0x0006
    ca5a:	09 2c       	jc	$+20     	;abs 0xca6e
    ca5c:	0c 4f       	mov	r15,	r12	
    ca5e:	04 3c       	jmp	$+10     	;abs 0xca68
    ca60:	cc 4e 00 00 	mov.b	r14,	0(r12)	;0x0000(r12)
    ca64:	1c 53       	inc	r12		
    ca66:	3d 53       	add	#-1,	r13	;r3 As==11
    ca68:	0d 93       	tst	r13		
    ca6a:	fa 23       	jnz	$-10     	;abs 0xca60
    ca6c:	20 3c       	jmp	$+66     	;abs 0xcaae
    ca6e:	4e 4e       	mov.b	r14,	r14	
    ca70:	4b 4e       	mov.b	r14,	r11	
    ca72:	0b 93       	tst	r11		
    ca74:	03 24       	jz	$+8      	;abs 0xca7c
    ca76:	0c 4b       	mov	r11,	r12	
    ca78:	8c 10       	swpb	r12		
    ca7a:	0b dc       	bis	r12,	r11	
    ca7c:	1f b3       	bit	#1,	r15	;r3 As==01
    ca7e:	06 24       	jz	$+14     	;abs 0xca8c
    ca80:	3d 53       	add	#-1,	r13	;r3 As==11
    ca82:	cf 4e 00 00 	mov.b	r14,	0(r15)	;0x0000(r15)
    ca86:	09 4f       	mov	r15,	r9	
    ca88:	19 53       	inc	r9		
    ca8a:	01 3c       	jmp	$+4      	;abs 0xca8e
    ca8c:	09 4f       	mov	r15,	r9	
    ca8e:	0c 4d       	mov	r13,	r12	
    ca90:	12 c3       	clrc			
    ca92:	0c 10       	rrc	r12		
    ca94:	0a 49       	mov	r9,	r10	
    ca96:	08 4c       	mov	r12,	r8	
    ca98:	8a 4b 00 00 	mov	r11,	0(r10)	;0x0000(r10)
    ca9c:	2a 53       	incd	r10		
    ca9e:	38 53       	add	#-1,	r8	;r3 As==11
    caa0:	fb 23       	jnz	$-8      	;abs 0xca98
    caa2:	0c 5c       	rla	r12		
    caa4:	0c 59       	add	r9,	r12	
    caa6:	1d f3       	and	#1,	r13	;r3 As==01
    caa8:	02 24       	jz	$+6      	;abs 0xcaae
    caaa:	cc 4e 00 00 	mov.b	r14,	0(r12)	;0x0000(r12)
    caae:	38 41       	pop	r8		
    cab0:	39 41       	pop	r9		
    cab2:	3a 41       	pop	r10		
    cab4:	3b 41       	pop	r11		
    cab6:	30 41       	ret			

0000cab8 <atoi>:
    cab8:	0b 12       	push	r11		
    caba:	0e 4f       	mov	r15,	r14	
    cabc:	01 3c       	jmp	$+4      	;abs 0xcac0
    cabe:	1e 53       	inc	r14		
    cac0:	6f 4e       	mov.b	@r14,	r15	
    cac2:	7f 90 20 00 	cmp.b	#32,	r15	;#0x0020
    cac6:	fb 27       	jz	$-8      	;abs 0xcabe
    cac8:	7f 90 09 00 	cmp.b	#9,	r15	;#0x0009
    cacc:	f8 27       	jz	$-14     	;abs 0xcabe
    cace:	7f 90 0a 00 	cmp.b	#10,	r15	;#0x000a
    cad2:	f5 27       	jz	$-20     	;abs 0xcabe
    cad4:	7f 90 0c 00 	cmp.b	#12,	r15	;#0x000c
    cad8:	f2 27       	jz	$-26     	;abs 0xcabe
    cada:	7f 90 0d 00 	cmp.b	#13,	r15	;#0x000d
    cade:	ef 27       	jz	$-32     	;abs 0xcabe
    cae0:	7f 90 0b 00 	cmp.b	#11,	r15	;#0x000b
    cae4:	ec 27       	jz	$-38     	;abs 0xcabe
    cae6:	7f 90 2d 00 	cmp.b	#45,	r15	;#0x002d
    caea:	03 20       	jnz	$+8      	;abs 0xcaf2
    caec:	1e 53       	inc	r14		
    caee:	1b 43       	mov	#1,	r11	;r3 As==01
    caf0:	05 3c       	jmp	$+12     	;abs 0xcafc
    caf2:	7f 90 2b 00 	cmp.b	#43,	r15	;#0x002b
    caf6:	01 20       	jnz	$+4      	;abs 0xcafa
    caf8:	1e 53       	inc	r14		
    cafa:	0b 43       	clr	r11		
    cafc:	6f 4e       	mov.b	@r14,	r15	
    cafe:	8f 11       	sxt	r15		
    cb00:	3f 50 d0 ff 	add	#-48,	r15	;#0xffd0
    cb04:	3f 90 0a 00 	cmp	#10,	r15	;#0x000a
    cb08:	19 2c       	jc	$+52     	;abs 0xcb3c
    cb0a:	0d 43       	clr	r13		
    cb0c:	7c 4e       	mov.b	@r14+,	r12	
    cb0e:	8c 11       	sxt	r12		
    cb10:	0f 4c       	mov	r12,	r15	
    cb12:	3f 50 d0 ff 	add	#-48,	r15	;#0xffd0
    cb16:	0f 5d       	add	r13,	r15	
    cb18:	6d 4e       	mov.b	@r14,	r13	
    cb1a:	8d 11       	sxt	r13		
    cb1c:	3d 50 d0 ff 	add	#-48,	r13	;#0xffd0
    cb20:	3d 90 0a 00 	cmp	#10,	r13	;#0x000a
    cb24:	06 2c       	jc	$+14     	;abs 0xcb32
    cb26:	0f 5f       	rla	r15		
    cb28:	0d 4f       	mov	r15,	r13	
    cb2a:	0d 5d       	rla	r13		
    cb2c:	0d 5d       	rla	r13		
    cb2e:	0d 5f       	add	r15,	r13	
    cb30:	ed 3f       	jmp	$-36     	;abs 0xcb0c
    cb32:	0b 93       	tst	r11		
    cb34:	04 24       	jz	$+10     	;abs 0xcb3e
    cb36:	3f e3       	inv	r15		
    cb38:	1f 53       	inc	r15		
    cb3a:	01 3c       	jmp	$+4      	;abs 0xcb3e
    cb3c:	0f 43       	clr	r15		
    cb3e:	3b 41       	pop	r11		
    cb40:	30 41       	ret			

0000cb42 <_unexpected_>:
    cb42:	00 13       	reti			

Disassembly of section .rodata:

0000cb44 <_dv-0x510>:
    cb44:	09 50       	add	r0,	r9	
    cb46:	3a 09       	.word	0x093a;	????	
    cb48:	09 09       	.word	0x0909;	????	
    cb4a:	25 69       	addc	@r9,	r5	
    cb4c:	0d 0a       	.word	0x0a0d;	????	
    cb4e:	00 09       	.word	0x0900;	????	
    cb50:	49 3a       	jl	$-876    	;abs 0xc7e4
    cb52:	09 09       	.word	0x0909;	????	
    cb54:	09 25       	jz	$+532    	;abs 0xcd68
    cb56:	69 0d       	.word	0x0d69;	????	
    cb58:	0a 00       	.word	0x000a;	????	
    cb5a:	09 44       	mov	r4,	r9	
    cb5c:	3a 09       	.word	0x093a;	????	
    cb5e:	09 09       	.word	0x0909;	????	
    cb60:	25 69       	addc	@r9,	r5	
    cb62:	0d 0a       	.word	0x0a0d;	????	
    cb64:	00 09       	.word	0x0900;	????	
    cb66:	76 65       	addc.b	@r5+,	r6	
    cb68:	72 62       	addc.b	#8,	r2	;r2 As==11
    cb6a:	6f 73       	subc.b	#2,	r15	;r3 As==10
    cb6c:	65 3a       	jl	$-820    	;abs 0xc838
    cb6e:	09 09       	.word	0x0909;	????	
    cb70:	25 69       	addc	@r9,	r5	
    cb72:	0d 0a       	.word	0x0a0d;	????	
    cb74:	00 09       	.word	0x0900;	????	
    cb76:	70 72       	subc.b	#8,	r0	;r2 As==11
    cb78:	6f 67       	addc.b	@r7,	r15	
    cb7a:	72 61       	addc.b	@r1+,	r2	
    cb7c:	6d 3a       	jl	$-804    	;abs 0xc858
    cb7e:	09 09       	.word	0x0909;	????	
    cb80:	25 69       	addc	@r9,	r5	
    cb82:	0d 0a       	.word	0x0a0d;	????	
    cb84:	00 09       	.word	0x0900;	????	
    cb86:	73 74       	.word	0x7473;	????	Illegal as 2-op instr
    cb88:	65 70       	subc.b	@r0,	r5	
    cb8a:	3a 09       	.word	0x093a;	????	
    cb8c:	09 09       	.word	0x0909;	????	
    cb8e:	25 69       	addc	@r9,	r5	
    cb90:	0d 0a       	.word	0x0a0d;	????	
    cb92:	00 09       	.word	0x0900;	????	
    cb94:	73 65       	.word	0x6573;	????	Illegal as 2-op instr
    cb96:	74 20       	jnz	$+234    	;abs 0xcc80
    cb98:	70 6f       	addc.b	@r15+,	r0	
    cb9a:	69 6e       	addc.b	@r14,	r9	
    cb9c:	74 3a       	jl	$-790    	;abs 0xc886
    cb9e:	09 09       	.word	0x0909;	????	
    cba0:	25 69       	addc	@r9,	r5	
    cba2:	0d 0a       	.word	0x0a0d;	????	
    cba4:	00 09       	.word	0x0900;	????	
    cba6:	73 74       	.word	0x7473;	????	Illegal as 2-op instr
    cba8:	65 70       	subc.b	@r0,	r5	
    cbaa:	20 69       	addc	@r9,	r0	
    cbac:	6e 74       	subc.b	@r4,	r14	
    cbae:	65 72       	subc.b	#4,	r5	;r2 As==10
    cbb0:	76 61       	addc.b	@r1+,	r6	
    cbb2:	6c 3a       	jl	$-806    	;abs 0xc88c
    cbb4:	09 09       	.word	0x0909;	????	
    cbb6:	25 69       	addc	@r9,	r5	
    cbb8:	0d 0a       	.word	0x0a0d;	????	
    cbba:	00 09       	.word	0x0900;	????	
    cbbc:	72 65       	addc.b	@r5+,	r2	
    cbbe:	70 6f       	addc.b	@r15+,	r0	
    cbc0:	72 74       	subc.b	@r4+,	r2	
    cbc2:	20 69       	addc	@r9,	r0	
    cbc4:	6e 74       	subc.b	@r4,	r14	
    cbc6:	65 72       	subc.b	#4,	r5	;r2 As==10
    cbc8:	76 61       	addc.b	@r1+,	r6	
    cbca:	6c 3a       	jl	$-806    	;abs 0xc8a4
    cbcc:	09 25       	jz	$+532    	;abs 0xcde0
    cbce:	69 0d       	.word	0x0d69;	????	
    cbd0:	0a 00       	.word	0x000a;	????	
    cbd2:	61 72       	subc.b	#4,	r1	;r2 As==10
    cbd4:	67 73       	subc.b	#2,	r7	;r3 As==10
    cbd6:	20 67       	addc	@r7,	r0	
    cbd8:	69 76       	subc.b	@r6,	r9	
    cbda:	65 6e       	addc.b	@r14,	r5	
    cbdc:	3a 0a       	.word	0x0a3a;	????	
    cbde:	0d 00       	.word	0x000d;	????	
    cbe0:	20 2d       	jc	$+578    	;abs 0xce22
    cbe2:	20 25       	jz	$+578    	;abs 0xce24
    cbe4:	73 0a       	.word	0x0a73;	????	
    cbe6:	0d 00       	.word	0x000d;	????	
    cbe8:	25 73       	subc	#2,	r5	;r3 As==10
    cbea:	3a 20       	jnz	$+118    	;abs 0xcc60
    cbec:	25 73       	subc	#2,	r5	;r3 As==10
    cbee:	0a 0d       	.word	0x0d0a;	????	
    cbf0:	00 53       	add	#0,	r0	;r3 As==00
    cbf2:	65 74       	subc.b	@r4,	r5	
    cbf4:	74 69       	addc.b	@r9+,	r4	
    cbf6:	6e 67       	addc.b	@r7,	r14	
    cbf8:	20 50       	add	@r0,	r0	
    cbfa:	49 44       	mov.b	r4,	r9	
    cbfc:	3a 0d       	.word	0x0d3a;	????	
    cbfe:	0a 00       	.word	0x000a;	????	
    cc00:	09 50       	add	r0,	r9	
    cc02:	20 3d       	jmp	$+578    	;abs 0xce44
    cc04:	20 25       	jz	$+578    	;abs 0xce46
    cc06:	69 2c       	jc	$+212    	;abs 0xccda
    cc08:	0a 0d       	.word	0x0d0a;	????	
    cc0a:	00 09       	.word	0x0900;	????	
    cc0c:	49 20       	jnz	$+148    	;abs 0xcca0
    cc0e:	3d 20       	jnz	$+124    	;abs 0xcc8a
    cc10:	25 69       	addc	@r9,	r5	
    cc12:	2c 0a       	.word	0x0a2c;	????	
    cc14:	0d 00       	.word	0x000d;	????	
    cc16:	09 44       	mov	r4,	r9	
    cc18:	20 3d       	jmp	$+578    	;abs 0xce5a
    cc1a:	20 25       	jz	$+578    	;abs 0xce5c
    cc1c:	69 2c       	jc	$+212    	;abs 0xccf0
    cc1e:	0a 0d       	.word	0x0d0a;	????	
    cc20:	00 53       	add	#0,	r0	;r3 As==00
    cc22:	65 74       	subc.b	@r4,	r5	
    cc24:	74 69       	addc.b	@r9+,	r4	
    cc26:	6e 67       	addc.b	@r7,	r14	
    cc28:	20 52       	add	#4,	r0	;r2 As==10
    cc2a:	65 70       	subc.b	@r0,	r5	
    cc2c:	6f 72       	subc.b	#4,	r15	;r2 As==10
    cc2e:	74 20       	jnz	$+234    	;abs 0xcd18
    cc30:	69 6e       	addc.b	@r14,	r9	
    cc32:	74 65       	addc.b	@r5+,	r4	
    cc34:	72 76       	subc.b	@r6+,	r2	
    cc36:	61 6c       	addc.b	@r12,	r1	
    cc38:	20 74       	subc	@r4,	r0	
    cc3a:	6f 20       	jnz	$+224    	;abs 0xcd1a
    cc3c:	25 73       	subc	#2,	r5	;r3 As==10
    cc3e:	0a 0d       	.word	0x0d0a;	????	
    cc40:	00 53       	add	#0,	r0	;r3 As==00
    cc42:	65 74       	subc.b	@r4,	r5	
    cc44:	74 69       	addc.b	@r9+,	r4	
    cc46:	6e 67       	addc.b	@r7,	r14	
    cc48:	20 56       	add	@r6,	r0	
    cc4a:	65 72       	subc.b	#4,	r5	;r2 As==10
    cc4c:	62 6f       	addc.b	@r15,	r2	
    cc4e:	73 65       	.word	0x6573;	????	Illegal as 2-op instr
    cc50:	20 74       	subc	@r4,	r0	
    cc52:	6f 20       	jnz	$+224    	;abs 0xcd32
    cc54:	25 73       	subc	#2,	r5	;r3 As==10
    cc56:	0a 0d       	.word	0x0d0a;	????	
    cc58:	00 53       	add	#0,	r0	;r3 As==00
    cc5a:	65 74       	subc.b	@r4,	r5	
    cc5c:	74 69       	addc.b	@r9+,	r4	
    cc5e:	6e 67       	addc.b	@r7,	r14	
    cc60:	20 69       	addc	@r9,	r0	
    cc62:	6e 74       	subc.b	@r4,	r14	
    cc64:	65 72       	subc.b	#4,	r5	;r2 As==10
    cc66:	76 61       	addc.b	@r1+,	r6	
    cc68:	6c 20       	jnz	$+218    	;abs 0xcd42
    cc6a:	66 6f       	addc.b	@r15,	r6	
    cc6c:	72 20       	jnz	$+230    	;abs 0xcd52
    cc6e:	73 74       	.word	0x7473;	????	Illegal as 2-op instr
    cc70:	65 70       	subc.b	@r0,	r5	
    cc72:	20 25       	jz	$+578    	;abs 0xceb4
    cc74:	69 20       	jnz	$+212    	;abs 0xcd48
    cc76:	74 6f       	addc.b	@r15+,	r4	
    cc78:	20 25       	jz	$+578    	;abs 0xceba
    cc7a:	73 0a       	.word	0x0a73;	????	
    cc7c:	0d 00       	.word	0x000d;	????	
    cc7e:	53 65       	.word	0x6553;	????	Illegal as 2-op instr
    cc80:	74 74       	subc.b	@r4+,	r4	
    cc82:	69 6e       	addc.b	@r14,	r9	
    cc84:	67 20       	jnz	$+208    	;abs 0xcd54
    cc86:	74 61       	addc.b	@r1+,	r4	
    cc88:	72 67       	addc.b	@r7+,	r2	
    cc8a:	65 74       	subc.b	@r4,	r5	
    cc8c:	20 73       	subc	#2,	r0	;r3 As==10
    cc8e:	65 74       	subc.b	@r4,	r5	
    cc90:	70 6f       	addc.b	@r15+,	r0	
    cc92:	69 6e       	addc.b	@r14,	r9	
    cc94:	74 20       	jnz	$+234    	;abs 0xcd7e
    cc96:	74 6f       	addc.b	@r15+,	r4	
    cc98:	20 25       	jz	$+578    	;abs 0xceda
    cc9a:	73 20       	jnz	$+232    	;abs 0xcd82
    cc9c:	4b 61       	addc.b	r1,	r11	
    cc9e:	6c 76       	subc.b	@r6,	r12	
    cca0:	69 6e       	addc.b	@r14,	r9	
    cca2:	73 0a       	.word	0x0a73;	????	
    cca4:	0d 00       	.word	0x000d;	????	
    cca6:	4c 6f       	addc.b	r15,	r12	
    cca8:	61 64       	addc.b	@r4,	r1	
    ccaa:	69 6e       	addc.b	@r14,	r9	
    ccac:	67 20       	jnz	$+208    	;abs 0xcd7c
    ccae:	53 74       	.word	0x7453;	????	Illegal as 2-op instr
    ccb0:	65 70       	subc.b	@r0,	r5	
    ccb2:	20 25       	jz	$+578    	;abs 0xcef4
    ccb4:	73 0a       	.word	0x0a73;	????	
    ccb6:	0d 00       	.word	0x000d;	????	
    ccb8:	4c 6f       	addc.b	r15,	r12	
    ccba:	61 64       	addc.b	@r4,	r1	
    ccbc:	69 6e       	addc.b	@r14,	r9	
    ccbe:	67 20       	jnz	$+208    	;abs 0xcd8e
    ccc0:	50 72 6f 67 	subc.b	&0x676f,r0	
    ccc4:	72 61       	addc.b	@r1+,	r2	
    ccc6:	6d 20       	jnz	$+220    	;abs 0xcda2
    ccc8:	25 73       	subc	#2,	r5	;r3 As==10
    ccca:	0a 0d       	.word	0x0d0a;	????	
    cccc:	00 53       	add	#0,	r0	;r3 As==00
    ccce:	74 6f       	addc.b	@r15+,	r4	
    ccd0:	70 70 69 6e 	subc.b	#28265,	r0	;#0x6e69
    ccd4:	67 20       	jnz	$+208    	;abs 0xcda4
    ccd6:	50 72 6f 67 	subc.b	&0x676f,r0	
    ccda:	72 61       	addc.b	@r1+,	r2	
    ccdc:	6d 20       	jnz	$+220    	;abs 0xcdb8
    ccde:	25 69       	addc	@r9,	r5	
    cce0:	20 61       	addc	@r1,	r0	
    cce2:	74 20       	jnz	$+234    	;abs 0xcdcc
    cce4:	73 74       	.word	0x7473;	????	Illegal as 2-op instr
    cce6:	65 70       	subc.b	@r0,	r5	
    cce8:	20 25       	jz	$+578    	;abs 0xcf2a
    ccea:	69 0a       	.word	0x0a69;	????	
    ccec:	0d 00       	.word	0x000d;	????	
    ccee:	50 72 6f 67 	subc.b	&0x676f,r0	
    ccf2:	72 61       	addc.b	@r1+,	r2	
    ccf4:	6d 20       	jnz	$+220    	;abs 0xcdd0
    ccf6:	69 73       	subc.b	#2,	r9	;r3 As==10
    ccf8:	20 6e       	addc	@r14,	r0	
    ccfa:	6f 74       	subc.b	@r4,	r15	
    ccfc:	20 72       	subc	#4,	r0	;r2 As==10
    ccfe:	75 6e       	addc.b	@r14+,	r5	
    cd00:	6e 69       	addc.b	@r9,	r14	
    cd02:	6e 67       	addc.b	@r7,	r14	
    cd04:	20 6f       	addc	@r15,	r0	
    cd06:	72 20       	jnz	$+230    	;abs 0xcdec
    cd08:	70 61       	addc.b	@r1+,	r0	
    cd0a:	75 73       	subc.b	#-1,	r5	;r3 As==11
    cd0c:	65 64       	addc.b	@r4,	r5	
    cd0e:	2e 0a       	.word	0x0a2e;	????	
    cd10:	0d 00       	.word	0x000d;	????	
    cd12:	50 72 6f 67 	subc.b	&0x676f,r0	
    cd16:	72 61       	addc.b	@r1+,	r2	
    cd18:	6d 20       	jnz	$+220    	;abs 0xcdf4
    cd1a:	6d 75       	subc.b	@r5,	r13	
    cd1c:	73 74       	.word	0x7473;	????	Illegal as 2-op instr
    cd1e:	20 62       	addc	#4,	r0	;r2 As==10
    cd20:	65 20       	jnz	$+204    	;abs 0xcdec
    cd22:	72 75       	subc.b	@r5+,	r2	
    cd24:	6e 6e       	addc.b	@r14,	r14	
    cd26:	69 6e       	addc.b	@r14,	r9	
    cd28:	67 20       	jnz	$+208    	;abs 0xcdf8
    cd2a:	74 6f       	addc.b	@r15+,	r4	
    cd2c:	20 70       	subc	@r0,	r0	
    cd2e:	61 75       	subc.b	@r5,	r1	
    cd30:	73 65       	.word	0x6573;	????	Illegal as 2-op instr
    cd32:	20 69       	addc	@r9,	r0	
    cd34:	74 2e       	jc	$-790    	;abs 0xca1e
    cd36:	0a 0d       	.word	0x0d0a;	????	
    cd38:	00 50       	rla	r0		
    cd3a:	61 75       	subc.b	@r5,	r1	
    cd3c:	73 69       	.word	0x6973;	????	Illegal as 2-op instr
    cd3e:	6e 67       	addc.b	@r7,	r14	
    cd40:	20 50       	add	@r0,	r0	
    cd42:	72 6f       	addc.b	@r15+,	r2	
    cd44:	67 72       	subc.b	#4,	r7	;r2 As==10
    cd46:	61 6d       	addc.b	@r13,	r1	
    cd48:	20 25       	jz	$+578    	;abs 0xcf8a
    cd4a:	69 20       	jnz	$+212    	;abs 0xce1e
    cd4c:	61 74       	subc.b	@r4,	r1	
    cd4e:	20 73       	subc	#2,	r0	;r3 As==10
    cd50:	74 65       	addc.b	@r5+,	r4	
    cd52:	70 20       	jnz	$+226    	;abs 0xce34
    cd54:	25 69       	addc	@r9,	r5	
    cd56:	0a 0d       	.word	0x0d0a;	????	
    cd58:	00 52       	add	r2,	r0	
    cd5a:	75 6e       	addc.b	@r14+,	r5	
    cd5c:	6e 69       	addc.b	@r9,	r14	
    cd5e:	6e 67       	addc.b	@r7,	r14	
    cd60:	20 50       	add	@r0,	r0	
    cd62:	72 6f       	addc.b	@r15+,	r2	
    cd64:	67 72       	subc.b	#4,	r7	;r2 As==10
    cd66:	61 6d       	addc.b	@r13,	r1	
    cd68:	20 25       	jz	$+578    	;abs 0xcfaa
    cd6a:	69 20       	jnz	$+212    	;abs 0xce3e
    cd6c:	61 74       	subc.b	@r4,	r1	
    cd6e:	20 73       	subc	#2,	r0	;r3 As==10
    cd70:	74 65       	addc.b	@r5+,	r4	
    cd72:	70 20       	jnz	$+226    	;abs 0xce54
    cd74:	25 69       	addc	@r9,	r5	
    cd76:	0a 0d       	.word	0x0d0a;	????	
    cd78:	00 50       	rla	r0		
    cd7a:	72 6f       	addc.b	@r15+,	r2	
    cd7c:	67 72       	subc.b	#4,	r7	;r2 As==10
    cd7e:	61 6d       	addc.b	@r13,	r1	
    cd80:	20 69       	addc	@r9,	r0	
    cd82:	73 20       	jnz	$+232    	;abs 0xce6a
    cd84:	61 6c       	addc.b	@r12,	r1	
    cd86:	72 65       	addc.b	@r5+,	r2	
    cd88:	61 64       	addc.b	@r4,	r1	
    cd8a:	79 20       	jnz	$+244    	;abs 0xce7e
    cd8c:	72 75       	subc.b	@r5+,	r2	
    cd8e:	6e 6e       	addc.b	@r14,	r14	
    cd90:	69 6e       	addc.b	@r14,	r9	
    cd92:	67 0a       	.word	0x0a67;	????	
    cd94:	0d 00       	.word	0x000d;	????	
    cd96:	24 20       	jnz	$+74     	;abs 0xcde0
    cd98:	00 0a       	.word	0x0a00;	????	
    cd9a:	0a 0d       	.word	0x0d0a;	????	
    cd9c:	00 45       	br	r5		
    cd9e:	52 52 4f 52 	add.b	&0x524f,r2	
    cda2:	2c 20       	jnz	$+90     	;abs 0xcdfc
    cda4:	75 6e       	addc.b	@r14+,	r5	
    cda6:	6b 6e       	addc.b	@r14,	r11	
    cda8:	6f 77       	subc.b	@r7,	r15	
    cdaa:	6e 20       	jnz	$+222    	;abs 0xce88
    cdac:	63 6f       	.word	0x6f63;	????	Illegal as 2-op instr
    cdae:	6d 6d       	addc.b	@r13,	r13	
    cdb0:	61 6e       	addc.b	@r14,	r1	
    cdb2:	64 20       	jnz	$+202    	;abs 0xce7c
    cdb4:	67 69       	addc.b	@r9,	r7	
    cdb6:	76 65       	addc.b	@r5+,	r6	
    cdb8:	6e 0a       	.word	0x0a6e;	????	
    cdba:	0d 00       	.word	0x000d;	????	
    cdbc:	45 52       	add.b	r2,	r5	
    cdbe:	52 4f 52 2c 	mov.b	11346(r15),r2	;0x2c52(r15)
    cdc2:	20 61       	addc	@r1,	r0	
    cdc4:	6e 20       	jnz	$+222    	;abs 0xcea2
    cdc6:	61 72       	subc.b	#4,	r1	;r2 As==10
    cdc8:	67 75       	subc.b	@r5,	r7	
    cdca:	6d 65       	addc.b	@r5,	r13	
    cdcc:	6e 74       	subc.b	@r4,	r14	
    cdce:	20 69       	addc	@r9,	r0	
    cdd0:	73 20       	jnz	$+232    	;abs 0xceb8
    cdd2:	74 6f       	addc.b	@r15+,	r4	
    cdd4:	6f 20       	jnz	$+224    	;abs 0xceb4
    cdd6:	6c 65       	addc.b	@r5,	r12	
    cdd8:	6e 67       	addc.b	@r7,	r14	
    cdda:	74 68       	addc.b	@r8+,	r4	
    cddc:	79 0a       	.word	0x0a79;	????	
    cdde:	0d 00       	.word	0x000d;	????	
    cde0:	45 52       	add.b	r2,	r5	
    cde2:	52 4f 52 2c 	mov.b	11346(r15),r2	;0x2c52(r15)
    cde6:	20 74       	subc	@r4,	r0	
    cde8:	6f 6f       	addc.b	@r15,	r15	
    cdea:	20 6d       	addc	@r13,	r0	
    cdec:	61 6e       	addc.b	@r14,	r1	
    cdee:	79 20       	jnz	$+244    	;abs 0xcee2
    cdf0:	61 72       	subc.b	#4,	r1	;r2 As==10
    cdf2:	67 75       	subc.b	@r5,	r7	
    cdf4:	6d 65       	addc.b	@r5,	r13	
    cdf6:	6e 74       	subc.b	@r4,	r14	
    cdf8:	73 20       	jnz	$+232    	;abs 0xcee0
    cdfa:	67 69       	addc.b	@r9,	r7	
    cdfc:	76 65       	addc.b	@r5+,	r6	
    cdfe:	6e 0a       	.word	0x0a6e;	????	
    ce00:	0d 00       	.word	0x000d;	????	
    ce02:	0a 00       	.word	0x000a;	????	
    ce04:	68 65       	addc.b	@r5,	r8	
    ce06:	6c 70       	subc.b	@r0,	r12	
    ce08:	00 6c       	addc	r12,	r0	
    ce0a:	69 73       	subc.b	#2,	r9	;r3 As==10
    ce0c:	74 20       	jnz	$+234    	;abs 0xcef6
    ce0e:	61 76       	subc.b	@r6,	r1	
    ce10:	61 69       	addc.b	@r9,	r1	
    ce12:	6c 61       	addc.b	@r1,	r12	
    ce14:	62 6c       	addc.b	@r12,	r2	
    ce16:	65 20       	jnz	$+204    	;abs 0xcee2
    ce18:	63 6f       	.word	0x6f63;	????	Illegal as 2-op instr
    ce1a:	6d 6d       	addc.b	@r13,	r13	
    ce1c:	61 6e       	addc.b	@r14,	r1	
    ce1e:	64 73       	subc.b	#2,	r4	;r3 As==10
    ce20:	00 50       	rla	r0		
    ce22:	49 44       	mov.b	r4,	r9	
    ce24:	00 53       	add	#0,	r0	;r3 As==00
    ce26:	65 74       	subc.b	@r4,	r5	
    ce28:	20 33       	jn	$-446    	;abs 0xcc6a
    ce2a:	20 76       	subc	@r6,	r0	
    ce2c:	61 6c       	addc.b	@r12,	r1	
    ce2e:	75 65       	addc.b	@r5+,	r5	
    ce30:	73 20       	jnz	$+232    	;abs 0xcf18
    ce32:	66 6f       	addc.b	@r15,	r6	
    ce34:	72 20       	jnz	$+230    	;abs 0xcf1a
    ce36:	50 49 44 20 	br	8260(r9)	;0x2044(r9)
    ce3a:	72 65       	addc.b	@r5+,	r2	
    ce3c:	73 70       	.word	0x7073;	????	Illegal as 2-op instr
    ce3e:	65 63       	addc.b	#2,	r5	;r3 As==10
    ce40:	74 69       	addc.b	@r9+,	r4	
    ce42:	76 65       	addc.b	@r5+,	r6	
    ce44:	6c 79       	subc.b	@r9,	r12	
    ce46:	00 61       	addc	r1,	r0	
    ce48:	72 67       	addc.b	@r7+,	r2	
    ce4a:	73 00       	.word	0x0073;	????	
    ce4c:	70 72       	subc.b	#8,	r0	;r2 As==11
    ce4e:	69 6e       	addc.b	@r14,	r9	
    ce50:	74 20       	jnz	$+234    	;abs 0xcf3a
    ce52:	62 61       	addc.b	@r1,	r2	
    ce54:	63 6b       	.word	0x6b63;	????	Illegal as 2-op instr
    ce56:	20 67       	addc	@r7,	r0	
    ce58:	69 76       	subc.b	@r6,	r9	
    ce5a:	65 6e       	addc.b	@r14,	r5	
    ce5c:	20 61       	addc	@r1,	r0	
    ce5e:	72 67       	addc.b	@r7+,	r2	
    ce60:	75 6d       	addc.b	@r13+,	r5	
    ce62:	65 6e       	addc.b	@r14,	r5	
    ce64:	74 73       	subc.b	#-1,	r4	;r3 As==11
    ce66:	00 2b       	jnc	$-510    	;abs 0xcc68
    ce68:	00 52       	add	r2,	r0	
    ce6a:	75 6e       	addc.b	@r14+,	r5	
    ce6c:	20 74       	subc	@r4,	r0	
    ce6e:	68 65       	addc.b	@r5,	r8	
    ce70:	20 63       	addc	#2,	r0	;r3 As==10
    ce72:	75 72       	subc.b	#8,	r5	;r2 As==11
    ce74:	72 65       	addc.b	@r5+,	r2	
    ce76:	6e 74       	subc.b	@r4,	r14	
    ce78:	6c 79       	subc.b	@r9,	r12	
    ce7a:	20 73       	subc	#2,	r0	;r3 As==10
    ce7c:	65 6c       	addc.b	@r12,	r5	
    ce7e:	65 63       	addc.b	#2,	r5	;r3 As==10
    ce80:	74 65       	addc.b	@r5+,	r4	
    ce82:	64 20       	jnz	$+202    	;abs 0xcf4c
    ce84:	70 72       	subc.b	#8,	r0	;r2 As==11
    ce86:	6f 67       	addc.b	@r7,	r15	
    ce88:	72 61       	addc.b	@r1+,	r2	
    ce8a:	6d 20       	jnz	$+220    	;abs 0xcf66
    ce8c:	66 72       	subc.b	#4,	r6	;r2 As==10
    ce8e:	6f 6d       	addc.b	@r13,	r15	
    ce90:	20 74       	subc	@r4,	r0	
    ce92:	68 65       	addc.b	@r5,	r8	
    ce94:	20 63       	addc	#2,	r0	;r3 As==10
    ce96:	75 72       	subc.b	#8,	r5	;r2 As==11
    ce98:	72 65       	addc.b	@r5+,	r2	
    ce9a:	6e 74       	subc.b	@r4,	r14	
    ce9c:	6c 79       	subc.b	@r9,	r12	
    ce9e:	20 73       	subc	#2,	r0	;r3 As==10
    cea0:	65 6c       	addc.b	@r12,	r5	
    cea2:	65 63       	addc.b	#2,	r5	;r3 As==10
    cea4:	74 65       	addc.b	@r5+,	r4	
    cea6:	64 20       	jnz	$+202    	;abs 0xcf70
    cea8:	73 74       	.word	0x7473;	????	Illegal as 2-op instr
    ceaa:	65 70       	subc.b	@r0,	r5	
    ceac:	2e 20       	jnz	$+94     	;abs 0xcf0a
    ceae:	00 7c       	subc	r12,	r0	
    ceb0:	00 50       	rla	r0		
    ceb2:	61 75       	subc.b	@r5,	r1	
    ceb4:	73 65       	.word	0x6573;	????	Illegal as 2-op instr
    ceb6:	20 65       	addc	@r5,	r0	
    ceb8:	78 65       	addc.b	@r5+,	r8	
    ceba:	63 75       	.word	0x7563;	????	Illegal as 2-op instr
    cebc:	74 69       	addc.b	@r9+,	r4	
    cebe:	6f 6e       	addc.b	@r14,	r15	
    cec0:	20 61       	addc	@r1,	r0	
    cec2:	6e 64       	addc.b	@r4,	r14	
    cec4:	20 6d       	addc	@r13,	r0	
    cec6:	61 69       	addc.b	@r9,	r1	
    cec8:	6e 74       	subc.b	@r4,	r14	
    ceca:	61 69       	addc.b	@r9,	r1	
    cecc:	6e 20       	jnz	$+222    	;abs 0xcfaa
    cece:	74 68       	addc.b	@r8+,	r4	
    ced0:	65 20       	jnz	$+204    	;abs 0xcf9c
    ced2:	63 75       	.word	0x7563;	????	Illegal as 2-op instr
    ced4:	72 72       	subc.b	#8,	r2	;r2 As==11
    ced6:	65 6e       	addc.b	@r14,	r5	
    ced8:	74 20       	jnz	$+234    	;abs 0xcfc2
    ceda:	73 65       	.word	0x6573;	????	Illegal as 2-op instr
    cedc:	74 70 6f 69 	subc.b	#26991,	r4	;#0x696f
    cee0:	6e 74       	subc.b	@r4,	r14	
    cee2:	2e 20       	jnz	$+94     	;abs 0xcf40
    cee4:	00 2d       	jc	$+514    	;abs 0xd0e6
    cee6:	00 48       	br	r8		
    cee8:	61 6c       	addc.b	@r12,	r1	
    ceea:	74 20       	jnz	$+234    	;abs 0xcfd4
    ceec:	65 78       	subc.b	@r8,	r5	
    ceee:	65 63       	addc.b	#2,	r5	;r3 As==10
    cef0:	75 74       	subc.b	@r4+,	r5	
    cef2:	69 6f       	addc.b	@r15,	r9	
    cef4:	6e 20       	jnz	$+222    	;abs 0xcfd2
    cef6:	61 6e       	addc.b	@r14,	r1	
    cef8:	64 20       	jnz	$+202    	;abs 0xcfc2
    cefa:	74 75       	subc.b	@r5+,	r4	
    cefc:	72 6e       	addc.b	@r14+,	r2	
    cefe:	20 74       	subc	@r4,	r0	
    cf00:	68 65       	addc.b	@r5,	r8	
    cf02:	20 6f       	addc	@r15,	r0	
    cf04:	75 74       	subc.b	@r4+,	r5	
    cf06:	70 75       	subc.b	@r5+,	r0	
    cf08:	74 20       	jnz	$+234    	;abs 0xcff2
    cf0a:	70 69       	addc.b	@r9+,	r0	
    cf0c:	6e 20       	jnz	$+222    	;abs 0xcfea
    cf0e:	6f 66       	addc.b	@r6,	r15	
    cf10:	66 00       	.word	0x0066;	????	
    cf12:	70 00       	.word	0x0070;	????	
    cf14:	4c 6f       	addc.b	r15,	r12	
    cf16:	61 64       	addc.b	@r4,	r1	
    cf18:	20 70       	subc	@r0,	r0	
    cf1a:	72 6f       	addc.b	@r15+,	r2	
    cf1c:	67 72       	subc.b	#4,	r7	;r2 As==10
    cf1e:	61 6d       	addc.b	@r13,	r1	
    cf20:	20 4e       	br	@r14		
    cf22:	2c 20       	jnz	$+90     	;abs 0xcf7c
    cf24:	73 74       	.word	0x7473;	????	Illegal as 2-op instr
    cf26:	65 70       	subc.b	@r0,	r5	
    cf28:	20 30       	jn	$+66     	;abs 0xcf6a
    cf2a:	2e 20       	jnz	$+94     	;abs 0xcf88
    cf2c:	00 73       	sbc	r0		
    cf2e:	00 4c       	br	r12		
    cf30:	6f 61       	addc.b	@r1,	r15	
    cf32:	64 20       	jnz	$+202    	;abs 0xcffc
    cf34:	73 74       	.word	0x7473;	????	Illegal as 2-op instr
    cf36:	65 70       	subc.b	@r0,	r5	
    cf38:	20 4e       	br	@r14		
    cf3a:	20 6f       	addc	@r15,	r0	
    cf3c:	66 20       	jnz	$+206    	;abs 0xd00a
    cf3e:	74 68       	addc.b	@r8+,	r4	
    cf40:	65 20       	jnz	$+204    	;abs 0xd00c
    cf42:	63 75       	.word	0x7563;	????	Illegal as 2-op instr
    cf44:	72 72       	subc.b	#8,	r2	;r2 As==11
    cf46:	65 6e       	addc.b	@r14,	r5	
    cf48:	74 20       	jnz	$+234    	;abs 0xd032
    cf4a:	70 72       	subc.b	#8,	r0	;r2 As==11
    cf4c:	6f 67       	addc.b	@r7,	r15	
    cf4e:	72 61       	addc.b	@r1+,	r2	
    cf50:	6d 2e       	jc	$-804    	;abs 0xcc2c
    cf52:	20 00       	.word	0x0020;	????	
    cf54:	2e 00       	.word	0x002e;	????	
    cf56:	53 65       	.word	0x6553;	????	Illegal as 2-op instr
    cf58:	74 20       	jnz	$+234    	;abs 0xd042
    cf5a:	74 68       	addc.b	@r8+,	r4	
    cf5c:	65 20       	jnz	$+204    	;abs 0xd028
    cf5e:	74 61       	addc.b	@r1+,	r4	
    cf60:	72 67       	addc.b	@r7+,	r2	
    cf62:	65 74       	subc.b	@r4,	r5	
    cf64:	20 73       	subc	#2,	r0	;r3 As==10
    cf66:	65 74       	subc.b	@r4,	r5	
    cf68:	70 6f       	addc.b	@r15+,	r0	
    cf6a:	69 6e       	addc.b	@r14,	r9	
    cf6c:	74 20       	jnz	$+234    	;abs 0xd056
    cf6e:	6f 66       	addc.b	@r6,	r15	
    cf70:	20 74       	subc	@r4,	r0	
    cf72:	68 65       	addc.b	@r5,	r8	
    cf74:	20 63       	addc	#2,	r0	;r3 As==10
    cf76:	75 72       	subc.b	#8,	r5	;r2 As==11
    cf78:	72 65       	addc.b	@r5+,	r2	
    cf7a:	6e 74       	subc.b	@r4,	r14	
    cf7c:	20 73       	subc	#2,	r0	;r3 As==10
    cf7e:	74 65       	addc.b	@r5+,	r4	
    cf80:	70 20       	jnz	$+226    	;abs 0xd062
    cf82:	74 6f       	addc.b	@r15+,	r4	
    cf84:	20 4e       	br	@r14		
    cf86:	20 6b       	addc	@r11,	r0	
    cf88:	65 6c       	addc.b	@r12,	r5	
    cf8a:	76 69       	addc.b	@r9+,	r6	
    cf8c:	6e 73       	subc.b	#2,	r14	;r3 As==10
    cf8e:	20 28       	jnc	$+66     	;abs 0xcfd0
    cf90:	6f 6e       	addc.b	@r14,	r15	
    cf92:	6c 79       	subc.b	@r9,	r12	
    cf94:	20 61       	addc	@r1,	r0	
    cf96:	6c 6c       	addc.b	@r12,	r12	
    cf98:	6f 77       	subc.b	@r7,	r15	
    cf9a:	65 64       	addc.b	@r4,	r5	
    cf9c:	20 77       	subc	@r7,	r0	
    cf9e:	68 65       	addc.b	@r5,	r8	
    cfa0:	6e 20       	jnz	$+222    	;abs 0xd07e
    cfa2:	65 78       	subc.b	@r8,	r5	
    cfa4:	65 63       	addc.b	#2,	r5	;r3 As==10
    cfa6:	75 74       	subc.b	@r4+,	r5	
    cfa8:	69 6f       	addc.b	@r15,	r9	
    cfaa:	6e 20       	jnz	$+222    	;abs 0xd088
    cfac:	69 73       	subc.b	#2,	r9	;r3 As==10
    cfae:	20 68       	addc	@r8,	r0	
    cfb0:	61 6c       	addc.b	@r12,	r1	
    cfb2:	74 65       	addc.b	@r5+,	r4	
    cfb4:	64 29       	jnc	$+714    	;abs 0xd27e
    cfb6:	2e 20       	jnz	$+94     	;abs 0xd014
    cfb8:	00 6d       	addc	r13,	r0	
    cfba:	00 53       	add	#0,	r0	;r3 As==00
    cfbc:	65 74       	subc.b	@r4,	r5	
    cfbe:	20 74       	subc	@r4,	r0	
    cfc0:	68 65       	addc.b	@r5,	r8	
    cfc2:	20 69       	addc	@r9,	r0	
    cfc4:	6e 74       	subc.b	@r4,	r14	
    cfc6:	65 72       	subc.b	#4,	r5	;r2 As==10
    cfc8:	76 61       	addc.b	@r1+,	r6	
    cfca:	6c 20       	jnz	$+218    	;abs 0xd0a4
    cfcc:	6f 66       	addc.b	@r6,	r15	
    cfce:	20 74       	subc	@r4,	r0	
    cfd0:	68 65       	addc.b	@r5,	r8	
    cfd2:	20 63       	addc	#2,	r0	;r3 As==10
    cfd4:	75 72       	subc.b	#8,	r5	;r2 As==11
    cfd6:	72 65       	addc.b	@r5+,	r2	
    cfd8:	6e 74       	subc.b	@r4,	r14	
    cfda:	20 73       	subc	#2,	r0	;r3 As==10
    cfdc:	74 65       	addc.b	@r5+,	r4	
    cfde:	70 20       	jnz	$+226    	;abs 0xd0c0
    cfe0:	69 6e       	addc.b	@r14,	r9	
    cfe2:	20 4e       	br	@r14		
    cfe4:	20 6d       	addc	@r13,	r0	
    cfe6:	69 6e       	addc.b	@r14,	r9	
    cfe8:	75 74       	subc.b	@r4+,	r5	
    cfea:	65 73       	subc.b	#2,	r5	;r3 As==10
    cfec:	00 76       	subc	r6,	r0	
    cfee:	00 52       	add	r2,	r0	
    cff0:	65 73       	subc.b	#2,	r5	;r3 As==10
    cff2:	65 74       	subc.b	@r4,	r5	
    cff4:	2f 73       	subc	#2,	r15	;r3 As==10
    cff6:	65 74       	subc.b	@r4,	r5	
    cff8:	20 76       	subc	@r6,	r0	
    cffa:	65 72       	subc.b	#4,	r5	;r2 As==10
    cffc:	62 6f       	addc.b	@r15,	r2	
    cffe:	73 65       	.word	0x6573;	????	Illegal as 2-op instr
    d000:	20 6d       	addc	@r13,	r0	
    d002:	6f 64       	addc.b	@r4,	r15	
    d004:	65 2e       	jc	$-820    	;abs 0xccd0
    d006:	20 00       	.word	0x0020;	????	
    d008:	72 00       	.word	0x0072;	????	
    d00a:	53 65       	.word	0x6553;	????	Illegal as 2-op instr
    d00c:	74 20       	jnz	$+234    	;abs 0xd0f6
    d00e:	72 65       	addc.b	@r5+,	r2	
    d010:	70 6f       	addc.b	@r15+,	r0	
    d012:	72 74       	subc.b	@r4+,	r2	
    d014:	69 6e       	addc.b	@r14,	r9	
    d016:	67 20       	jnz	$+208    	;abs 0xd0e6
    d018:	69 6e       	addc.b	@r14,	r9	
    d01a:	74 65       	addc.b	@r5+,	r4	
    d01c:	72 76       	subc.b	@r6+,	r2	
    d01e:	61 6c       	addc.b	@r12,	r1	
    d020:	20 74       	subc	@r4,	r0	
    d022:	6f 20       	jnz	$+224    	;abs 0xd102
    d024:	4e 20       	jnz	$+158    	;abs 0xd0c2
    d026:	73 65       	.word	0x6573;	????	Illegal as 2-op instr
    d028:	63 6f       	.word	0x6f63;	????	Illegal as 2-op instr
    d02a:	6e 64       	addc.b	@r4,	r14	
    d02c:	73 2e       	jc	$-792    	;abs 0xcd14
    d02e:	00 73       	sbc	r0		
    d030:	68 6f       	addc.b	@r15,	r8	
    d032:	77 00       	.word	0x0077;	????	
    d034:	64 69       	addc.b	@r9,	r4	
    d036:	73 70       	.word	0x7073;	????	Illegal as 2-op instr
    d038:	6c 61       	addc.b	@r1,	r12	
    d03a:	79 20       	jnz	$+244    	;abs 0xd12e
    d03c:	74 68       	addc.b	@r8+,	r4	
    d03e:	65 20       	jnz	$+204    	;abs 0xd10a
    d040:	63 6f       	.word	0x6f63;	????	Illegal as 2-op instr
    d042:	6e 74       	subc.b	@r4,	r14	
    d044:	65 6e       	addc.b	@r14,	r5	
    d046:	74 73       	subc.b	#-1,	r4	;r3 As==11
    d048:	20 50       	add	@r0,	r0	
    d04a:	49 44       	mov.b	r4,	r9	
    d04c:	20 6f       	addc	@r15,	r0	
    d04e:	62 6a       	addc.b	@r10,	r2	
    d050:	65 63       	addc.b	#2,	r5	;r3 As==10
    d052:	74 00       	.word	0x0074;	????	

0000d054 <_dv>:
    d054:	00 ca       	bic	r10,	r0	
    d056:	9a 3b       	jl	$-202    	;abs 0xcf8c
    d058:	00 e1       	xor	r1,	r0	
    d05a:	f5 05       	.word	0x05f5;	????	
    d05c:	80 96 98 00 	cmp	r6,	152(r0)	;PC rel. 0xd0f6
    d060:	40 42       	br	r2		
    d062:	0f 00       	.word	0x000f;	????	
    d064:	a0 86 01 00 	sub	@r6,	1(r0)	;PC rel. 0xd067
    d068:	10 27       	jz	$-478    	;abs 0xce8a
    d06a:	00 00       	.word	0x0000;	????	
    d06c:	e8 03       	.word	0x03e8;	????	
    d06e:	00 00       	.word	0x0000;	????	
    d070:	64 00       	.word	0x0064;	????	
    d072:	00 00       	.word	0x0000;	????	
    d074:	0a 00       	.word	0x000a;	????	
    d076:	00 00       	.word	0x0000;	????	
    d078:	01 00       	.word	0x0001;	????	
	...

0000d07c <hex.1308>:
    d07c:	30 31       	jn	$+610    	;abs 0xd2de
    d07e:	32 33       	jn	$-410    	;abs 0xcee4
    d080:	34 35       	jge	$+618    	;abs 0xd2ea
    d082:	36 37       	jge	$-402    	;abs 0xcef0
    d084:	38 39       	jl	$+626    	;abs 0xd2f6
    d086:	41 42       	mov.b	r2,	r1	
    d088:	43 44       	.word	0x4443;	????	Illegal as 2-op instr
    d08a:	45 46       	mov.b	r6,	r5	

Disassembly of section .data:

00000200 <__data_start>:
 200:	0d 00       	.word	0x000d;	????	
 202:	04 ce       	bic	r14,	r4	
 204:	09 ce       	bic	r14,	r9	
 206:	1a c2 21 ce 	bic	&0xce21,r10	
 20a:	25 ce       	bic	@r14,	r5	
 20c:	52 c2 47 ce 	bic.b	&0xce47,r2	
 210:	4c ce       	bic.b	r14,	r12	
 212:	da c1 67 ce 	bic.b	-12697(r1),-12695(r10);0xce67(r1), 0xce69(r10)
 216:	69 ce 
 218:	fe c3 af ce 	bic.b	#-1,	-12625(r14);r3 As==11, 0xceaf(r14)
 21c:	b1 ce ce c3 	bic	@r14+,	-15410(r1);0xc3ce(r1)
 220:	e5 ce e7 ce 	bic.b	@r14,	-12569(r5);0xcee7(r5)
 224:	9e c3 12 cf 	bic	#1,	-12526(r14);r3 As==01, 0xcf12(r14)
 228:	14 cf 7c c3 	bic	-15492(r15),r4	;0xc37c(r15)
 22c:	2d cf       	bic	@r15,	r13	
 22e:	2f cf       	bic	@r15,	r15	
 230:	5a c3       	bic.b	#1,	r10	;r3 As==01
 232:	54 cf 56 cf 	bic.b	-12458(r15),r4	;0xcf56(r15)
 236:	38 c3       	bic	#-1,	r8	;r3 As==11
 238:	b9 cf bb cf 	bic	@r15+,	-12357(r9);0xcfbb(r9)
 23c:	0a c3       	bic	#0,	r10	;r3 As==00
 23e:	ed cf ef cf 	bic.b	@r15,	-12305(r13);0xcfef(r13)
 242:	e8 c2 08 d0 	bic.b	#4,	-12280(r8);r2 As==10, 0xd008(r8)
 246:	0a d0       	bis	r0,	r10	
 248:	c6 c2 2f d0 	bic.b	r2,	-12241(r6);0xd02f(r6)
 24c:	34 d0 52 c1 	bis	#-16046,r4	;#0xc152

Disassembly of section .bss:

00000250 <__bss_start>:
	...

000002aa <running>:
	...

000002ac <PID>:
	...

000002be <cmd_line>:
	...

Disassembly of section .noinit:

00000318 <__wdt_clear_value>:
	...

Disassembly of section .vectors:

0000ffe0 <__ivtbl_16>:
    ffe0:	4e c1       	bic.b	r1,	r14	
    ffe2:	4e c1       	bic.b	r1,	r14	
    ffe4:	3a c4       	bic	@r4+,	r10	
    ffe6:	4e c1       	bic.b	r1,	r14	
    ffe8:	4e c1       	bic.b	r1,	r14	
    ffea:	4e c1       	bic.b	r1,	r14	
    ffec:	4e c1       	bic.b	r1,	r14	
    ffee:	4e c1       	bic.b	r1,	r14	
    fff0:	4e c1       	bic.b	r1,	r14	
    fff2:	4e c1       	bic.b	r1,	r14	
    fff4:	4e c1       	bic.b	r1,	r14	
    fff6:	4e c1       	bic.b	r1,	r14	
    fff8:	4e c1       	bic.b	r1,	r14	
    fffa:	4e c1       	bic.b	r1,	r14	
    fffc:	4e c1       	bic.b	r1,	r14	
    fffe:	00 c0       	bic	r0,	r0	

Disassembly of section .debug_aranges:

00000000 <.debug_aranges>:
   0:	14 00       	.word	0x0014;	????	
   2:	00 00       	.word	0x0000;	????	
   4:	02 00       	.word	0x0002;	????	
   6:	00 00       	.word	0x0000;	????	
   8:	00 00       	.word	0x0000;	????	
   a:	02 00       	.word	0x0002;	????	
   c:	52 c1 06 03 	bic.b	774(r1),r2	;0x0306(r1)
  10:	3e c0 0a 01 	bic	#266,	r14	;#0x010a
  14:	00 00       	.word	0x0000;	????	
  16:	00 00       	.word	0x0000;	????	
  18:	10 00       	.word	0x0010;	????	
  1a:	00 00       	.word	0x0000;	????	
  1c:	02 00       	.word	0x0002;	????	
  1e:	98 06       	.word	0x0698;	????	
  20:	00 00       	.word	0x0000;	????	
  22:	02 00       	.word	0x0002;	????	
  24:	58 c4 c2 01 	bic.b	450(r4),r8	;0x01c2(r4)
  28:	00 00       	.word	0x0000;	????	
  2a:	00 00       	.word	0x0000;	????	
  2c:	10 00       	.word	0x0010;	????	
  2e:	00 00       	.word	0x0000;	????	
  30:	02 00       	.word	0x0002;	????	
  32:	d7 09       	.word	0x09d7;	????	
  34:	00 00       	.word	0x0000;	????	
  36:	02 00       	.word	0x0002;	????	
  38:	1a c6 6a 02 	bic	618(r6),r10	;0x026a(r6)
  3c:	00 00       	.word	0x0000;	????	
  3e:	00 00       	.word	0x0000;	????	
  40:	10 00       	.word	0x0010;	????	
  42:	00 00       	.word	0x0000;	????	
  44:	02 00       	.word	0x0002;	????	
  46:	2b 0c       	.word	0x0c2b;	????	
  48:	00 00       	.word	0x0000;	????	
  4a:	02 00       	.word	0x0002;	????	
  4c:	84 c8 0c 00 	bic	r8,	12(r4)	;0x000c(r4)
  50:	00 00       	.word	0x0000;	????	
  52:	00 00       	.word	0x0000;	????	
  54:	10 00       	.word	0x0010;	????	
  56:	00 00       	.word	0x0000;	????	
  58:	02 00       	.word	0x0002;	????	
  5a:	89 0c       	.word	0x0c89;	????	
  5c:	00 00       	.word	0x0000;	????	
  5e:	02 00       	.word	0x0002;	????	
  60:	90 c8 62 01 	bic	354(r8),0(r0)	;0x0162(r8), PC rel. 0x0064
  64:	00 00 
  66:	00 00       	.word	0x0000;	????	
  68:	10 00       	.word	0x0010;	????	
  6a:	00 00       	.word	0x0000;	????	
  6c:	02 00       	.word	0x0002;	????	
  6e:	50 0e       	.word	0x0e50;	????	
  70:	00 00       	.word	0x0000;	????	
  72:	02 00       	.word	0x0002;	????	
  74:	f2 c9 3a 00 	bic.b	@r9+,	&0x003a	
  78:	00 00       	.word	0x0000;	????	
  7a:	00 00       	.word	0x0000;	????	
  7c:	10 00       	.word	0x0010;	????	
  7e:	00 00       	.word	0x0000;	????	
  80:	02 00       	.word	0x0002;	????	
  82:	34 0f       	.word	0x0f34;	????	
  84:	00 00       	.word	0x0000;	????	
  86:	02 00       	.word	0x0002;	????	
  88:	2c ca       	bic	@r10,	r12	
  8a:	22 00       	.word	0x0022;	????	
  8c:	00 00       	.word	0x0000;	????	
  8e:	00 00       	.word	0x0000;	????	
  90:	10 00       	.word	0x0010;	????	
  92:	00 00       	.word	0x0000;	????	
  94:	02 00       	.word	0x0002;	????	
  96:	18 10 00 00 	rrc	0(r8)		;0x0000(r8)
  9a:	02 00       	.word	0x0002;	????	
  9c:	4e ca       	bic.b	r10,	r14	
  9e:	6a 00       	.word	0x006a;	????	
  a0:	00 00       	.word	0x0000;	????	
  a2:	00 00       	.word	0x0000;	????	
  a4:	10 00       	.word	0x0010;	????	
  a6:	00 00       	.word	0x0000;	????	
  a8:	02 00       	.word	0x0002;	????	
  aa:	16 11 00 00 	rra	0(r6)		;0x0000(r6)
  ae:	02 00       	.word	0x0002;	????	
  b0:	b8 ca 8a 00 	bic	@r10+,	138(r8)	;0x008a(r8)
  b4:	00 00       	.word	0x0000;	????	
  b6:	00 00       	.word	0x0000;	????	
  b8:	10 00       	.word	0x0010;	????	
  ba:	00 00       	.word	0x0000;	????	
  bc:	02 00       	.word	0x0002;	????	
  be:	ca 11       	.word	0x11ca;	????	
  c0:	00 00       	.word	0x0000;	????	
  c2:	02 00       	.word	0x0002;	????	
  c4:	00 c0       	bic	r0,	r0	
  c6:	0c 00       	.word	0x000c;	????	
  c8:	00 00       	.word	0x0000;	????	
  ca:	00 00       	.word	0x0000;	????	
  cc:	10 00       	.word	0x0010;	????	
  ce:	00 00       	.word	0x0000;	????	
  d0:	02 00       	.word	0x0002;	????	
  d2:	98 12 00 00 	call	0(r8)		;0x0000(r8)
  d6:	02 00       	.word	0x0002;	????	
  d8:	0c c0       	bic	r0,	r12	
  da:	04 00       	.word	0x0004;	????	
  dc:	00 00       	.word	0x0000;	????	
  de:	00 00       	.word	0x0000;	????	
  e0:	10 00       	.word	0x0010;	????	
  e2:	00 00       	.word	0x0000;	????	
  e4:	02 00       	.word	0x0002;	????	
  e6:	66 13       	.word	0x1366;	????	
  e8:	00 00       	.word	0x0000;	????	
  ea:	02 00       	.word	0x0002;	????	
  ec:	10 c0 18 00 	bic	24(r0),	r0	;PC rel. 0x0106
  f0:	00 00       	.word	0x0000;	????	
  f2:	00 00       	.word	0x0000;	????	
  f4:	10 00       	.word	0x0010;	????	
  f6:	00 00       	.word	0x0000;	????	
  f8:	02 00       	.word	0x0002;	????	
  fa:	34 14       	.word	0x1434;	????	
  fc:	00 00       	.word	0x0000;	????	
  fe:	02 00       	.word	0x0002;	????	
 100:	28 c0       	bic	@r0,	r8	
 102:	16 00       	.word	0x0016;	????	
 104:	00 00       	.word	0x0000;	????	
 106:	00 00       	.word	0x0000;	????	
 108:	10 00       	.word	0x0010;	????	
 10a:	00 00       	.word	0x0000;	????	
 10c:	02 00       	.word	0x0002;	????	
 10e:	02 15       	.word	0x1502;	????	
 110:	00 00       	.word	0x0000;	????	
 112:	02 00       	.word	0x0002;	????	
 114:	48 c1       	bic.b	r1,	r8	
 116:	06 00       	.word	0x0006;	????	
 118:	00 00       	.word	0x0000;	????	
 11a:	00 00       	.word	0x0000;	????	
 11c:	10 00       	.word	0x0010;	????	
 11e:	00 00       	.word	0x0000;	????	
 120:	02 00       	.word	0x0002;	????	
 122:	d0 15       	.word	0x15d0;	????	
 124:	00 00       	.word	0x0000;	????	
 126:	02 00       	.word	0x0002;	????	
 128:	42 cb       	bic.b	r11,	r2	
 12a:	02 00       	.word	0x0002;	????	
 12c:	00 00       	.word	0x0000;	????	
	...

Disassembly of section .debug_info:

00000000 <.debug_info>:
       0:	94 06       	.word	0x0694;	????	
       2:	00 00       	.word	0x0000;	????	
       4:	02 00       	.word	0x0002;	????	
       6:	00 00       	.word	0x0000;	????	
       8:	00 00       	.word	0x0000;	????	
       a:	02 01       	.word	0x0102;	????	
       c:	e6 00       	.word	0x00e6;	????	
       e:	00 00       	.word	0x0000;	????	
      10:	01 a3       	dadc	r1		
      12:	00 00       	.word	0x0000;	????	
      14:	00 59       	add	r9,	r0	
      16:	02 00       	.word	0x0002;	????	
	...
      24:	00 02       	.word	0x0200;	????	
      26:	02 07       	.word	0x0702;	????	
      28:	7f 01       	.word	0x017f;	????	
      2a:	00 00       	.word	0x0000;	????	
      2c:	02 04       	.word	0x0402;	????	
      2e:	05 cb       	bic	r11,	r5	
      30:	00 00       	.word	0x0000;	????	
      32:	00 03       	.word	0x0300;	????	
      34:	02 05       	.word	0x0502;	????	
      36:	69 6e       	addc.b	@r14,	r9	
      38:	74 00       	.word	0x0074;	????	
      3a:	02 01       	.word	0x0102;	????	
      3c:	06 53       	add	#0,	r6	;r3 As==00
      3e:	01 00       	.word	0x0001;	????	
      40:	00 02       	.word	0x0200;	????	
      42:	08 05       	.word	0x0508;	????	
      44:	c6 00       	.word	0x00c6;	????	
      46:	00 00       	.word	0x0000;	????	
      48:	02 01       	.word	0x0102;	????	
      4a:	08 51       	add	r1,	r8	
      4c:	01 00       	.word	0x0001;	????	
      4e:	00 02       	.word	0x0200;	????	
      50:	04 07       	.word	0x0704;	????	
      52:	7a 01       	.word	0x017a;	????	
      54:	00 00       	.word	0x0000;	????	
      56:	02 08       	.word	0x0802;	????	
      58:	07 75       	subc	r5,	r7	
      5a:	01 00       	.word	0x0001;	????	
      5c:	00 02       	.word	0x0200;	????	
      5e:	02 07       	.word	0x0702;	????	
      60:	e3 01       	.word	0x01e3;	????	
      62:	00 00       	.word	0x0000;	????	
      64:	04 02       	.word	0x0204;	????	
      66:	6a 00       	.word	0x006a;	????	
      68:	00 00       	.word	0x0000;	????	
      6a:	02 01       	.word	0x0102;	????	
      6c:	06 5a       	add	r10,	r6	
      6e:	01 00       	.word	0x0001;	????	
      70:	00 04       	.word	0x0400;	????	
      72:	02 77       	subc	r7,	r2	
      74:	00 00       	.word	0x0000;	????	
      76:	00 05       	.word	0x0500;	????	
      78:	6a 00       	.word	0x006a;	????	
      7a:	00 00       	.word	0x0000;	????	
      7c:	06 10       	rrc	r6		
      7e:	02 3d       	jmp	$+518    	;abs 0x284
      80:	93 00       	.word	0x0093;	????	
      82:	00 00       	.word	0x0000;	????	
      84:	07 76       	subc	r6,	r7	
      86:	61 6c       	addc.b	@r12,	r1	
      88:	00 02       	.word	0x0200;	????	
      8a:	41 93       	tst.b	r1		
      8c:	00 00       	.word	0x0000;	????	
      8e:	00 02       	.word	0x0200;	????	
      90:	23 00       	.word	0x0023;	????	
      92:	00 08       	.word	0x0800;	????	
      94:	6a 00       	.word	0x006a;	????	
      96:	00 00       	.word	0x0000;	????	
      98:	a3 00       	.word	0x00a3;	????	
      9a:	00 00       	.word	0x0000;	????	
      9c:	09 25       	jz	$+532    	;abs 0x2b0
      9e:	00 00       	.word	0x0000;	????	
      a0:	00 0e       	.word	0x0e00;	????	
      a2:	00 0a       	.word	0x0a00;	????	
      a4:	ab 00       	.word	0x00ab;	????	
      a6:	00 00       	.word	0x0000;	????	
      a8:	02 42       	mov	r2,	r2	
      aa:	7c 00       	.word	0x007c;	????	
      ac:	00 00       	.word	0x0000;	????	
      ae:	06 52       	add	r2,	r6	
      b0:	02 47       	mov	r7,	r2	
      b2:	d3 00       	.word	0x00d3;	????	
      b4:	00 00       	.word	0x0000;	????	
      b6:	0b 39       	jl	$+536    	;abs 0x2ce
      b8:	02 00       	.word	0x0002;	????	
      ba:	00 02       	.word	0x0200;	????	
      bc:	4b 48       	mov.b	r8,	r11	
      be:	00 00       	.word	0x0000;	????	
      c0:	00 02       	.word	0x0200;	????	
      c2:	23 00       	.word	0x0023;	????	
      c4:	0b cf       	bic	r15,	r11	
      c6:	01 00       	.word	0x0001;	????	
      c8:	00 02       	.word	0x0200;	????	
      ca:	50 d3       	bis.b	#1,	r0	;r3 As==01
      cc:	00 00       	.word	0x0000;	????	
      ce:	00 02       	.word	0x0200;	????	
      d0:	23 02       	.word	0x0223;	????	
      d2:	00 08       	.word	0x0800;	????	
      d4:	a3 00       	.word	0x00a3;	????	
      d6:	00 00       	.word	0x0000;	????	
      d8:	e3 00       	.word	0x00e3;	????	
      da:	00 00       	.word	0x0000;	????	
      dc:	09 25       	jz	$+532    	;abs 0x2f0
      de:	00 00       	.word	0x0000;	????	
      e0:	00 04       	.word	0x0400;	????	
      e2:	00 0a       	.word	0x0a00;	????	
      e4:	c5 01       	.word	0x01c5;	????	
      e6:	00 00       	.word	0x0000;	????	
      e8:	02 51       	add	r1,	r2	
      ea:	ae 00       	.word	0x00ae;	????	
      ec:	00 00       	.word	0x0000;	????	
      ee:	06 06       	.word	0x0606;	????	
      f0:	02 56       	add	r6,	r2	
      f2:	21 01       	.word	0x0121;	????	
      f4:	00 00       	.word	0x0000;	????	
      f6:	07 63       	adc	r7		
      f8:	6d 64       	addc.b	@r4,	r13	
      fa:	00 02       	.word	0x0200;	????	
      fc:	5a 71 00 00 	subc.b	0(r1),	r10	;0x0000(r1)
     100:	00 02       	.word	0x0200;	????	
     102:	23 00       	.word	0x0023;	????	
     104:	0b b9       	bit	r9,	r11	
     106:	01 00       	.word	0x0001;	????	
     108:	00 02       	.word	0x0200;	????	
     10a:	5f 71 00 00 	subc.b	0(r1),	r15	;0x0000(r1)
     10e:	00 02       	.word	0x0200;	????	
     110:	23 02       	.word	0x0223;	????	
     112:	0b c1       	bic	r1,	r11	
     114:	00 00       	.word	0x0000;	????	
     116:	00 02       	.word	0x0200;	????	
     118:	64 37       	jge	$-310    	;abs 0xffe2
     11a:	01 00       	.word	0x0001;	????	
     11c:	00 02       	.word	0x0200;	????	
     11e:	23 04       	.word	0x0423;	????	
     120:	00 0c       	.word	0x0c00;	????	
     122:	01 33       	jn	$-508    	;abs 0xff26
     124:	00 00       	.word	0x0000;	????	
     126:	00 31       	jn	$+514    	;abs 0x328
     128:	01 00       	.word	0x0001;	????	
     12a:	00 0d       	.word	0x0d00;	????	
     12c:	31 01       	.word	0x0131;	????	
     12e:	00 00       	.word	0x0000;	????	
     130:	00 04       	.word	0x0400;	????	
     132:	02 e3       	xor	#0,	r2	;r3 As==00
     134:	00 00       	.word	0x0000;	????	
     136:	00 04       	.word	0x0400;	????	
     138:	02 21       	jnz	$+518    	;abs 0x33e
     13a:	01 00       	.word	0x0001;	????	
     13c:	00 0a       	.word	0x0a00;	????	
     13e:	3b 00       	.word	0x003b;	????	
     140:	00 00       	.word	0x0000;	????	
     142:	02 65       	addc	r5,	r2	
     144:	ee 00       	.word	0x00ee;	????	
     146:	00 00       	.word	0x0000;	????	
     148:	06 02       	.word	0x0206;	????	
     14a:	02 6a       	addc	r10,	r2	
     14c:	6d 01       	.word	0x016d;	????	
     14e:	00 00       	.word	0x0000;	????	
     150:	0b 39       	jl	$+536    	;abs 0x368
     152:	02 00       	.word	0x0002;	????	
     154:	00 02       	.word	0x0200;	????	
     156:	6e 48       	mov.b	@r8,	r14	
     158:	00 00       	.word	0x0000;	????	
     15a:	00 02       	.word	0x0200;	????	
     15c:	23 00       	.word	0x0023;	????	
     15e:	0b 1b       	.word	0x1b0b;	????	
     160:	02 00       	.word	0x0002;	????	
     162:	00 02       	.word	0x0200;	????	
     164:	73 6d       	.word	0x6d73;	????	Illegal as 2-op instr
     166:	01 00       	.word	0x0001;	????	
     168:	00 02       	.word	0x0200;	????	
     16a:	23 02       	.word	0x0223;	????	
     16c:	00 08       	.word	0x0800;	????	
     16e:	3d 01       	.word	0x013d;	????	
     170:	00 00       	.word	0x0000;	????	
     172:	7c 01       	.word	0x017c;	????	
     174:	00 00       	.word	0x0000;	????	
     176:	0e 25       	jz	$+542    	;abs 0x394
     178:	00 00       	.word	0x0000;	????	
     17a:	00 00       	.word	0x0000;	????	
     17c:	0a 15       	.word	0x150a;	????	
     17e:	02 00       	.word	0x0002;	????	
     180:	00 02       	.word	0x0200;	????	
     182:	74 48       	mov.b	@r8+,	r4	
     184:	01 00       	.word	0x0001;	????	
     186:	00 0f       	.word	0x0f00;	????	
     188:	be 01       	.word	0x01be;	????	
     18a:	00 00       	.word	0x0000;	????	
     18c:	12 03       	.word	0x0312;	????	
     18e:	0c 0a       	.word	0x0a0c;	????	
     190:	02 00       	.word	0x0002;	????	
     192:	00 07       	.word	0x0700;	????	
     194:	70 00       	.word	0x0070;	????	
     196:	03 0d       	.word	0x0d03;	????	
     198:	33 00       	.word	0x0033;	????	
     19a:	00 00       	.word	0x0000;	????	
     19c:	02 23       	jnz	$-506    	;abs 0xffa2
     19e:	00 07       	.word	0x0700;	????	
     1a0:	69 00       	.word	0x0069;	????	
     1a2:	03 0e       	.word	0x0e03;	????	
     1a4:	33 00       	.word	0x0033;	????	
     1a6:	00 00       	.word	0x0000;	????	
     1a8:	02 23       	jnz	$-506    	;abs 0xffae
     1aa:	02 07       	.word	0x0702;	????	
     1ac:	64 00       	.word	0x0064;	????	
     1ae:	03 0f       	.word	0x0f03;	????	
     1b0:	33 00       	.word	0x0033;	????	
     1b2:	00 00       	.word	0x0000;	????	
     1b4:	02 23       	jnz	$-506    	;abs 0xffba
     1b6:	04 07       	.word	0x0704;	????	
     1b8:	76 00       	.word	0x0076;	????	
     1ba:	03 10       	rrc	#0		;r3 As==00
     1bc:	33 00       	.word	0x0033;	????	
     1be:	00 00       	.word	0x0000;	????	
     1c0:	02 23       	jnz	$-506    	;abs 0xffc6
     1c2:	06 0b       	.word	0x0b06;	????	
     1c4:	6d 01       	.word	0x016d;	????	
     1c6:	00 00       	.word	0x0000;	????	
     1c8:	03 11       	rra	#0		;r3 As==00
     1ca:	33 00       	.word	0x0033;	????	
     1cc:	00 00       	.word	0x0000;	????	
     1ce:	02 23       	jnz	$-506    	;abs 0xffd4
     1d0:	08 0b       	.word	0x0b08;	????	
     1d2:	4d 02       	.word	0x024d;	????	
     1d4:	00 00       	.word	0x0000;	????	
     1d6:	03 12       	push	#0		;r3 As==00
     1d8:	33 00       	.word	0x0033;	????	
     1da:	00 00       	.word	0x0000;	????	
     1dc:	02 23       	jnz	$-506    	;abs 0xffe2
     1de:	0a 0b       	.word	0x0b0a;	????	
     1e0:	0a 00       	.word	0x000a;	????	
     1e2:	00 00       	.word	0x0000;	????	
     1e4:	03 13       	reti			;return from interupt
     1e6:	33 00       	.word	0x0033;	????	
     1e8:	00 00       	.word	0x0000;	????	
     1ea:	02 23       	jnz	$-506    	;abs 0xfff0
     1ec:	0c 0b       	.word	0x0b0c;	????	
     1ee:	a3 01       	.word	0x01a3;	????	
     1f0:	00 00       	.word	0x0000;	????	
     1f2:	03 14       	.word	0x1403;	????	
     1f4:	33 00       	.word	0x0033;	????	
     1f6:	00 00       	.word	0x0000;	????	
     1f8:	02 23       	jnz	$-506    	;abs 0xfffe
     1fa:	0e 0b       	.word	0x0b0e;	????	
     1fc:	03 02       	.word	0x0203;	????	
     1fe:	00 00       	.word	0x0000;	????	
     200:	03 15       	.word	0x1503;	????	
     202:	33 00       	.word	0x0033;	????	
     204:	00 00       	.word	0x0000;	????	
     206:	02 23       	jnz	$-506    	;abs 0xc
     208:	10 00       	.word	0x0010;	????	
     20a:	0a bf       	bit	r15,	r10	
     20c:	01 00       	.word	0x0001;	????	
     20e:	00 03       	.word	0x0300;	????	
     210:	16 87 01 00 	sub	1(r7),	r6	;0x0001(r7)
     214:	00 10       	rrc	r0		
     216:	01 67       	addc	r7,	r1	
     218:	00 00       	.word	0x0000;	????	
     21a:	00 01       	.word	0x0100;	????	
     21c:	45 01       	.word	0x0145;	????	
     21e:	33 00       	.word	0x0033;	????	
     220:	00 00       	.word	0x0000;	????	
     222:	01 33       	jn	$-508    	;abs 0x26
     224:	02 00       	.word	0x0002;	????	
     226:	00 11       	rra	r0		
     228:	cf 01       	.word	0x01cf;	????	
     22a:	00 00       	.word	0x0000;	????	
     22c:	01 45       	mov	r5,	r1	
     22e:	31 01       	.word	0x0131;	????	
     230:	00 00       	.word	0x0000;	????	
     232:	00 10       	rrc	r0		
     234:	01 2b       	jnc	$-508    	;abs 0x38
     236:	01 00       	.word	0x0001;	????	
     238:	00 01       	.word	0x0100;	????	
     23a:	39 01       	.word	0x0139;	????	
     23c:	33 00       	.word	0x0033;	????	
     23e:	00 00       	.word	0x0000;	????	
     240:	01 51       	rla	r1		
     242:	02 00       	.word	0x0002;	????	
     244:	00 11       	rra	r0		
     246:	cf 01       	.word	0x01cf;	????	
     248:	00 00       	.word	0x0000;	????	
     24a:	01 39       	jl	$+516    	;abs 0x44e
     24c:	31 01       	.word	0x0131;	????	
     24e:	00 00       	.word	0x0000;	????	
     250:	00 10       	rrc	r0		
     252:	01 45       	mov	r5,	r1	
     254:	00 00       	.word	0x0000;	????	
     256:	00 01       	.word	0x0100;	????	
     258:	2d 01       	.word	0x012d;	????	
     25a:	33 00       	.word	0x0033;	????	
     25c:	00 00       	.word	0x0000;	????	
     25e:	01 6f       	addc	r15,	r1	
     260:	02 00       	.word	0x0002;	????	
     262:	00 11       	rra	r0		
     264:	cf 01       	.word	0x01cf;	????	
     266:	00 00       	.word	0x0000;	????	
     268:	01 2d       	jc	$+516    	;abs 0x46c
     26a:	31 01       	.word	0x0131;	????	
     26c:	00 00       	.word	0x0000;	????	
     26e:	00 12       	push	r0		
     270:	01 58       	add	r8,	r1	
     272:	00 00       	.word	0x0000;	????	
     274:	00 01       	.word	0x0100;	????	
     276:	8f 01       	.word	0x018f;	????	
     278:	33 00       	.word	0x0033;	????	
     27a:	00 00       	.word	0x0000;	????	
     27c:	52 c1 da c1 	bic.b	-15910(r1),r2	;0xc1da(r1)
     280:	00 00       	.word	0x0000;	????	
     282:	00 00       	.word	0x0000;	????	
     284:	98 02       	.word	0x0298;	????	
     286:	00 00       	.word	0x0000;	????	
     288:	13 cf       	.word	0xcf13;	????	Illegal as 2-op instr
     28a:	01 00       	.word	0x0001;	????	
     28c:	00 01       	.word	0x0100;	????	
     28e:	8f 31       	jn	$+800    	;abs 0x5ae
     290:	01 00       	.word	0x0001;	????	
     292:	00 ec       	xor	r12,	r0	
     294:	00 00       	.word	0x0000;	????	
     296:	00 00       	.word	0x0000;	????	
     298:	12 01       	.word	0x0112;	????	
     29a:	d4 01       	.word	0x01d4;	????	
     29c:	00 00       	.word	0x0000;	????	
     29e:	01 20       	jnz	$+4      	;abs 0x2a2
     2a0:	01 33       	jn	$-508    	;abs 0xa4
     2a2:	00 00       	.word	0x0000;	????	
     2a4:	00 da       	bis	r10,	r0	
     2a6:	c1 1a       	.word	0x1ac1;	????	
     2a8:	c2 f7 00 00 	and.b	r7,	&0x0000	
     2ac:	00 ce       	bic	r14,	r0	
     2ae:	02 00       	.word	0x0002;	????	
     2b0:	00 13       	reti			
     2b2:	cf 01       	.word	0x01cf;	????	
     2b4:	00 00       	.word	0x0000;	????	
     2b6:	01 20       	jnz	$+4      	;abs 0x2ba
     2b8:	31 01       	.word	0x0131;	????	
     2ba:	00 00       	.word	0x0000;	????	
     2bc:	2b 01       	.word	0x012b;	????	
     2be:	00 00       	.word	0x0000;	????	
     2c0:	14 6b 00 01 	addc	256(r11),r4	;0x0100(r11)
     2c4:	22 33       	jn	$-442    	;abs 0x10a
     2c6:	00 00       	.word	0x0000;	????	
     2c8:	00 3d       	jmp	$+514    	;abs 0x4ca
     2ca:	01 00       	.word	0x0001;	????	
     2cc:	00 00       	.word	0x0000;	????	
     2ce:	12 01       	.word	0x0112;	????	
     2d0:	8c 00       	.word	0x008c;	????	
     2d2:	00 00       	.word	0x0000;	????	
     2d4:	01 15       	.word	0x1501;	????	
     2d6:	01 33       	jn	$-508    	;abs 0xda
     2d8:	00 00       	.word	0x0000;	????	
     2da:	00 1a       	.word	0x1a00;	????	
     2dc:	c2 52 c2 50 	add.b	r2,	&0x50c2	
     2e0:	01 00       	.word	0x0001;	????	
     2e2:	00 04       	.word	0x0400;	????	
     2e4:	03 00       	.word	0x0003;	????	
     2e6:	00 13       	reti			
     2e8:	cf 01       	.word	0x01cf;	????	
     2ea:	00 00       	.word	0x0000;	????	
     2ec:	01 15       	.word	0x1501;	????	
     2ee:	31 01       	.word	0x0131;	????	
     2f0:	00 00       	.word	0x0000;	????	
     2f2:	8c 01       	.word	0x018c;	????	
     2f4:	00 00       	.word	0x0000;	????	
     2f6:	14 6b 00 01 	addc	256(r11),r4	;0x0100(r11)
     2fa:	17 33       	jn	$-464    	;abs 0x12a
     2fc:	00 00       	.word	0x0000;	????	
     2fe:	00 97       	cmp	r7,	r0	
     300:	01 00       	.word	0x0001;	????	
     302:	00 00       	.word	0x0000;	????	
     304:	12 01       	.word	0x0112;	????	
     306:	76 00       	.word	0x0076;	????	
     308:	00 00       	.word	0x0000;	????	
     30a:	01 81       	sub	r1,	r1	
     30c:	01 33       	jn	$-508    	;abs 0x110
     30e:	00 00       	.word	0x0000;	????	
     310:	00 52       	add	r2,	r0	
     312:	c2 c6 c2 aa 	bic.b	r6,	&0xaac2	
     316:	01 00       	.word	0x0001;	????	
     318:	00 2d       	jc	$+514    	;abs 0x51a
     31a:	03 00       	.word	0x0003;	????	
     31c:	00 13       	reti			
     31e:	cf 01       	.word	0x01cf;	????	
     320:	00 00       	.word	0x0000;	????	
     322:	01 81       	sub	r1,	r1	
     324:	31 01       	.word	0x0131;	????	
     326:	00 00       	.word	0x0000;	????	
     328:	26 02       	.word	0x0226;	????	
     32a:	00 00       	.word	0x0000;	????	
     32c:	00 12       	push	r0		
     32e:	01 f6       	and	r6,	r1	
     330:	01 00       	.word	0x0001;	????	
     332:	00 01       	.word	0x0100;	????	
     334:	79 01       	.word	0x0179;	????	
     336:	33 00       	.word	0x0033;	????	
     338:	00 00       	.word	0x0000;	????	
     33a:	c6 c2 e8 c2 	bic.b	r2,	-15640(r6);0xc2e8(r6)
     33e:	38 02       	.word	0x0238;	????	
     340:	00 00       	.word	0x0000;	????	
     342:	56 03       	.word	0x0356;	????	
     344:	00 00       	.word	0x0000;	????	
     346:	13 cf       	.word	0xcf13;	????	Illegal as 2-op instr
     348:	01 00       	.word	0x0001;	????	
     34a:	00 01       	.word	0x0100;	????	
     34c:	79 31       	jn	$+756    	;abs 0x640
     34e:	01 00       	.word	0x0001;	????	
     350:	00 64       	addc	r4,	r0	
     352:	02 00       	.word	0x0002;	????	
     354:	00 00       	.word	0x0000;	????	
     356:	12 01       	.word	0x0112;	????	
     358:	29 00       	.word	0x0029;	????	
     35a:	00 00       	.word	0x0000;	????	
     35c:	01 71       	subc	r1,	r1	
     35e:	01 33       	jn	$-508    	;abs 0x162
     360:	00 00       	.word	0x0000;	????	
     362:	00 e8       	xor	r8,	r0	
     364:	c2 0a       	.word	0x0ac2;	????	
     366:	c3 78       	subc.b	r8,	#1	;r3 As==01
     368:	02 00       	.word	0x0002;	????	
     36a:	00 7f       	subc	r15,	r0	
     36c:	03 00       	.word	0x0003;	????	
     36e:	00 13       	reti			
     370:	cf 01       	.word	0x01cf;	????	
     372:	00 00       	.word	0x0000;	????	
     374:	01 71       	subc	r1,	r1	
     376:	31 01       	.word	0x0131;	????	
     378:	00 00       	.word	0x0000;	????	
     37a:	a4 02       	.word	0x02a4;	????	
     37c:	00 00       	.word	0x0000;	????	
     37e:	00 12       	push	r0		
     380:	01 96       	cmp	r6,	r1	
     382:	01 00       	.word	0x0001;	????	
     384:	00 01       	.word	0x0100;	????	
     386:	69 01       	.word	0x0169;	????	
     388:	33 00       	.word	0x0033;	????	
     38a:	00 00       	.word	0x0000;	????	
     38c:	0a c3       	bic	#0,	r10	;r3 As==00
     38e:	38 c3       	bic	#-1,	r8	;r3 As==11
     390:	b8 02       	.word	0x02b8;	????	
     392:	00 00       	.word	0x0000;	????	
     394:	a8 03       	.word	0x03a8;	????	
     396:	00 00       	.word	0x0000;	????	
     398:	13 cf       	.word	0xcf13;	????	Illegal as 2-op instr
     39a:	01 00       	.word	0x0001;	????	
     39c:	00 01       	.word	0x0100;	????	
     39e:	69 31       	jn	$+724    	;abs 0x672
     3a0:	01 00       	.word	0x0001;	????	
     3a2:	00 f4       	and	r4,	r0	
     3a4:	02 00       	.word	0x0002;	????	
     3a6:	00 00       	.word	0x0000;	????	
     3a8:	12 01       	.word	0x0112;	????	
     3aa:	00 00       	.word	0x0000;	????	
     3ac:	00 00       	.word	0x0000;	????	
     3ae:	01 61       	rlc	r1		
     3b0:	01 33       	jn	$-508    	;abs 0x1b4
     3b2:	00 00       	.word	0x0000;	????	
     3b4:	00 38       	jl	$+2      	;abs 0x3b6
     3b6:	c3 5a       	add.b	r10,	#1	;r3 As==01
     3b8:	c3 08       	.word	0x08c3;	????	
     3ba:	03 00       	.word	0x0003;	????	
     3bc:	00 d1       	bis	r1,	r0	
     3be:	03 00       	.word	0x0003;	????	
     3c0:	00 13       	reti			
     3c2:	cf 01       	.word	0x01cf;	????	
     3c4:	00 00       	.word	0x0000;	????	
     3c6:	01 61       	rlc	r1		
     3c8:	31 01       	.word	0x0131;	????	
     3ca:	00 00       	.word	0x0000;	????	
     3cc:	34 03       	.word	0x0334;	????	
     3ce:	00 00       	.word	0x0000;	????	
     3d0:	00 12       	push	r0		
     3d2:	01 3f       	jmp	$-508    	;abs 0x1d6
     3d4:	02 00       	.word	0x0002;	????	
     3d6:	00 01       	.word	0x0100;	????	
     3d8:	59 01       	.word	0x0159;	????	
     3da:	33 00       	.word	0x0033;	????	
     3dc:	00 00       	.word	0x0000;	????	
     3de:	5a c3       	bic.b	#1,	r10	;r3 As==01
     3e0:	7c c3       	bic.b	#-1,	r12	;r3 As==11
     3e2:	48 03       	.word	0x0348;	????	
     3e4:	00 00       	.word	0x0000;	????	
     3e6:	fa 03       	.word	0x03fa;	????	
     3e8:	00 00       	.word	0x0000;	????	
     3ea:	13 cf       	.word	0xcf13;	????	Illegal as 2-op instr
     3ec:	01 00       	.word	0x0001;	????	
     3ee:	00 01       	.word	0x0100;	????	
     3f0:	59 31       	jn	$+692    	;abs 0x6a4
     3f2:	01 00       	.word	0x0001;	????	
     3f4:	00 74       	subc	r4,	r0	
     3f6:	03 00       	.word	0x0003;	????	
     3f8:	00 00       	.word	0x0000;	????	
     3fa:	12 01       	.word	0x0112;	????	
     3fc:	5f 01       	.word	0x015f;	????	
     3fe:	00 00       	.word	0x0000;	????	
     400:	01 51       	rla	r1		
     402:	01 33       	jn	$-508    	;abs 0x206
     404:	00 00       	.word	0x0000;	????	
     406:	00 7c       	subc	r12,	r0	
     408:	c3 9e       	cmp.b	r14,	#1	;r3 As==01
     40a:	c3 88       	sub.b	r8,	#1	;r3 As==01
     40c:	03 00       	.word	0x0003;	????	
     40e:	00 23       	jnz	$-510    	;abs 0x210
     410:	04 00       	.word	0x0004;	????	
     412:	00 13       	reti			
     414:	cf 01       	.word	0x01cf;	????	
     416:	00 00       	.word	0x0000;	????	
     418:	01 51       	rla	r1		
     41a:	31 01       	.word	0x0131;	????	
     41c:	00 00       	.word	0x0000;	????	
     41e:	b4 03       	.word	0x03b4;	????	
     420:	00 00       	.word	0x0000;	????	
     422:	00 15       	.word	0x1500;	????	
     424:	15 02       	.word	0x0215;	????	
     426:	00 00       	.word	0x0000;	????	
     428:	9e c3 ce c3 	bic	#1,	-15410(r14);r3 As==01, 0xc3ce(r14)
     42c:	c8 03       	.word	0x03c8;	????	
     42e:	00 00       	.word	0x0000;	????	
     430:	55 04       	.word	0x0455;	????	
     432:	00 00       	.word	0x0000;	????	
     434:	16 27       	jz	$-466    	;abs 0x262
     436:	02 00       	.word	0x0002;	????	
     438:	00 04       	.word	0x0400;	????	
     43a:	04 00       	.word	0x0004;	????	
     43c:	00 17       	.word	0x1700;	????	
     43e:	15 02       	.word	0x0215;	????	
     440:	00 00       	.word	0x0000;	????	
     442:	b2 c3 ca c3 	bic	#-1,	&0xc3ca	;r3 As==11
     446:	01 45       	mov	r5,	r1	
     448:	18 b2 c3 ca 	bit	&0xcac3,r8	
     44c:	c3 19       	.word	0x19c3;	????	
     44e:	27 02       	.word	0x0227;	????	
     450:	00 00       	.word	0x0000;	????	
     452:	00 00       	.word	0x0000;	????	
     454:	00 15       	.word	0x1500;	????	
     456:	33 02       	.word	0x0233;	????	
     458:	00 00       	.word	0x0000;	????	
     45a:	ce c3 fe c3 	bic.b	#0,	-15362(r14);r3 As==00, 0xc3fe(r14)
     45e:	16 04       	.word	0x0416;	????	
     460:	00 00       	.word	0x0000;	????	
     462:	87 04       	.word	0x0487;	????	
     464:	00 00       	.word	0x0000;	????	
     466:	16 45 02 00 	mov	2(r5),	r6	;0x0002(r5)
     46a:	00 52       	add	r2,	r0	
     46c:	04 00       	.word	0x0004;	????	
     46e:	00 17       	.word	0x1700;	????	
     470:	33 02       	.word	0x0233;	????	
     472:	00 00       	.word	0x0000;	????	
     474:	e2 c3 fa c3 	bic.b	#2,	&0xc3fa	;r3 As==10
     478:	01 39       	jl	$+516    	;abs 0x67c
     47a:	18 e2 c3 fa 	xor	&0xfac3,r8	
     47e:	c3 19       	.word	0x19c3;	????	
     480:	45 02       	.word	0x0245;	????	
     482:	00 00       	.word	0x0000;	????	
     484:	00 00       	.word	0x0000;	????	
     486:	00 15       	.word	0x1500;	????	
     488:	51 02       	.word	0x0251;	????	
     48a:	00 00       	.word	0x0000;	????	
     48c:	fe c3 2e c4 	bic.b	#-1,	-15314(r14);r3 As==11, 0xc42e(r14)
     490:	64 04       	.word	0x0464;	????	
     492:	00 00       	.word	0x0000;	????	
     494:	b9 04       	.word	0x04b9;	????	
     496:	00 00       	.word	0x0000;	????	
     498:	16 63       	addc	#1,	r6	;r3 As==01
     49a:	02 00       	.word	0x0002;	????	
     49c:	00 a0       	dadd	r0,	r0	
     49e:	04 00       	.word	0x0004;	????	
     4a0:	00 17       	.word	0x1700;	????	
     4a2:	51 02       	.word	0x0251;	????	
     4a4:	00 00       	.word	0x0000;	????	
     4a6:	04 c4       	bic	r4,	r4	
     4a8:	1c c4 01 2d 	bic	11521(r4),r12	;0x2d01(r4)
     4ac:	18 04       	.word	0x0418;	????	
     4ae:	c4 1c       	.word	0x1cc4;	????	
     4b0:	c4 19       	.word	0x19c4;	????	
     4b2:	63 02       	.word	0x0263;	????	
     4b4:	00 00       	.word	0x0000;	????	
     4b6:	00 00       	.word	0x0000;	????	
     4b8:	00 1a       	.word	0x1a00;	????	
     4ba:	01 1b       	.word	0x1b01;	????	
     4bc:	00 00       	.word	0x0000;	????	
     4be:	00 02       	.word	0x0200;	????	
     4c0:	ab 01       	.word	0x01ab;	????	
     4c2:	33 00       	.word	0x0033;	????	
     4c4:	00 00       	.word	0x0000;	????	
     4c6:	2e c4       	bic	@r4,	r14	
     4c8:	3a c4       	bic	@r4+,	r10	
     4ca:	02 71       	subc	r1,	r2	
     4cc:	02 e1       	xor	r1,	r2	
     4ce:	04 00       	.word	0x0004;	????	
     4d0:	00 13       	reti			
     4d2:	b0 01       	.word	0x01b0;	????	
     4d4:	00 00       	.word	0x0000;	????	
     4d6:	01 9e       	cmp	r14,	r1	
     4d8:	64 00       	.word	0x0064;	????	
     4da:	00 00       	.word	0x0000;	????	
     4dc:	b2 04       	.word	0x04b2;	????	
     4de:	00 00       	.word	0x0000;	????	
     4e0:	00 1a       	.word	0x1a00;	????	
     4e2:	01 53       	add	#0,	r1	;r3 As==00
     4e4:	00 00       	.word	0x0000;	????	
     4e6:	00 01       	.word	0x0100;	????	
     4e8:	b3 01       	.word	0x01b3;	????	
     4ea:	33 00       	.word	0x0033;	????	
     4ec:	00 00       	.word	0x0000;	????	
     4ee:	3e c0 48 c1 	bic	#-16056,r14	;#0xc148
     4f2:	02 71       	subc	r1,	r2	
     4f4:	00 1a       	.word	0x1a00;	????	
     4f6:	05 00       	.word	0x0005;	????	
     4f8:	00 18       	.word	0x1800;	????	
     4fa:	a6 c0 46 c1 	bic	@r0,	-16058(r6);0xc146(r6)
     4fe:	14 6a 00 01 	addc	256(r10),r4	;0x0100(r10)
     502:	db 33       	jn	$-72     	;abs 0x4ba
     504:	00 00       	.word	0x0000;	????	
     506:	00 c4       	bic	r4,	r0	
     508:	04 00       	.word	0x0004;	????	
     50a:	00 14       	.word	0x1400;	????	
     50c:	63 00       	.word	0x0063;	????	
     50e:	01 df       	bis	r15,	r1	
     510:	6a 00       	.word	0x006a;	????	
     512:	00 00       	.word	0x0000;	????	
     514:	de 04       	.word	0x04de;	????	
     516:	00 00       	.word	0x0000;	????	
     518:	00 00       	.word	0x0000;	????	
     51a:	1b 01       	.word	0x011b;	????	
     51c:	8c 01       	.word	0x018c;	????	
     51e:	00 00       	.word	0x0000;	????	
     520:	01 0c       	.word	0x0c01;	????	
     522:	01 01       	.word	0x0101;	????	
     524:	3a c4       	bic	@r4+,	r10	
     526:	58 c4 f7 04 	bic.b	1271(r4),r8	;0x04f7(r4)
     52a:	00 00       	.word	0x0000;	????	
     52c:	1c d6 00 00 	bis	0(r6),	r12	;0x0000(r6)
     530:	00 04       	.word	0x0400;	????	
     532:	22 01       	.word	0x0122;	????	
     534:	d4 00       	.word	0x00d4;	????	
     536:	00 00       	.word	0x0000;	????	
     538:	3e 05       	.word	0x053e;	????	
     53a:	00 00       	.word	0x0000;	????	
     53c:	01 01       	.word	0x0101;	????	
     53e:	1d 48 00 00 	mov	0(r8),	r13	;0x0000(r8)
     542:	00 1c       	.word	0x1c00;	????	
     544:	2a 02       	.word	0x022a;	????	
     546:	00 00       	.word	0x0000;	????	
     548:	04 24       	jz	$+10     	;abs 0x552
     54a:	01 28       	jnc	$+4      	;abs 0x54e
     54c:	02 00       	.word	0x0002;	????	
     54e:	00 3e       	jmp	$-1022   	;abs 0x150
     550:	05 00       	.word	0x0005;	????	
     552:	00 01       	.word	0x0100;	????	
     554:	01 1c       	.word	0x1c01;	????	
     556:	54 02       	.word	0x0254;	????	
     558:	00 00       	.word	0x0000;	????	
     55a:	04 d6       	bis	r6,	r4	
     55c:	01 52       	add	r2,	r1	
     55e:	02 00       	.word	0x0002;	????	
     560:	00 67       	addc	r7,	r0	
     562:	05 00       	.word	0x0005;	????	
     564:	00 01       	.word	0x0100;	????	
     566:	01 05       	.word	0x0501;	????	
     568:	3e 05       	.word	0x053e;	????	
     56a:	00 00       	.word	0x0000;	????	
     56c:	1c 15       	.word	0x151c;	????	
     56e:	00 00       	.word	0x0000;	????	
     570:	00 04       	.word	0x0400;	????	
     572:	d8 01       	.word	0x01d8;	????	
     574:	13 00       	.word	0x0013;	????	
     576:	00 00       	.word	0x0000;	????	
     578:	3e 05       	.word	0x053e;	????	
     57a:	00 00       	.word	0x0000;	????	
     57c:	01 01       	.word	0x0101;	????	
     57e:	1c 86 00 00 	sub	0(r6),	r12	;0x0000(r6)
     582:	00 04       	.word	0x0400;	????	
     584:	da 01       	.word	0x01da;	????	
     586:	84 00       	.word	0x0084;	????	
     588:	00 00       	.word	0x0000;	????	
     58a:	3e 05       	.word	0x053e;	????	
     58c:	00 00       	.word	0x0000;	????	
     58e:	01 01       	.word	0x0101;	????	
     590:	1c 22       	jnz	$-966    	;abs 0x1ca
     592:	02 00       	.word	0x0002;	????	
     594:	00 04       	.word	0x0400;	????	
     596:	dc 01       	.word	0x01dc;	????	
     598:	20 02       	.word	0x0220;	????	
     59a:	00 00       	.word	0x0000;	????	
     59c:	3e 05       	.word	0x053e;	????	
     59e:	00 00       	.word	0x0000;	????	
     5a0:	01 01       	.word	0x0101;	????	
     5a2:	1c 3d       	jmp	$+570    	;abs 0x7dc
     5a4:	01 00       	.word	0x0001;	????	
     5a6:	00 04       	.word	0x0400;	????	
     5a8:	de 01       	.word	0x01de;	????	
     5aa:	3b 01       	.word	0x013b;	????	
     5ac:	00 00       	.word	0x0000;	????	
     5ae:	3e 05       	.word	0x053e;	????	
     5b0:	00 00       	.word	0x0000;	????	
     5b2:	01 01       	.word	0x0101;	????	
     5b4:	1c 34       	jge	$+58     	;abs 0x5ee
     5b6:	02 00       	.word	0x0002;	????	
     5b8:	00 04       	.word	0x0400;	????	
     5ba:	e0 01       	.word	0x01e0;	????	
     5bc:	32 02       	.word	0x0232;	????	
     5be:	00 00       	.word	0x0000;	????	
     5c0:	3e 05       	.word	0x053e;	????	
     5c2:	00 00       	.word	0x0000;	????	
     5c4:	01 01       	.word	0x0101;	????	
     5c6:	1c 25       	jz	$+570    	;abs 0x800
     5c8:	01 00       	.word	0x0001;	????	
     5ca:	00 04       	.word	0x0400;	????	
     5cc:	e6 01       	.word	0x01e6;	????	
     5ce:	23 01       	.word	0x0123;	????	
     5d0:	00 00       	.word	0x0000;	????	
     5d2:	3e 05       	.word	0x053e;	????	
     5d4:	00 00       	.word	0x0000;	????	
     5d6:	01 01       	.word	0x0101;	????	
     5d8:	1c bb 00 00 	bit	0(r11),	r12	;0x0000(r11)
     5dc:	00 04       	.word	0x0400;	????	
     5de:	eb 01       	.word	0x01eb;	????	
     5e0:	b9 00       	.word	0x00b9;	????	
     5e2:	00 00       	.word	0x0000;	????	
     5e4:	3e 05       	.word	0x053e;	????	
     5e6:	00 00       	.word	0x0000;	????	
     5e8:	01 01       	.word	0x0101;	????	
     5ea:	1c 1d       	.word	0x1d1c;	????	
     5ec:	01 00       	.word	0x0001;	????	
     5ee:	00 04       	.word	0x0400;	????	
     5f0:	ed 01       	.word	0x01ed;	????	
     5f2:	1b 01       	.word	0x011b;	????	
     5f4:	00 00       	.word	0x0000;	????	
     5f6:	3e 05       	.word	0x053e;	????	
     5f8:	00 00       	.word	0x0000;	????	
     5fa:	01 01       	.word	0x0101;	????	
     5fc:	1c df 00 00 	bis	0(r15),	r12	;0x0000(r15)
     600:	00 04       	.word	0x0400;	????	
     602:	86 03       	.word	0x0386;	????	
     604:	dd 00       	.word	0x00dd;	????	
     606:	00 00       	.word	0x0000;	????	
     608:	0e 06       	.word	0x060e;	????	
     60a:	00 00       	.word	0x0000;	????	
     60c:	01 01       	.word	0x0101;	????	
     60e:	1d 25       	jz	$+572    	;abs 0x84a
     610:	00 00       	.word	0x0000;	????	
     612:	00 1c       	.word	0x1c00;	????	
     614:	45 01       	.word	0x0145;	????	
     616:	00 00       	.word	0x0000;	????	
     618:	04 c2       	bic	r2,	r4	
     61a:	03 43       	nop			
     61c:	01 00       	.word	0x0001;	????	
     61e:	00 67       	addc	r7,	r0	
     620:	05 00       	.word	0x0005;	????	
     622:	00 01       	.word	0x0100;	????	
     624:	01 1c       	.word	0x1c01;	????	
     626:	76 02       	.word	0x0276;	????	
     628:	00 00       	.word	0x0000;	????	
     62a:	04 c4       	bic	r4,	r4	
     62c:	03 74       	.word	0x7403;	????	Illegal as 2-op instr
     62e:	02 00       	.word	0x0002;	????	
     630:	00 67       	addc	r7,	r0	
     632:	05 00       	.word	0x0005;	????	
     634:	00 01       	.word	0x0100;	????	
     636:	01 1e       	.word	0x1e01;	????	
     638:	12 02       	.word	0x0212;	????	
     63a:	00 00       	.word	0x0000;	????	
     63c:	03 31       	jn	$+520    	;abs 0x844
     63e:	7c 01       	.word	0x017c;	????	
     640:	00 00       	.word	0x0000;	????	
     642:	01 03       	.word	0x0301;	????	
     644:	03 00       	.word	0x0003;	????	
     646:	02 1f       	.word	0x1f02;	????	
     648:	50 49 44 00 	br	68(r9)		;0x0044(r9)
     64c:	03 7e       	.word	0x7e03;	????	Illegal as 2-op instr
     64e:	0a 02       	.word	0x020a;	????	
     650:	00 00       	.word	0x0000;	????	
     652:	01 03       	.word	0x0301;	????	
     654:	03 ac       	.word	0xac03;	????	Illegal as 2-op instr
     656:	02 08       	.word	0x0802;	????	
     658:	6a 00       	.word	0x006a;	????	
     65a:	00 00       	.word	0x0000;	????	
     65c:	67 06       	.word	0x0667;	????	
     65e:	00 00       	.word	0x0000;	????	
     660:	09 25       	jz	$+532    	;abs 0x874
     662:	00 00       	.word	0x0000;	????	
     664:	00 59       	add	r9,	r0	
     666:	00 1e       	.word	0x1e00;	????	
     668:	b0 01       	.word	0x01b0;	????	
     66a:	00 00       	.word	0x0000;	????	
     66c:	03 7f       	.word	0x7f03;	????	Illegal as 2-op instr
     66e:	57 06       	.word	0x0657;	????	
     670:	00 00       	.word	0x0000;	????	
     672:	01 03       	.word	0x0301;	????	
     674:	03 be       	.word	0xbe03;	????	Illegal as 2-op instr
     676:	02 1e       	.word	0x1e02;	????	
     678:	9b 00       	.word	0x009b;	????	
     67a:	00 00       	.word	0x0000;	????	
     67c:	03 80       	.word	0x8003;	????	Illegal as 2-op instr
     67e:	33 00       	.word	0x0033;	????	
     680:	00 00       	.word	0x0000;	????	
     682:	01 03       	.word	0x0301;	????	
     684:	03 aa       	.word	0xaa03;	????	Illegal as 2-op instr
     686:	02 1f       	.word	0x1f02;	????	
     688:	63 6d       	.word	0x6d63;	????	Illegal as 2-op instr
     68a:	64 00       	.word	0x0064;	????	
     68c:	01 0e       	.word	0x0e01;	????	
     68e:	57 06       	.word	0x0657;	????	
     690:	00 00       	.word	0x0000;	????	
     692:	01 03       	.word	0x0301;	????	
     694:	03 50       	.word	0x5003;	????	Illegal as 2-op instr
     696:	02 00       	.word	0x0002;	????	
     698:	3b 03       	.word	0x033b;	????	
     69a:	00 00       	.word	0x0000;	????	
     69c:	02 00       	.word	0x0002;	????	
     69e:	a9 01       	.word	0x01a9;	????	
     6a0:	00 00       	.word	0x0000;	????	
     6a2:	02 01       	.word	0x0102;	????	
     6a4:	e6 00       	.word	0x00e6;	????	
     6a6:	00 00       	.word	0x0000;	????	
     6a8:	01 a3       	dadc	r1		
     6aa:	00 00       	.word	0x0000;	????	
     6ac:	00 f0       	and	r0,	r0	
     6ae:	02 00       	.word	0x0002;	????	
     6b0:	00 58       	add	r8,	r0	
     6b2:	c4 1a       	.word	0x1ac4;	????	
     6b4:	c6 a9 01 00 	dadd.b	r9,	1(r6)	;0x0001(r6)
     6b8:	00 02       	.word	0x0200;	????	
     6ba:	10 02       	.word	0x0210;	????	
     6bc:	3d 38       	jl	$+124    	;abs 0x738
     6be:	00 00       	.word	0x0000;	????	
     6c0:	00 03       	.word	0x0300;	????	
     6c2:	76 61       	addc.b	@r1+,	r6	
     6c4:	6c 00       	.word	0x006c;	????	
     6c6:	02 41       	mov	r1,	r2	
     6c8:	38 00       	.word	0x0038;	????	
     6ca:	00 00       	.word	0x0000;	????	
     6cc:	02 23       	jnz	$-506    	;abs 0x4d2
     6ce:	00 00       	.word	0x0000;	????	
     6d0:	04 4f       	mov	r15,	r4	
     6d2:	00 00       	.word	0x0000;	????	
     6d4:	00 48       	br	r8		
     6d6:	00 00       	.word	0x0000;	????	
     6d8:	00 05       	.word	0x0500;	????	
     6da:	48 00       	.word	0x0048;	????	
     6dc:	00 00       	.word	0x0000;	????	
     6de:	0e 00       	.word	0x000e;	????	
     6e0:	06 02       	.word	0x0206;	????	
     6e2:	07 7f       	subc	r15,	r7	
     6e4:	01 00       	.word	0x0001;	????	
     6e6:	00 06       	.word	0x0600;	????	
     6e8:	01 06       	.word	0x0601;	????	
     6ea:	5a 01       	.word	0x015a;	????	
     6ec:	00 00       	.word	0x0000;	????	
     6ee:	07 ab       	dadd	r11,	r7	
     6f0:	00 00       	.word	0x0000;	????	
     6f2:	00 02       	.word	0x0200;	????	
     6f4:	42 21       	jnz	$+646    	;abs 0x97a
     6f6:	00 00       	.word	0x0000;	????	
     6f8:	00 02       	.word	0x0200;	????	
     6fa:	52 02       	.word	0x0252;	????	
     6fc:	47 86       	sub.b	r6,	r7	
     6fe:	00 00       	.word	0x0000;	????	
     700:	00 08       	.word	0x0800;	????	
     702:	39 02       	.word	0x0239;	????	
     704:	00 00       	.word	0x0000;	????	
     706:	02 4b       	mov	r11,	r2	
     708:	86 00       	.word	0x0086;	????	
     70a:	00 00       	.word	0x0000;	????	
     70c:	02 23       	jnz	$-506    	;abs 0x512
     70e:	00 08       	.word	0x0800;	????	
     710:	cf 01       	.word	0x01cf;	????	
     712:	00 00       	.word	0x0000;	????	
     714:	02 50       	add	r0,	r2	
     716:	8d 00       	.word	0x008d;	????	
     718:	00 00       	.word	0x0000;	????	
     71a:	02 23       	jnz	$-506    	;abs 0x520
     71c:	02 00       	.word	0x0002;	????	
     71e:	06 01       	.word	0x0106;	????	
     720:	08 51       	add	r1,	r8	
     722:	01 00       	.word	0x0001;	????	
     724:	00 04       	.word	0x0400;	????	
     726:	56 00       	.word	0x0056;	????	
     728:	00 00       	.word	0x0000;	????	
     72a:	9d 00       	.word	0x009d;	????	
     72c:	00 00       	.word	0x0000;	????	
     72e:	05 48       	mov	r8,	r5	
     730:	00 00       	.word	0x0000;	????	
     732:	00 04       	.word	0x0400;	????	
     734:	00 07       	.word	0x0700;	????	
     736:	c5 01       	.word	0x01c5;	????	
     738:	00 00       	.word	0x0000;	????	
     73a:	02 51       	add	r1,	r2	
     73c:	61 00       	.word	0x0061;	????	
     73e:	00 00       	.word	0x0000;	????	
     740:	02 06       	.word	0x0602;	????	
     742:	02 56       	add	r6,	r2	
     744:	db 00       	.word	0x00db;	????	
     746:	00 00       	.word	0x0000;	????	
     748:	03 63       	adc	#0		;r3 As==00
     74a:	6d 64       	addc.b	@r4,	r13	
     74c:	00 02       	.word	0x0200;	????	
     74e:	5a db 00 00 	bis.b	0(r11),	r10	;0x0000(r11)
     752:	00 02       	.word	0x0200;	????	
     754:	23 00       	.word	0x0023;	????	
     756:	08 b9       	bit	r9,	r8	
     758:	01 00       	.word	0x0001;	????	
     75a:	00 02       	.word	0x0200;	????	
     75c:	5f db 00 00 	bis.b	0(r11),	r15	;0x0000(r11)
     760:	00 02       	.word	0x0200;	????	
     762:	23 02       	.word	0x0223;	????	
     764:	08 c1       	bic	r1,	r8	
     766:	00 00       	.word	0x0000;	????	
     768:	00 02       	.word	0x0200;	????	
     76a:	64 03       	.word	0x0364;	????	
     76c:	01 00       	.word	0x0001;	????	
     76e:	00 02       	.word	0x0200;	????	
     770:	23 04       	.word	0x0423;	????	
     772:	00 09       	.word	0x0900;	????	
     774:	02 e1       	xor	r1,	r2	
     776:	00 00       	.word	0x0000;	????	
     778:	00 0a       	.word	0x0a00;	????	
     77a:	4f 00       	.word	0x004f;	????	
     77c:	00 00       	.word	0x0000;	????	
     77e:	0b 01       	.word	0x010b;	????	
     780:	f6 00       	.word	0x00f6;	????	
     782:	00 00       	.word	0x0000;	????	
     784:	f6 00       	.word	0x00f6;	????	
     786:	00 00       	.word	0x0000;	????	
     788:	0c fd       	and	r13,	r12	
     78a:	00 00       	.word	0x0000;	????	
     78c:	00 00       	.word	0x0000;	????	
     78e:	0d 02       	.word	0x020d;	????	
     790:	05 69       	addc	r9,	r5	
     792:	6e 74       	subc.b	@r4,	r14	
     794:	00 09       	.word	0x0900;	????	
     796:	02 9d       	cmp	r13,	r2	
     798:	00 00       	.word	0x0000;	????	
     79a:	00 09       	.word	0x0900;	????	
     79c:	02 e6       	xor	r6,	r2	
     79e:	00 00       	.word	0x0000;	????	
     7a0:	00 07       	.word	0x0700;	????	
     7a2:	3b 00       	.word	0x003b;	????	
     7a4:	00 00       	.word	0x0000;	????	
     7a6:	02 65       	addc	r5,	r2	
     7a8:	a8 00       	.word	0x00a8;	????	
     7aa:	00 00       	.word	0x0000;	????	
     7ac:	02 02       	.word	0x0202;	????	
     7ae:	02 6a       	addc	r10,	r2	
     7b0:	39 01       	.word	0x0139;	????	
     7b2:	00 00       	.word	0x0000;	????	
     7b4:	08 39       	jl	$+530    	;abs 0x9c6
     7b6:	02 00       	.word	0x0002;	????	
     7b8:	00 02       	.word	0x0200;	????	
     7ba:	6e 86       	sub.b	@r6,	r14	
     7bc:	00 00       	.word	0x0000;	????	
     7be:	00 02       	.word	0x0200;	????	
     7c0:	23 00       	.word	0x0023;	????	
     7c2:	08 1b       	.word	0x1b08;	????	
     7c4:	02 00       	.word	0x0002;	????	
     7c6:	00 02       	.word	0x0200;	????	
     7c8:	73 39       	jl	$+744    	;abs 0xab0
     7ca:	01 00       	.word	0x0001;	????	
     7cc:	00 02       	.word	0x0200;	????	
     7ce:	23 02       	.word	0x0223;	????	
     7d0:	00 04       	.word	0x0400;	????	
     7d2:	09 01       	.word	0x0109;	????	
     7d4:	00 00       	.word	0x0000;	????	
     7d6:	48 01       	.word	0x0148;	????	
     7d8:	00 00       	.word	0x0000;	????	
     7da:	0e 48       	mov	r8,	r14	
     7dc:	00 00       	.word	0x0000;	????	
     7de:	00 00       	.word	0x0000;	????	
     7e0:	07 15       	.word	0x1507;	????	
     7e2:	02 00       	.word	0x0002;	????	
     7e4:	00 02       	.word	0x0200;	????	
     7e6:	74 14       	.word	0x1474;	????	
     7e8:	01 00       	.word	0x0001;	????	
     7ea:	00 0f       	.word	0x0f00;	????	
     7ec:	01 d8       	bis	r8,	r1	
     7ee:	02 00       	.word	0x0002;	????	
     7f0:	00 01       	.word	0x0100;	????	
     7f2:	16 01       	.word	0x0116;	????	
     7f4:	f6 00       	.word	0x00f6;	????	
     7f6:	00 00       	.word	0x0000;	????	
     7f8:	58 c4 70 c4 	bic.b	-15248(r4),r8	;0xc470(r4)
     7fc:	02 71       	subc	r1,	r2	
     7fe:	02 88       	sub	r8,	r2	
     800:	01 00       	.word	0x0001;	????	
     802:	00 10       	rrc	r0		
     804:	73 74       	.word	0x7473;	????	Illegal as 2-op instr
     806:	72 00       	.word	0x0072;	????	
     808:	01 16       	.word	0x1601;	????	
     80a:	88 01       	.word	0x0188;	????	
     80c:	00 00       	.word	0x0000;	????	
     80e:	0b 05       	.word	0x050b;	????	
     810:	00 00       	.word	0x0000;	????	
     812:	11 69 00 01 	addc	256(r9),r1	;0x0100(r9)
     816:	18 f6 00 00 	and	0(r6),	r8	;0x0000(r6)
     81a:	00 1d       	.word	0x1d00;	????	
     81c:	05 00       	.word	0x0005;	????	
     81e:	00 00       	.word	0x0000;	????	
     820:	09 02       	.word	0x0209;	????	
     822:	4f 00       	.word	0x004f;	????	
     824:	00 00       	.word	0x0000;	????	
     826:	12 01       	.word	0x0112;	????	
     828:	b3 02       	.word	0x02b3;	????	
     82a:	00 00       	.word	0x0000;	????	
     82c:	01 1f       	.word	0x1f01;	????	
     82e:	01 f6       	and	r6,	r1	
     830:	00 00       	.word	0x0000;	????	
     832:	00 70       	subc	r0,	r0	
     834:	c4 b4 c4 3e 	bit.b	r4,	16068(r4);0x3ec4(r4)
     838:	05 00       	.word	0x0005;	????	
     83a:	00 eb       	xor	r11,	r0	
     83c:	01 00       	.word	0x0001;	????	
     83e:	00 13       	reti			
     840:	2c 03       	.word	0x032c;	????	
     842:	00 00       	.word	0x0000;	????	
     844:	01 1f       	.word	0x1f01;	????	
     846:	88 01       	.word	0x0188;	????	
     848:	00 00       	.word	0x0000;	????	
     84a:	62 05       	.word	0x0562;	????	
     84c:	00 00       	.word	0x0000;	????	
     84e:	14 ce 02 00 	bic	2(r14),	r4	;0x0002(r14)
     852:	00 01       	.word	0x0100;	????	
     854:	1f 88 01 00 	sub	1(r8),	r15	;0x0001(r8)
     858:	00 01       	.word	0x0100;	????	
     85a:	5e 14       	.word	0x145e;	????	
     85c:	e6 02       	.word	0x02e6;	????	
     85e:	00 00       	.word	0x0000;	????	
     860:	01 1f       	.word	0x1f01;	????	
     862:	f6 00       	.word	0x00f6;	????	
     864:	00 00       	.word	0x0000;	????	
     866:	01 5d       	add	r13,	r1	
     868:	14 eb 02 00 	xor	2(r11),	r4	;0x0002(r11)
     86c:	00 01       	.word	0x0100;	????	
     86e:	1f f6 00 00 	and	0(r6),	r15	;0x0000(r6)
     872:	00 01       	.word	0x0100;	????	
     874:	5c 11 69 00 	rra.b	105(r12)	;0x0069(r12)
     878:	01 21       	jnz	$+516    	;abs 0xa7c
     87a:	f6 00       	.word	0x00f6;	????	
     87c:	00 00       	.word	0x0000;	????	
     87e:	7b 05       	.word	0x057b;	????	
     880:	00 00       	.word	0x0000;	????	
     882:	00 0f       	.word	0x0f00;	????	
     884:	01 1c       	.word	0x1c01;	????	
     886:	03 00       	.word	0x0003;	????	
     888:	00 01       	.word	0x0100;	????	
     88a:	32 01       	.word	0x0132;	????	
     88c:	f6 00       	.word	0x00f6;	????	
     88e:	00 00       	.word	0x0000;	????	
     890:	b4 c4 e4 c4 	bic	@r4+,	-15132(r4);0xc4e4(r4)
     894:	02 71       	subc	r1,	r2	
     896:	02 3c       	jmp	$+6      	;abs 0x89c
     898:	02 00       	.word	0x0002;	????	
     89a:	00 10       	rrc	r0		
     89c:	73 74       	.word	0x7473;	????	Illegal as 2-op instr
     89e:	72 00       	.word	0x0072;	????	
     8a0:	01 32       	jn	$-1020   	;abs 0x4a4
     8a2:	88 01       	.word	0x0188;	????	
     8a4:	00 00       	.word	0x0000;	????	
     8a6:	86 05       	.word	0x0586;	????	
     8a8:	00 00       	.word	0x0000;	????	
     8aa:	11 76 61 6c 	subc	27745(r6),r1	;0x6c61(r6)
     8ae:	00 01       	.word	0x0100;	????	
     8b0:	35 f6       	and	@r6+,	r5	
     8b2:	00 00       	.word	0x0000;	????	
     8b4:	00 91       	cmp	r1,	r0	
     8b6:	05 00       	.word	0x0005;	????	
     8b8:	00 11       	rra	r0		
     8ba:	69 00       	.word	0x0069;	????	
     8bc:	01 36       	jge	$-1020   	;abs 0x4c0
     8be:	f6 00       	.word	0x00f6;	????	
     8c0:	00 00       	.word	0x0000;	????	
     8c2:	ab 05       	.word	0x05ab;	????	
     8c4:	00 00       	.word	0x0000;	????	
     8c6:	11 63       	addc	#1,	r1	;r3 As==01
     8c8:	00 01       	.word	0x0100;	????	
     8ca:	38 4f       	mov	@r15+,	r8	
     8cc:	00 00       	.word	0x0000;	????	
     8ce:	00 b7       	bit	r7,	r0	
     8d0:	05 00       	.word	0x0005;	????	
     8d2:	00 00       	.word	0x0000;	????	
     8d4:	12 01       	.word	0x0112;	????	
     8d6:	95 02       	.word	0x0295;	????	
     8d8:	00 00       	.word	0x0000;	????	
     8da:	01 44       	mov	r4,	r1	
     8dc:	01 f6       	and	r6,	r1	
     8de:	00 00       	.word	0x0000;	????	
     8e0:	00 e4       	xor	r4,	r0	
     8e2:	c4 8a c5 d1 	sub.b	r10,	-11835(r4);0xd1c5(r4)
     8e6:	05 00       	.word	0x0005;	????	
     8e8:	00 b7       	bit	r7,	r0	
     8ea:	02 00       	.word	0x0002;	????	
     8ec:	00 13       	reti			
     8ee:	b0 01       	.word	0x01b0;	????	
     8f0:	00 00       	.word	0x0000;	????	
     8f2:	01 44       	mov	r4,	r1	
     8f4:	88 01       	.word	0x0188;	????	
     8f6:	00 00       	.word	0x0000;	????	
     8f8:	15 06       	.word	0x0615;	????	
     8fa:	00 00       	.word	0x0000;	????	
     8fc:	15 6c 65 6e 	addc	28261(r12),r5	;0x6e65(r12)
     900:	00 01       	.word	0x0100;	????	
     902:	44 f6       	and.b	r6,	r4	
     904:	00 00       	.word	0x0000;	????	
     906:	00 01       	.word	0x0100;	????	
     908:	5e 14       	.word	0x145e;	????	
     90a:	cf 01       	.word	0x01cf;	????	
     90c:	00 00       	.word	0x0000;	????	
     90e:	01 44       	mov	r4,	r1	
     910:	fd 00       	.word	0x00fd;	????	
     912:	00 00       	.word	0x0000;	????	
     914:	01 5d       	add	r13,	r1	
     916:	11 69 00 01 	addc	256(r9),r1	;0x0100(r9)
     91a:	46 f6       	and.b	r6,	r6	
     91c:	00 00       	.word	0x0000;	????	
     91e:	00 2e       	jc	$-1022   	;abs 0x520
     920:	06 00       	.word	0x0006;	????	
     922:	00 11       	rra	r0		
     924:	6a 00       	.word	0x006a;	????	
     926:	01 47       	mov	r7,	r1	
     928:	f6 00       	.word	0x00f6;	????	
     92a:	00 00       	.word	0x0000;	????	
     92c:	41 06       	.word	0x0641;	????	
     92e:	00 00       	.word	0x0000;	????	
     930:	16 c1 02 00 	bic	2(r1),	r6	;0x0002(r1)
     934:	00 01       	.word	0x0100;	????	
     936:	48 f6       	and.b	r6,	r8	
     938:	00 00       	.word	0x0000;	????	
     93a:	00 4c       	br	r12		
     93c:	06 00       	.word	0x0006;	????	
     93e:	00 16       	.word	0x1600;	????	
     940:	d3 02       	.word	0x02d3;	????	
     942:	00 00       	.word	0x0000;	????	
     944:	01 49       	mov	r9,	r1	
     946:	f6 00       	.word	0x00f6;	????	
     948:	00 00       	.word	0x0000;	????	
     94a:	66 06       	.word	0x0666;	????	
     94c:	00 00       	.word	0x0000;	????	
     94e:	00 12       	push	r0		
     950:	01 82       	sub	r2,	r1	
     952:	02 00       	.word	0x0002;	????	
     954:	00 01       	.word	0x0100;	????	
     956:	68 01       	.word	0x0168;	????	
     958:	f6 00       	.word	0x00f6;	????	
     95a:	00 00       	.word	0x0000;	????	
     95c:	8a c5 1a c6 	bic	r5,	-14822(r10);0xc61a(r10)
     960:	79 06       	.word	0x0679;	????	
     962:	00 00       	.word	0x0000;	????	
     964:	38 03       	.word	0x0338;	????	
     966:	00 00       	.word	0x0000;	????	
     968:	13 1b       	.word	0x1b13;	????	
     96a:	02 00       	.word	0x0002;	????	
     96c:	00 01       	.word	0x0100;	????	
     96e:	68 38       	jl	$+210    	;abs 0xa40
     970:	03 00       	.word	0x0003;	????	
     972:	00 be       	bit	r14,	r0	
     974:	06 00       	.word	0x0006;	????	
     976:	00 13       	reti			
     978:	b0 01       	.word	0x01b0;	????	
     97a:	00 00       	.word	0x0000;	????	
     97c:	01 68       	addc	r8,	r1	
     97e:	88 01       	.word	0x0188;	????	
     980:	00 00       	.word	0x0000;	????	
     982:	d0 06       	.word	0x06d0;	????	
     984:	00 00       	.word	0x0000;	????	
     986:	11 69 00 01 	addc	256(r9),r1	;0x0100(r9)
     98a:	6a f6       	and.b	@r6,	r10	
     98c:	00 00       	.word	0x0000;	????	
     98e:	00 e2       	xor	r2,	r0	
     990:	06 00       	.word	0x0006;	????	
     992:	00 11       	rra	r0		
     994:	72 65       	addc.b	@r5+,	r2	
     996:	74 00       	.word	0x0074;	????	
     998:	01 6b       	addc	r11,	r1	
     99a:	f6 00       	.word	0x00f6;	????	
     99c:	00 00       	.word	0x0000;	????	
     99e:	f5 06       	.word	0x06f5;	????	
     9a0:	00 00       	.word	0x0000;	????	
     9a2:	16 c6 02 00 	bic	2(r6),	r6	;0x0002(r6)
     9a6:	00 01       	.word	0x0100;	????	
     9a8:	6c f6       	and.b	@r6,	r12	
     9aa:	00 00       	.word	0x0000;	????	
     9ac:	00 0e       	.word	0x0e00;	????	
     9ae:	07 00       	.word	0x0007;	????	
     9b0:	00 16       	.word	0x1600;	????	
     9b2:	a6 02       	.word	0x02a6;	????	
     9b4:	00 00       	.word	0x0000;	????	
     9b6:	01 6d       	addc	r13,	r1	
     9b8:	f6 00       	.word	0x00f6;	????	
     9ba:	00 00       	.word	0x0000;	????	
     9bc:	20 07       	.word	0x0720;	????	
     9be:	00 00       	.word	0x0000;	????	
     9c0:	17 cf 01 00 	bic	1(r15),	r7	;0x0001(r15)
     9c4:	00 01       	.word	0x0100;	????	
     9c6:	6f 9d       	cmp.b	@r13,	r15	
     9c8:	00 00       	.word	0x0000;	????	
     9ca:	00 03       	.word	0x0300;	????	
     9cc:	91 a0 7f 00 	dadd	127(r0),521(r1)	;PC rel. 0x0a4d, 0x0209(r1)
     9d0:	09 02 
     9d2:	48 01       	.word	0x0148;	????	
     9d4:	00 00       	.word	0x0000;	????	
     9d6:	00 50       	rla	r0		
     9d8:	02 00       	.word	0x0002;	????	
     9da:	00 02       	.word	0x0200;	????	
     9dc:	00 e1       	xor	r1,	r0	
     9de:	02 00       	.word	0x0002;	????	
     9e0:	00 02       	.word	0x0200;	????	
     9e2:	01 e6       	xor	r6,	r1	
     9e4:	00 00       	.word	0x0000;	????	
     9e6:	00 01       	.word	0x0100;	????	
     9e8:	84 03       	.word	0x0384;	????	
     9ea:	00 00       	.word	0x0000;	????	
     9ec:	ac 03       	.word	0x03ac;	????	
     9ee:	00 00       	.word	0x0000;	????	
     9f0:	1a c6 84 c8 	bic	-14204(r6),r10	;0xc884(r6)
     9f4:	ab 02       	.word	0x02ab;	????	
     9f6:	00 00       	.word	0x0000;	????	
     9f8:	02 9d       	cmp	r13,	r2	
     9fa:	03 00       	.word	0x0003;	????	
     9fc:	00 02       	.word	0x0200;	????	
     9fe:	28 2c       	jc	$+82     	;abs 0xa50
     a00:	00 00       	.word	0x0000;	????	
     a02:	00 03       	.word	0x0300;	????	
     a04:	02 4e       	mov	r14,	r2	
     a06:	03 00       	.word	0x0003;	????	
     a08:	00 02       	.word	0x0200;	????	
     a0a:	a4 03       	.word	0x03a4;	????	
     a0c:	00 00       	.word	0x0000;	????	
     a0e:	02 66       	addc	r6,	r2	
     a10:	21 00       	.word	0x0021;	????	
     a12:	00 00       	.word	0x0000;	????	
     a14:	04 6b       	addc	r11,	r4	
     a16:	03 00       	.word	0x0003;	????	
     a18:	00 01       	.word	0x0100;	????	
     a1a:	59 01       	.word	0x0159;	????	
     a1c:	1a c6 84 c6 	bic	-14716(r6),r10	;0xc684(r6)
     a20:	39 07       	.word	0x0739;	????	
     a22:	00 00       	.word	0x0000;	????	
     a24:	87 00       	.word	0x0087;	????	
     a26:	00 00       	.word	0x0000;	????	
     a28:	05 78       	subc	r8,	r5	
     a2a:	00 01       	.word	0x0100;	????	
     a2c:	59 87 00 00 	sub.b	0(r7),	r9	;0x0000(r7)
     a30:	00 6d       	addc	r13,	r0	
     a32:	07 00       	.word	0x0007;	????	
     a34:	00 05       	.word	0x0500;	????	
     a36:	64 70       	subc.b	@r0,	r4	
     a38:	00 01       	.word	0x0100;	????	
     a3a:	59 8e 00 00 	sub.b	0(r14),	r9	;0x0000(r14)
     a3e:	00 89       	sub	r9,	r0	
     a40:	07 00       	.word	0x0007;	????	
     a42:	00 06       	.word	0x0600;	????	
     a44:	63 00       	.word	0x0063;	????	
     a46:	01 5b       	add	r11,	r1	
     a48:	99 00       	.word	0x0099;	????	
     a4a:	00 00       	.word	0x0000;	????	
     a4c:	9b 07       	.word	0x079b;	????	
     a4e:	00 00       	.word	0x0000;	????	
     a50:	06 64       	addc	r4,	r6	
     a52:	00 01       	.word	0x0100;	????	
     a54:	5c 87 00 00 	sub.b	0(r7),	r12	;0x0000(r7)
     a58:	00 af       	dadd	r15,	r0	
     a5a:	07 00       	.word	0x0007;	????	
     a5c:	00 00       	.word	0x0000;	????	
     a5e:	07 04       	.word	0x0407;	????	
     a60:	07 7a       	subc	r10,	r7	
     a62:	01 00       	.word	0x0001;	????	
     a64:	00 08       	.word	0x0800;	????	
     a66:	02 94       	cmp	r4,	r2	
     a68:	00 00       	.word	0x0000;	????	
     a6a:	00 09       	.word	0x0900;	????	
     a6c:	87 00       	.word	0x0087;	????	
     a6e:	00 00       	.word	0x0000;	????	
     a70:	07 01       	.word	0x0107;	????	
     a72:	06 5a       	add	r10,	r6	
     a74:	01 00       	.word	0x0001;	????	
     a76:	00 0a       	.word	0x0a00;	????	
     a78:	7e 03       	.word	0x037e;	????	
     a7a:	00 00       	.word	0x0000;	????	
     a7c:	01 53       	add	#0,	r1	;r3 As==00
     a7e:	01 84       	sub	r4,	r1	
     a80:	c6 92 c6 02 	cmp.b	r2,	710(r6)	;0x02c6(r6)
     a84:	71 02       	.word	0x0271;	????	
     a86:	d0 00       	.word	0x00d0;	????	
     a88:	00 00       	.word	0x0000;	????	
     a8a:	05 6e       	addc	r14,	r5	
     a8c:	00 01       	.word	0x0100;	????	
     a8e:	53 d0       	.word	0xd053;	????	Illegal as 2-op instr
     a90:	00 00       	.word	0x0000;	????	
     a92:	00 c7       	bic	r7,	r0	
     a94:	07 00       	.word	0x0007;	????	
     a96:	00 0b       	.word	0x0b00;	????	
     a98:	68 65       	addc.b	@r5,	r8	
     a9a:	78 00       	.word	0x0078;	????	
     a9c:	01 55       	add	r5,	r1	
     a9e:	e7 00       	.word	0x00e7;	????	
     aa0:	00 00       	.word	0x0000;	????	
     aa2:	03 03       	.word	0x0303;	????	
     aa4:	7c d0 00 07 	bis.b	#1792,	r12	;#0x0700
     aa8:	02 07       	.word	0x0702;	????	
     aaa:	7f 01       	.word	0x017f;	????	
     aac:	00 00       	.word	0x0000;	????	
     aae:	0c 99       	cmp	r9,	r12	
     ab0:	00 00       	.word	0x0000;	????	
     ab2:	00 e7       	xor	r7,	r0	
     ab4:	00 00       	.word	0x0000;	????	
     ab6:	00 0d       	.word	0x0d00;	????	
     ab8:	d0 00       	.word	0x00d0;	????	
     aba:	00 00       	.word	0x0000;	????	
     abc:	0f 00       	.word	0x000f;	????	
     abe:	09 d7       	bis	r7,	r9	
     ac0:	00 00       	.word	0x0000;	????	
     ac2:	00 0e       	.word	0x0e00;	????	
     ac4:	01 93       	tst	r1		
     ac6:	03 00       	.word	0x0003;	????	
     ac8:	00 01       	.word	0x0100;	????	
     aca:	18 01       	.word	0x0118;	????	
     acc:	92 c6 a6 c6 	bic	-14682(r6),&0x07d2	;0xc6a6(r6)
     ad0:	d2 07 
     ad2:	00 00       	.word	0x0000;	????	
     ad4:	1e 01       	.word	0x011e;	????	
     ad6:	00 00       	.word	0x0000;	????	
     ad8:	0f b4       	bit	r4,	r15	
     ada:	01 00       	.word	0x0001;	????	
     adc:	00 01       	.word	0x0100;	????	
     ade:	18 1e       	.word	0x1e18;	????	
     ae0:	01 00       	.word	0x0001;	????	
     ae2:	00 e6       	xor	r6,	r0	
     ae4:	07 00       	.word	0x0007;	????	
     ae6:	00 06       	.word	0x0600;	????	
     ae8:	69 00       	.word	0x0069;	????	
     aea:	01 1a       	.word	0x1a01;	????	
     aec:	24 01       	.word	0x0124;	????	
     aee:	00 00       	.word	0x0000;	????	
     af0:	f1 07       	.word	0x07f1;	????	
     af2:	00 00       	.word	0x0000;	????	
     af4:	00 08       	.word	0x0800;	????	
     af6:	02 99       	cmp	r9,	r2	
     af8:	00 00       	.word	0x0000;	????	
     afa:	00 10       	rrc	r0		
     afc:	02 05       	.word	0x0502;	????	
     afe:	69 6e       	addc.b	@r14,	r9	
     b00:	74 00       	.word	0x0074;	????	
     b02:	0e 01       	.word	0x010e;	????	
     b04:	60 03       	.word	0x0360;	????	
     b06:	00 00       	.word	0x0000;	????	
     b08:	01 21       	jnz	$+516    	;abs 0xd0c
     b0a:	01 a6       	dadd	r6,	r1	
     b0c:	c6 20       	jnz	$+398    	;abs 0xc9a
     b0e:	c7 fd 07 00 	and.b	r13,	7(r7)	;0x0007(r7)
     b12:	00 76       	subc	r6,	r0	
     b14:	01 00       	.word	0x0001;	????	
     b16:	00 05       	.word	0x0500;	????	
     b18:	6e 00       	.word	0x006e;	????	
     b1a:	01 21       	jnz	$+516    	;abs 0xd1e
     b1c:	24 01       	.word	0x0124;	????	
     b1e:	00 00       	.word	0x0000;	????	
     b20:	29 08       	.word	0x0829;	????	
     b22:	00 00       	.word	0x0000;	????	
     b24:	11 3c       	jmp	$+36     	;abs 0xb48
     b26:	03 00       	.word	0x0003;	????	
     b28:	00 01       	.word	0x0100;	????	
     b2a:	23 76       	.word	0x7623;	????	Illegal as 2-op instr
     b2c:	01 00       	.word	0x0001;	????	
     b2e:	00 02       	.word	0x0200;	????	
     b30:	91 58 06 69 	add	26886(r8),256(r1)	;0x6906(r8), 0x0100(r1)
     b34:	00 01 
     b36:	24 24       	jz	$+74     	;abs 0xb80
     b38:	01 00       	.word	0x0001;	????	
     b3a:	00 50       	rla	r0		
     b3c:	08 00       	.word	0x0008;	????	
     b3e:	00 06       	.word	0x0600;	????	
     b40:	6a 00       	.word	0x006a;	????	
     b42:	01 25       	jz	$+516    	;abs 0xd46
     b44:	24 01       	.word	0x0124;	????	
     b46:	00 00       	.word	0x0000;	????	
     b48:	5b 08       	.word	0x085b;	????	
     b4a:	00 00       	.word	0x0000;	????	
     b4c:	00 0c       	.word	0x0c00;	????	
     b4e:	24 01       	.word	0x0124;	????	
     b50:	00 00       	.word	0x0000;	????	
     b52:	86 01       	.word	0x0186;	????	
     b54:	00 00       	.word	0x0000;	????	
     b56:	0d d0       	bis	r0,	r13	
     b58:	00 00       	.word	0x0000;	????	
     b5a:	00 0f       	.word	0x0f00;	????	
     b5c:	00 0e       	.word	0x0e00;	????	
     b5e:	01 31       	jn	$+516    	;abs 0xd62
     b60:	03 00       	.word	0x0003;	????	
     b62:	00 01       	.word	0x0100;	????	
     b64:	36 01       	.word	0x0136;	????	
     b66:	20 c7       	bic	@r7,	r0	
     b68:	5a c7 68 08 	bic.b	2152(r7),r10	;0x0868(r7)
     b6c:	00 00       	.word	0x0000;	????	
     b6e:	c5 01       	.word	0x01c5;	????	
     b70:	00 00       	.word	0x0000;	????	
     b72:	05 6e       	addc	r14,	r5	
     b74:	00 01       	.word	0x0100;	????	
     b76:	36 24       	jz	$+110    	;abs 0xbe4
     b78:	01 00       	.word	0x0001;	????	
     b7a:	00 84       	sub	r4,	r0	
     b7c:	08 00       	.word	0x0008;	????	
     b7e:	00 0f       	.word	0x0f00;	????	
     b80:	79 03       	.word	0x0379;	????	
     b82:	00 00       	.word	0x0000;	????	
     b84:	01 36       	jge	$-1020   	;abs 0x788
     b86:	24 01       	.word	0x0124;	????	
     b88:	00 00       	.word	0x0000;	????	
     b8a:	96 08       	.word	0x0896;	????	
     b8c:	00 00       	.word	0x0000;	????	
     b8e:	06 69       	addc	r9,	r6	
     b90:	00 01       	.word	0x0100;	????	
     b92:	38 24       	jz	$+114    	;abs 0xc04
     b94:	01 00       	.word	0x0001;	????	
     b96:	00 a1       	dadd	r1,	r0	
     b98:	08 00       	.word	0x0008;	????	
     b9a:	00 00       	.word	0x0000;	????	
     b9c:	0e 01       	.word	0x010e;	????	
     b9e:	43 03       	.word	0x0343;	????	
     ba0:	00 00       	.word	0x0000;	????	
     ba2:	01 6a       	addc	r10,	r1	
     ba4:	01 5a       	add	r10,	r1	
     ba6:	c7 84 c8 b3 	sub.b	r4,	-19512(r7);0xb3c8(r7)
     baa:	08 00       	.word	0x0008;	????	
     bac:	00 28       	jnc	$+2      	;abs 0xbae
     bae:	02 00       	.word	0x0002;	????	
     bb0:	00 0f       	.word	0x0f00;	????	
     bb2:	8c 03       	.word	0x038c;	????	
     bb4:	00 00       	.word	0x0000;	????	
     bb6:	01 6a       	addc	r10,	r1	
     bb8:	1e 01       	.word	0x011e;	????	
     bba:	00 00       	.word	0x0000;	????	
     bbc:	df 08       	.word	0x08df;	????	
     bbe:	00 00       	.word	0x0000;	????	
     bc0:	12 06       	.word	0x0612;	????	
     bc2:	63 00       	.word	0x0063;	????	
     bc4:	01 6c       	addc	r12,	r1	
     bc6:	99 00       	.word	0x0099;	????	
     bc8:	00 00       	.word	0x0000;	????	
     bca:	14 09       	.word	0x0914;	????	
     bcc:	00 00       	.word	0x0000;	????	
     bce:	06 69       	addc	r9,	r6	
     bd0:	00 01       	.word	0x0100;	????	
     bd2:	6d 24       	jz	$+220    	;abs 0xcae
     bd4:	01 00       	.word	0x0001;	????	
     bd6:	00 81       	sub	r1,	r0	
     bd8:	09 00       	.word	0x0009;	????	
     bda:	00 06       	.word	0x0600;	????	
     bdc:	6e 00       	.word	0x006e;	????	
     bde:	01 6e       	addc	r14,	r1	
     be0:	28 02       	.word	0x0228;	????	
     be2:	00 00       	.word	0x0000;	????	
     be4:	a3 09       	.word	0x09a3;	????	
     be6:	00 00       	.word	0x0000;	????	
     be8:	06 61       	addc	r1,	r6	
     bea:	00 01       	.word	0x0100;	????	
     bec:	70 32       	jn	$-798    	;abs 0x8ce
     bee:	00 00       	.word	0x0000;	????	
     bf0:	00 ce       	bic	r14,	r0	
     bf2:	09 00       	.word	0x0009;	????	
     bf4:	00 13       	reti			
     bf6:	71 03       	.word	0x0371;	????	
     bf8:	00 00       	.word	0x0000;	????	
     bfa:	01 95       	cmp	r5,	r1	
     bfc:	70 c8       	bic.b	@r8+,	r0	
     bfe:	00 07       	.word	0x0700;	????	
     c00:	04 05       	.word	0x0504;	????	
     c02:	cb 00       	.word	0x00cb;	????	
     c04:	00 00       	.word	0x0000;	????	
     c06:	0c 87       	sub	r7,	r12	
     c08:	00 00       	.word	0x0000;	????	
     c0a:	00 3f       	jmp	$-510    	;abs 0xa0c
     c0c:	02 00       	.word	0x0002;	????	
     c0e:	00 0d       	.word	0x0d00;	????	
     c10:	d0 00       	.word	0x00d0;	????	
     c12:	00 00       	.word	0x0000;	????	
     c14:	09 00       	.word	0x0009;	????	
     c16:	0b 5f       	add	r15,	r11	
     c18:	64 76       	subc.b	@r6,	r4	
     c1a:	00 01       	.word	0x0100;	????	
     c1c:	44 4e       	mov.b	r14,	r4	
     c1e:	02 00       	.word	0x0002;	????	
     c20:	00 03       	.word	0x0300;	????	
     c22:	03 54       	.word	0x5403;	????	Illegal as 2-op instr
     c24:	d0 09       	.word	0x09d0;	????	
     c26:	2f 02       	.word	0x022f;	????	
     c28:	00 00       	.word	0x0000;	????	
     c2a:	00 5a       	add	r10,	r0	
     c2c:	00 00       	.word	0x0000;	????	
     c2e:	00 02       	.word	0x0200;	????	
     c30:	00 e1       	xor	r1,	r0	
     c32:	03 00       	.word	0x0003;	????	
     c34:	00 02       	.word	0x0200;	????	
     c36:	01 e6       	xor	r6,	r1	
     c38:	00 00       	.word	0x0000;	????	
     c3a:	00 01       	.word	0x0100;	????	
     c3c:	ec 03       	.word	0x03ec;	????	
     c3e:	00 00       	.word	0x0000;	????	
     c40:	ac 03       	.word	0x03ac;	????	
     c42:	00 00       	.word	0x0000;	????	
     c44:	84 c8 90 c8 	bic	r8,	-14192(r4);0xc890(r4)
     c48:	b6 03       	.word	0x03b6;	????	
     c4a:	00 00       	.word	0x0000;	????	
     c4c:	02 01       	.word	0x0102;	????	
     c4e:	e1 03       	.word	0x03e1;	????	
     c50:	00 00       	.word	0x0000;	????	
     c52:	01 17       	.word	0x1701;	????	
     c54:	01 84       	sub	r4,	r1	
     c56:	c8 8a c8 02 	sub.b	r10,	712(r8)	;0x02c8(r8)
     c5a:	71 02       	.word	0x0271;	????	
     c5c:	43 00       	.word	0x0043;	????	
     c5e:	00 00       	.word	0x0000;	????	
     c60:	03 63       	adc	#0		;r3 As==00
     c62:	00 01       	.word	0x0100;	????	
     c64:	17 43       	mov	#1,	r7	;r3 As==01
     c66:	00 00       	.word	0x0000;	????	
     c68:	00 1f       	.word	0x1f00;	????	
     c6a:	0a 00       	.word	0x000a;	????	
     c6c:	00 00       	.word	0x0000;	????	
     c6e:	04 01       	.word	0x0104;	????	
     c70:	06 5a       	add	r10,	r6	
     c72:	01 00       	.word	0x0001;	????	
     c74:	00 05       	.word	0x0500;	????	
     c76:	01 d8       	bis	r8,	r1	
     c78:	03 00       	.word	0x0003;	????	
     c7a:	00 01       	.word	0x0100;	????	
     c7c:	1c 43       	mov	#1,	r12	;r3 As==01
     c7e:	00 00       	.word	0x0000;	????	
     c80:	00 8a       	sub	r10,	r0	
     c82:	c8 90 c8 02 	cmp.b	r0,	712(r8)	;0x02c8(r8)
     c86:	71 02       	.word	0x0271;	????	
     c88:	00 c3       	bic	#0,	r0	;r3 As==00
     c8a:	01 00       	.word	0x0001;	????	
     c8c:	00 02       	.word	0x0200;	????	
     c8e:	00 3b       	jl	$-510    	;abs 0xa90
     c90:	04 00       	.word	0x0004;	????	
     c92:	00 02       	.word	0x0200;	????	
     c94:	01 e6       	xor	r6,	r1	
     c96:	00 00       	.word	0x0000;	????	
     c98:	00 01       	.word	0x0100;	????	
     c9a:	19 04       	.word	0x0419;	????	
     c9c:	00 00       	.word	0x0000;	????	
     c9e:	7c 04       	.word	0x047c;	????	
     ca0:	00 00       	.word	0x0000;	????	
     ca2:	90 c8 f2 c9 	bic	-13838(r8),1015(r0);0xc9f2(r8), PC rel. 0x109d
     ca6:	f7 03 
     ca8:	00 00       	.word	0x0000;	????	
     caa:	02 02       	.word	0x0202;	????	
     cac:	07 7f       	subc	r15,	r7	
     cae:	01 00       	.word	0x0001;	????	
     cb0:	00 02       	.word	0x0200;	????	
     cb2:	01 06       	.word	0x0601;	????	
     cb4:	53 01       	.word	0x0153;	????	
     cb6:	00 00       	.word	0x0000;	????	
     cb8:	03 02       	.word	0x0203;	????	
     cba:	05 69       	addc	r9,	r5	
     cbc:	6e 74       	subc.b	@r4,	r14	
     cbe:	00 02       	.word	0x0200;	????	
     cc0:	04 05       	.word	0x0504;	????	
     cc2:	cb 00       	.word	0x00cb;	????	
     cc4:	00 00       	.word	0x0000;	????	
     cc6:	02 08       	.word	0x0802;	????	
     cc8:	05 c6       	bic	r6,	r5	
     cca:	00 00       	.word	0x0000;	????	
     ccc:	00 02       	.word	0x0200;	????	
     cce:	01 08       	.word	0x0801;	????	
     cd0:	51 01       	.word	0x0151;	????	
     cd2:	00 00       	.word	0x0000;	????	
     cd4:	02 04       	.word	0x0402;	????	
     cd6:	07 7a       	subc	r10,	r7	
     cd8:	01 00       	.word	0x0001;	????	
     cda:	00 02       	.word	0x0200;	????	
     cdc:	08 07       	.word	0x0708;	????	
     cde:	75 01       	.word	0x0175;	????	
     ce0:	00 00       	.word	0x0000;	????	
     ce2:	04 01       	.word	0x0104;	????	
     ce4:	a9 04       	.word	0x04a9;	????	
     ce6:	00 00       	.word	0x0000;	????	
     ce8:	01 2a       	jnc	$-1020   	;abs 0x8ec
     cea:	01 90       	cmp	r0,	r1	
     cec:	c8 ba c9 02 	bit.b	r10,	713(r8)	;0x02c9(r8)
     cf0:	71 02       	.word	0x0271;	????	
     cf2:	8d 00       	.word	0x008d;	????	
     cf4:	00 00       	.word	0x0000;	????	
     cf6:	05 fb       	and	r11,	r5	
     cf8:	03 00       	.word	0x0003;	????	
     cfa:	00 01       	.word	0x0100;	????	
     cfc:	2a 36       	jge	$-938    	;abs 0x952
     cfe:	00 00       	.word	0x0000;	????	
     d00:	00 06       	.word	0x0600;	????	
     d02:	5e 93       	cmp.b	#1,	r14	;r3 As==01
     d04:	02 5f       	add	r15,	r2	
     d06:	93 02       	.word	0x0293;	????	
     d08:	05 73       	sbc	r5		
     d0a:	04 00       	.word	0x0004;	????	
     d0c:	00 01       	.word	0x0100;	????	
     d0e:	2a 21       	jnz	$+598    	;abs 0xf64
     d10:	00 00       	.word	0x0000;	????	
     d12:	00 01       	.word	0x0100;	????	
     d14:	5d 00       	.word	0x005d;	????	
     d16:	04 01       	.word	0x0104;	????	
     d18:	c5 04       	.word	0x04c5;	????	
     d1a:	00 00       	.word	0x0000;	????	
     d1c:	01 25       	jz	$+516    	;abs 0xf20
     d1e:	01 ba       	bit	r10,	r1	
     d20:	c9 ca c9 02 	bic.b	r10,	713(r9)	;0x02c9(r9)
     d24:	71 02       	.word	0x0271;	????	
     d26:	b1 00       	.word	0x00b1;	????	
     d28:	00 00       	.word	0x0000;	????	
     d2a:	06 73       	sbc	r6		
     d2c:	04 00       	.word	0x0004;	????	
     d2e:	00 01       	.word	0x0100;	????	
     d30:	25 21       	jnz	$+588    	;abs 0xf7c
     d32:	00 00       	.word	0x0000;	????	
     d34:	00 2a       	jnc	$-1022   	;abs 0x936
     d36:	0a 00       	.word	0x000a;	????	
     d38:	00 00       	.word	0x0000;	????	
     d3a:	04 01       	.word	0x0104;	????	
     d3c:	51 04       	.word	0x0451;	????	
     d3e:	00 00       	.word	0x0000;	????	
     d40:	01 5d       	add	r13,	r1	
     d42:	01 ca       	bic	r10,	r1	
     d44:	c9 d0 c9 02 	bis.b	r0,	713(r9)	;0x02c9(r9)
     d48:	71 02       	.word	0x0271;	????	
     d4a:	d3 00       	.word	0x00d3;	????	
     d4c:	00 00       	.word	0x0000;	????	
     d4e:	05 6e       	addc	r14,	r5	
     d50:	04 00       	.word	0x0004;	????	
     d52:	00 01       	.word	0x0100;	????	
     d54:	5d 44 00 00 	mov.b	0(r4),	r13	;0x0000(r4)
     d58:	00 01       	.word	0x0100;	????	
     d5a:	5f 00       	.word	0x005f;	????	
     d5c:	04 01       	.word	0x0104;	????	
     d5e:	dc 04       	.word	0x04dc;	????	
     d60:	00 00       	.word	0x0000;	????	
     d62:	01 62       	addc	r2,	r1	
     d64:	01 d0       	bis	r0,	r1	
     d66:	c9 de c9 02 	bis.b	r14,	713(r9)	;0x02c9(r9)
     d6a:	71 02       	.word	0x0271;	????	
     d6c:	f5 00       	.word	0x00f5;	????	
     d6e:	00 00       	.word	0x0000;	????	
     d70:	05 6e       	addc	r14,	r5	
     d72:	04 00       	.word	0x0004;	????	
     d74:	00 01       	.word	0x0100;	????	
     d76:	62 44       	mov.b	@r4,	r2	
     d78:	00 00       	.word	0x0000;	????	
     d7a:	00 01       	.word	0x0100;	????	
     d7c:	5f 00       	.word	0x005f;	????	
     d7e:	07 01       	.word	0x0107;	????	
     d80:	45 04       	.word	0x0445;	????	
     d82:	00 00       	.word	0x0000;	????	
     d84:	01 68       	addc	r8,	r1	
     d86:	44 00       	.word	0x0044;	????	
     d88:	00 00       	.word	0x0000;	????	
     d8a:	de c9 e4 c9 	bic.b	-13852(r9),28930(r14);0xc9e4(r9), 0x7102(r14)
     d8e:	02 71 
     d90:	02 07       	.word	0x0702;	????	
     d92:	01 04       	.word	0x0401;	????	
     d94:	04 00       	.word	0x0004;	????	
     d96:	00 01       	.word	0x0100;	????	
     d98:	6d 44       	mov.b	@r4,	r13	
     d9a:	00 00       	.word	0x0000;	????	
     d9c:	00 e4       	xor	r4,	r0	
     d9e:	c9 f2 c9 02 	and.b	r2,	713(r9)	;0x02c9(r9)
     da2:	71 02       	.word	0x0271;	????	
     da4:	08 f3       	and	#0,	r8	;r3 As==00
     da6:	04 00       	.word	0x0004;	????	
     da8:	00 02       	.word	0x0200;	????	
     daa:	9e f1 04 00 	and	4(r1),	11264(r14);0x0004(r1), 0x2c00(r14)
     dae:	00 2c 
     db0:	01 00       	.word	0x0001;	????	
     db2:	00 01       	.word	0x0100;	????	
     db4:	01 09       	.word	0x0901;	????	
     db6:	44 00       	.word	0x0044;	????	
     db8:	00 00       	.word	0x0000;	????	
     dba:	0a 68       	addc	r8,	r10	
     dbc:	04 00       	.word	0x0004;	????	
     dbe:	00 02       	.word	0x0200;	????	
     dc0:	e2 01       	.word	0x01e2;	????	
     dc2:	66 04       	.word	0x0466;	????	
     dc4:	00 00       	.word	0x0000;	????	
     dc6:	2c 01       	.word	0x012c;	????	
     dc8:	00 00       	.word	0x0000;	????	
     dca:	01 01       	.word	0x0101;	????	
     dcc:	0a 5f       	add	r15,	r10	
     dce:	04 00       	.word	0x0004;	????	
     dd0:	00 02       	.word	0x0200;	????	
     dd2:	e4 01       	.word	0x01e4;	????	
     dd4:	5d 04       	.word	0x045d;	????	
     dd6:	00 00       	.word	0x0000;	????	
     dd8:	2c 01       	.word	0x012c;	????	
     dda:	00 00       	.word	0x0000;	????	
     ddc:	01 01       	.word	0x0101;	????	
     dde:	0a 3c       	jmp	$+22     	;abs 0xdf4
     de0:	04 00       	.word	0x0004;	????	
     de2:	00 02       	.word	0x0200;	????	
     de4:	af 02       	.word	0x02af;	????	
     de6:	3a 04       	.word	0x043a;	????	
     de8:	00 00       	.word	0x0000;	????	
     dea:	2c 01       	.word	0x012c;	????	
     dec:	00 00       	.word	0x0000;	????	
     dee:	01 01       	.word	0x0101;	????	
     df0:	0a fa       	and	r10,	r10	
     df2:	04 00       	.word	0x0004;	????	
     df4:	00 02       	.word	0x0200;	????	
     df6:	b1 02       	.word	0x02b1;	????	
     df8:	f8 04       	.word	0x04f8;	????	
     dfa:	00 00       	.word	0x0000;	????	
     dfc:	2c 01       	.word	0x012c;	????	
     dfe:	00 00       	.word	0x0000;	????	
     e00:	01 01       	.word	0x0101;	????	
     e02:	0a 04       	.word	0x040a;	????	
     e04:	05 00       	.word	0x0005;	????	
     e06:	00 02       	.word	0x0200;	????	
     e08:	b3 02       	.word	0x02b3;	????	
     e0a:	02 05       	.word	0x0502;	????	
     e0c:	00 00       	.word	0x0000;	????	
     e0e:	2c 01       	.word	0x012c;	????	
     e10:	00 00       	.word	0x0000;	????	
     e12:	01 01       	.word	0x0101;	????	
     e14:	0a d3       	bis	#0,	r10	;r3 As==00
     e16:	04 00       	.word	0x0004;	????	
     e18:	00 02       	.word	0x0200;	????	
     e1a:	b5 02       	.word	0x02b5;	????	
     e1c:	d1 04       	.word	0x04d1;	????	
     e1e:	00 00       	.word	0x0000;	????	
     e20:	2c 01       	.word	0x012c;	????	
     e22:	00 00       	.word	0x0000;	????	
     e24:	01 01       	.word	0x0101;	????	
     e26:	0a 30       	jn	$+22     	;abs 0xe3c
     e28:	04 00       	.word	0x0004;	????	
     e2a:	00 02       	.word	0x0200;	????	
     e2c:	b9 02       	.word	0x02b9;	????	
     e2e:	2e 04       	.word	0x042e;	????	
     e30:	00 00       	.word	0x0000;	????	
     e32:	af 01       	.word	0x01af;	????	
     e34:	00 00       	.word	0x0000;	????	
     e36:	01 01       	.word	0x0101;	????	
     e38:	0b 2c       	jc	$+24     	;abs 0xe50
     e3a:	01 00       	.word	0x0001;	????	
     e3c:	00 0a       	.word	0x0a00;	????	
     e3e:	bb 04       	.word	0x04bb;	????	
     e40:	00 00       	.word	0x0000;	????	
     e42:	02 bb       	bit	r11,	r2	
     e44:	02 b9       	bit	r9,	r2	
     e46:	04 00       	.word	0x0004;	????	
     e48:	00 2c       	jc	$+2      	;abs 0xe4a
     e4a:	01 00       	.word	0x0001;	????	
     e4c:	00 01       	.word	0x0100;	????	
     e4e:	01 00       	.word	0x0001;	????	
     e50:	e0 00       	.word	0x00e0;	????	
     e52:	00 00       	.word	0x0000;	????	
     e54:	02 00       	.word	0x0002;	????	
     e56:	e5 04       	.word	0x04e5;	????	
     e58:	00 00       	.word	0x0000;	????	
     e5a:	02 01       	.word	0x0102;	????	
     e5c:	b8 04       	.word	0x04b8;	????	
     e5e:	00 00       	.word	0x0000;	????	
     e60:	f2 c9 2c ca 	bic.b	@r9+,	&0xca2c	
     e64:	2f 62       	addc	#4,	r15	;r2 As==10
     e66:	75 69       	addc.b	@r9+,	r5	
     e68:	6c 64       	addc.b	@r4,	r12	
     e6a:	2f 67       	addc	@r7,	r15	
     e6c:	63 63       	.word	0x6363;	????	Illegal as 2-op instr
     e6e:	2d 6d       	addc	@r13,	r13	
     e70:	73 70       	.word	0x7073;	????	Illegal as 2-op instr
     e72:	34 33       	jn	$-406    	;abs 0xcdc
     e74:	30 2d       	jc	$+610    	;abs 0x10d6
     e76:	67 52       	add.b	#4,	r7	;r2 As==10
     e78:	42 52       	rla.b	r2		
     e7a:	52 6f 2f 67 	addc.b	26415(r15),r2	;0x672f(r15)
     e7e:	63 63       	.word	0x6363;	????	Illegal as 2-op instr
     e80:	2d 6d       	addc	@r13,	r13	
     e82:	73 70       	.word	0x7073;	????	Illegal as 2-op instr
     e84:	34 33       	jn	$-406    	;abs 0xcee
     e86:	30 2d       	jc	$+610    	;abs 0x10e8
     e88:	34 2e       	jc	$-918    	;abs 0xaf2
     e8a:	36 2e       	jc	$-914    	;abs 0xaf8
     e8c:	33 7e       	.word	0x7e33;	????	Illegal as 2-op instr
     e8e:	6d 73       	subc.b	#2,	r13	;r3 As==10
     e90:	70 67       	addc.b	@r7+,	r0	
     e92:	63 63       	.word	0x6363;	????	Illegal as 2-op instr
     e94:	2d 32       	jn	$-932    	;abs 0xaf0
     e96:	30 31       	jn	$+610    	;abs 0x10f8
     e98:	32 30       	jn	$+102    	;abs 0xefe
     e9a:	34 30       	jn	$+106    	;abs 0xf04
     e9c:	36 2f       	jc	$-402    	;abs 0xd0a
     e9e:	2e 2f       	jc	$-418    	;abs 0xcfc
     ea0:	67 63       	addc.b	#2,	r7	;r3 As==10
     ea2:	63 2d       	jc	$+712    	;abs 0x116a
     ea4:	34 2e       	jc	$-918    	;abs 0xb0e
     ea6:	36 2e       	jc	$-914    	;abs 0xb14
     ea8:	33 2f       	jc	$-408    	;abs 0xd10
     eaa:	6c 69       	addc.b	@r9,	r12	
     eac:	62 67       	addc.b	@r7,	r2	
     eae:	63 63       	.word	0x6363;	????	Illegal as 2-op instr
     eb0:	2f 2e       	jc	$-928    	;abs 0xb10
     eb2:	2e 2f       	jc	$-418    	;abs 0xd10
     eb4:	67 63       	addc.b	#2,	r7	;r3 As==10
     eb6:	63 2f       	jc	$-312    	;abs 0xd7e
     eb8:	63 6f       	.word	0x6f63;	????	Illegal as 2-op instr
     eba:	6e 66       	addc.b	@r6,	r14	
     ebc:	69 67       	addc.b	@r7,	r9	
     ebe:	2f 6d       	addc	@r13,	r15	
     ec0:	73 70       	.word	0x7073;	????	Illegal as 2-op instr
     ec2:	34 33       	jn	$-406    	;abs 0xd2c
     ec4:	30 2f       	jc	$-414    	;abs 0xd26
     ec6:	6c 69       	addc.b	@r9,	r12	
     ec8:	62 67       	addc.b	@r7,	r2	
     eca:	63 63       	.word	0x6363;	????	Illegal as 2-op instr
     ecc:	2e 53       	incd	r14		
     ece:	00 2f       	jc	$-510    	;abs 0xcd0
     ed0:	62 75       	subc.b	@r5,	r2	
     ed2:	69 6c       	addc.b	@r12,	r9	
     ed4:	64 2f       	jc	$-310    	;abs 0xd9e
     ed6:	67 63       	addc.b	#2,	r7	;r3 As==10
     ed8:	63 2d       	jc	$+712    	;abs 0x11a0
     eda:	6d 73       	subc.b	#2,	r13	;r3 As==10
     edc:	70 34       	jge	$+226    	;abs 0xfbe
     ede:	33 30       	jn	$+104    	;abs 0xf46
     ee0:	2d 67       	addc	@r7,	r13	
     ee2:	52 42 52 52 	mov.b	&0x5252,r2	
     ee6:	6f 2f       	jc	$-288    	;abs 0xdc6
     ee8:	67 63       	addc.b	#2,	r7	;r3 As==10
     eea:	63 2d       	jc	$+712    	;abs 0x11b2
     eec:	6d 73       	subc.b	#2,	r13	;r3 As==10
     eee:	70 34       	jge	$+226    	;abs 0xfd0
     ef0:	33 30       	jn	$+104    	;abs 0xf58
     ef2:	2d 34       	jge	$+92     	;abs 0xf4e
     ef4:	2e 36       	jge	$-930    	;abs 0xb52
     ef6:	2e 33       	jn	$-418    	;abs 0xd54
     ef8:	7e 6d       	addc.b	@r13+,	r14	
     efa:	73 70       	.word	0x7073;	????	Illegal as 2-op instr
     efc:	67 63       	addc.b	#2,	r7	;r3 As==10
     efe:	63 2d       	jc	$+712    	;abs 0x11c6
     f00:	32 30       	jn	$+102    	;abs 0xf66
     f02:	31 32       	jn	$-924    	;abs 0xb66
     f04:	30 34       	jge	$+98     	;abs 0xf66
     f06:	30 36       	jge	$-926    	;abs 0xb68
     f08:	2f 62       	addc	#4,	r15	;r2 As==10
     f0a:	75 69       	addc.b	@r9+,	r5	
     f0c:	6c 64       	addc.b	@r4,	r12	
     f0e:	2d 72       	subc	#4,	r13	;r2 As==10
     f10:	65 73       	subc.b	#2,	r5	;r3 As==10
     f12:	75 6c       	addc.b	@r12+,	r5	
     f14:	74 2f       	jc	$-278    	;abs 0xdfe
     f16:	6d 73       	subc.b	#2,	r13	;r3 As==10
     f18:	70 34       	jge	$+226    	;abs 0xffa
     f1a:	33 30       	jn	$+104    	;abs 0xf82
     f1c:	2f 6c       	addc	@r12,	r15	
     f1e:	69 62       	addc.b	#4,	r9	;r2 As==10
     f20:	67 63       	addc.b	#2,	r7	;r3 As==10
     f22:	63 00       	.word	0x0063;	????	
     f24:	47 4e       	mov.b	r14,	r7	
     f26:	55 20       	jnz	$+172    	;abs 0xfd2
     f28:	41 53       	add.b	#0,	r1	;r3 As==00
     f2a:	20 32       	jn	$-958    	;abs 0xb6c
     f2c:	2e 32       	jn	$-930    	;abs 0xb8a
     f2e:	31 2e       	jc	$-924    	;abs 0xb92
     f30:	31 00       	.word	0x0031;	????	
     f32:	01 80       	sub	r0,	r1	
     f34:	e0 00       	.word	0x00e0;	????	
     f36:	00 00       	.word	0x0000;	????	
     f38:	02 00       	.word	0x0002;	????	
     f3a:	f9 04       	.word	0x04f9;	????	
     f3c:	00 00       	.word	0x0000;	????	
     f3e:	02 01       	.word	0x0102;	????	
     f40:	6a 05       	.word	0x056a;	????	
     f42:	00 00       	.word	0x0000;	????	
     f44:	2c ca       	bic	@r10,	r12	
     f46:	4e ca       	bic.b	r10,	r14	
     f48:	2f 62       	addc	#4,	r15	;r2 As==10
     f4a:	75 69       	addc.b	@r9+,	r5	
     f4c:	6c 64       	addc.b	@r4,	r12	
     f4e:	2f 67       	addc	@r7,	r15	
     f50:	63 63       	.word	0x6363;	????	Illegal as 2-op instr
     f52:	2d 6d       	addc	@r13,	r13	
     f54:	73 70       	.word	0x7073;	????	Illegal as 2-op instr
     f56:	34 33       	jn	$-406    	;abs 0xdc0
     f58:	30 2d       	jc	$+610    	;abs 0x11ba
     f5a:	67 52       	add.b	#4,	r7	;r2 As==10
     f5c:	42 52       	rla.b	r2		
     f5e:	52 6f 2f 67 	addc.b	26415(r15),r2	;0x672f(r15)
     f62:	63 63       	.word	0x6363;	????	Illegal as 2-op instr
     f64:	2d 6d       	addc	@r13,	r13	
     f66:	73 70       	.word	0x7073;	????	Illegal as 2-op instr
     f68:	34 33       	jn	$-406    	;abs 0xdd2
     f6a:	30 2d       	jc	$+610    	;abs 0x11cc
     f6c:	34 2e       	jc	$-918    	;abs 0xbd6
     f6e:	36 2e       	jc	$-914    	;abs 0xbdc
     f70:	33 7e       	.word	0x7e33;	????	Illegal as 2-op instr
     f72:	6d 73       	subc.b	#2,	r13	;r3 As==10
     f74:	70 67       	addc.b	@r7+,	r0	
     f76:	63 63       	.word	0x6363;	????	Illegal as 2-op instr
     f78:	2d 32       	jn	$-932    	;abs 0xbd4
     f7a:	30 31       	jn	$+610    	;abs 0x11dc
     f7c:	32 30       	jn	$+102    	;abs 0xfe2
     f7e:	34 30       	jn	$+106    	;abs 0xfe8
     f80:	36 2f       	jc	$-402    	;abs 0xdee
     f82:	2e 2f       	jc	$-418    	;abs 0xde0
     f84:	67 63       	addc.b	#2,	r7	;r3 As==10
     f86:	63 2d       	jc	$+712    	;abs 0x124e
     f88:	34 2e       	jc	$-918    	;abs 0xbf2
     f8a:	36 2e       	jc	$-914    	;abs 0xbf8
     f8c:	33 2f       	jc	$-408    	;abs 0xdf4
     f8e:	6c 69       	addc.b	@r9,	r12	
     f90:	62 67       	addc.b	@r7,	r2	
     f92:	63 63       	.word	0x6363;	????	Illegal as 2-op instr
     f94:	2f 2e       	jc	$-928    	;abs 0xbf4
     f96:	2e 2f       	jc	$-418    	;abs 0xdf4
     f98:	67 63       	addc.b	#2,	r7	;r3 As==10
     f9a:	63 2f       	jc	$-312    	;abs 0xe62
     f9c:	63 6f       	.word	0x6f63;	????	Illegal as 2-op instr
     f9e:	6e 66       	addc.b	@r6,	r14	
     fa0:	69 67       	addc.b	@r7,	r9	
     fa2:	2f 6d       	addc	@r13,	r15	
     fa4:	73 70       	.word	0x7073;	????	Illegal as 2-op instr
     fa6:	34 33       	jn	$-406    	;abs 0xe10
     fa8:	30 2f       	jc	$-414    	;abs 0xe0a
     faa:	6c 69       	addc.b	@r9,	r12	
     fac:	62 67       	addc.b	@r7,	r2	
     fae:	63 63       	.word	0x6363;	????	Illegal as 2-op instr
     fb0:	2e 53       	incd	r14		
     fb2:	00 2f       	jc	$-510    	;abs 0xdb4
     fb4:	62 75       	subc.b	@r5,	r2	
     fb6:	69 6c       	addc.b	@r12,	r9	
     fb8:	64 2f       	jc	$-310    	;abs 0xe82
     fba:	67 63       	addc.b	#2,	r7	;r3 As==10
     fbc:	63 2d       	jc	$+712    	;abs 0x1284
     fbe:	6d 73       	subc.b	#2,	r13	;r3 As==10
     fc0:	70 34       	jge	$+226    	;abs 0x10a2
     fc2:	33 30       	jn	$+104    	;abs 0x102a
     fc4:	2d 67       	addc	@r7,	r13	
     fc6:	52 42 52 52 	mov.b	&0x5252,r2	
     fca:	6f 2f       	jc	$-288    	;abs 0xeaa
     fcc:	67 63       	addc.b	#2,	r7	;r3 As==10
     fce:	63 2d       	jc	$+712    	;abs 0x1296
     fd0:	6d 73       	subc.b	#2,	r13	;r3 As==10
     fd2:	70 34       	jge	$+226    	;abs 0x10b4
     fd4:	33 30       	jn	$+104    	;abs 0x103c
     fd6:	2d 34       	jge	$+92     	;abs 0x1032
     fd8:	2e 36       	jge	$-930    	;abs 0xc36
     fda:	2e 33       	jn	$-418    	;abs 0xe38
     fdc:	7e 6d       	addc.b	@r13+,	r14	
     fde:	73 70       	.word	0x7073;	????	Illegal as 2-op instr
     fe0:	67 63       	addc.b	#2,	r7	;r3 As==10
     fe2:	63 2d       	jc	$+712    	;abs 0x12aa
     fe4:	32 30       	jn	$+102    	;abs 0x104a
     fe6:	31 32       	jn	$-924    	;abs 0xc4a
     fe8:	30 34       	jge	$+98     	;abs 0x104a
     fea:	30 36       	jge	$-926    	;abs 0xc4c
     fec:	2f 62       	addc	#4,	r15	;r2 As==10
     fee:	75 69       	addc.b	@r9+,	r5	
     ff0:	6c 64       	addc.b	@r4,	r12	
     ff2:	2d 72       	subc	#4,	r13	;r2 As==10
     ff4:	65 73       	subc.b	#2,	r5	;r3 As==10
     ff6:	75 6c       	addc.b	@r12+,	r5	
     ff8:	74 2f       	jc	$-278    	;abs 0xee2
     ffa:	6d 73       	subc.b	#2,	r13	;r3 As==10
     ffc:	70 34       	jge	$+226    	;abs 0x10de
     ffe:	33 30       	jn	$+104    	;abs 0x1066
    1000:	2f 6c       	addc	@r12,	r15	
    1002:	69 62       	addc.b	#4,	r9	;r2 As==10
    1004:	67 63       	addc.b	#2,	r7	;r3 As==10
    1006:	63 00       	.word	0x0063;	????	
    1008:	47 4e       	mov.b	r14,	r7	
    100a:	55 20       	jnz	$+172    	;abs 0x10b6
    100c:	41 53       	add.b	#0,	r1	;r3 As==00
    100e:	20 32       	jn	$-958    	;abs 0xc50
    1010:	2e 32       	jn	$-930    	;abs 0xc6e
    1012:	31 2e       	jc	$-924    	;abs 0xc76
    1014:	31 00       	.word	0x0031;	????	
    1016:	01 80       	sub	r0,	r1	
    1018:	fa 00       	.word	0x00fa;	????	
    101a:	00 00       	.word	0x0000;	????	
    101c:	02 00       	.word	0x0002;	????	
    101e:	0d 05       	.word	0x050d;	????	
    1020:	00 00       	.word	0x0000;	????	
    1022:	02 01       	.word	0x0102;	????	
    1024:	e6 00       	.word	0x00e6;	????	
    1026:	00 00       	.word	0x0000;	????	
    1028:	01 59       	add	r9,	r1	
    102a:	05 00       	.word	0x0005;	????	
    102c:	00 26       	jz	$-1022   	;abs 0xc2e
    102e:	05 00       	.word	0x0005;	????	
    1030:	00 4e       	br	r14		
    1032:	ca b8 ca 11 	bit.b	r8,	4554(r10);0x11ca(r10)
    1036:	06 00       	.word	0x0006;	????	
    1038:	00 02       	.word	0x0200;	????	
    103a:	01 06       	.word	0x0601;	????	
    103c:	53 01       	.word	0x0153;	????	
    103e:	00 00       	.word	0x0000;	????	
    1040:	03 02       	.word	0x0203;	????	
    1042:	05 69       	addc	r9,	r5	
    1044:	6e 74       	subc.b	@r4,	r14	
    1046:	00 02       	.word	0x0200;	????	
    1048:	04 05       	.word	0x0504;	????	
    104a:	cb 00       	.word	0x00cb;	????	
    104c:	00 00       	.word	0x0000;	????	
    104e:	02 08       	.word	0x0802;	????	
    1050:	05 c6       	bic	r6,	r5	
    1052:	00 00       	.word	0x0000;	????	
    1054:	00 02       	.word	0x0200;	????	
    1056:	01 08       	.word	0x0801;	????	
    1058:	51 01       	.word	0x0151;	????	
    105a:	00 00       	.word	0x0000;	????	
    105c:	02 02       	.word	0x0202;	????	
    105e:	07 7f       	subc	r15,	r7	
    1060:	01 00       	.word	0x0001;	????	
    1062:	00 02       	.word	0x0200;	????	
    1064:	04 07       	.word	0x0704;	????	
    1066:	7a 01       	.word	0x017a;	????	
    1068:	00 00       	.word	0x0000;	????	
    106a:	02 08       	.word	0x0802;	????	
    106c:	07 75       	subc	r5,	r7	
    106e:	01 00       	.word	0x0001;	????	
    1070:	00 04       	.word	0x0400;	????	
    1072:	18 05       	.word	0x0518;	????	
    1074:	00 00       	.word	0x0000;	????	
    1076:	02 30       	jn	$+6      	;abs 0x107c
    1078:	3d 00       	.word	0x003d;	????	
    107a:	00 00       	.word	0x0000;	????	
    107c:	02 02       	.word	0x0202;	????	
    107e:	07 e3       	xor	#0,	r7	;r3 As==00
    1080:	01 00       	.word	0x0001;	????	
    1082:	00 04       	.word	0x0400;	????	
    1084:	6b 05       	.word	0x056b;	????	
    1086:	00 00       	.word	0x0000;	????	
    1088:	02 32       	jn	$-1018   	;abs 0xc8e
    108a:	44 00       	.word	0x0044;	????	
    108c:	00 00       	.word	0x0000;	????	
    108e:	02 01       	.word	0x0102;	????	
    1090:	06 5a       	add	r10,	r6	
    1092:	01 00       	.word	0x0001;	????	
    1094:	00 04       	.word	0x0400;	????	
    1096:	0c 05       	.word	0x050c;	????	
    1098:	00 00       	.word	0x0000;	????	
    109a:	03 d4       	.word	0xd403;	????	Illegal as 2-op instr
    109c:	44 00       	.word	0x0044;	????	
    109e:	00 00       	.word	0x0000;	????	
    10a0:	05 01       	.word	0x0105;	????	
    10a2:	1f 05       	.word	0x051f;	????	
    10a4:	00 00       	.word	0x0000;	????	
    10a6:	01 39       	jl	$+516    	;abs 0x12aa
    10a8:	01 f5       	and	r5,	r1	
    10aa:	00 00       	.word	0x0000;	????	
    10ac:	00 4e       	br	r14		
    10ae:	ca b8 ca 35 	bit.b	r8,	13770(r10);0x35ca(r10)
    10b2:	0a 00       	.word	0x000a;	????	
    10b4:	00 f5       	and	r5,	r0	
    10b6:	00 00       	.word	0x0000;	????	
    10b8:	00 06       	.word	0x0600;	????	
    10ba:	13 05       	.word	0x0513;	????	
    10bc:	00 00       	.word	0x0000;	????	
    10be:	01 3a       	jl	$-1020   	;abs 0xcc2
    10c0:	f5 00       	.word	0x00f5;	????	
    10c2:	00 00       	.word	0x0000;	????	
    10c4:	01 5f       	add	r15,	r1	
    10c6:	07 63       	adc	r7		
    10c8:	30 00       	.word	0x0030;	????	
    10ca:	01 3b       	jl	$-508    	;abs 0xece
    10cc:	28 00       	.word	0x0028;	????	
    10ce:	00 00       	.word	0x0000;	????	
    10d0:	61 0a       	.word	0x0a61;	????	
    10d2:	00 00       	.word	0x0000;	????	
    10d4:	08 71       	subc	r1,	r8	
    10d6:	05 00       	.word	0x0005;	????	
    10d8:	00 01       	.word	0x0100;	????	
    10da:	3c 7d       	subc	@r13+,	r12	
    10dc:	00 00       	.word	0x0000;	????	
    10de:	00 6c       	addc	r12,	r0	
    10e0:	0a 00       	.word	0x000a;	????	
    10e2:	00 09       	.word	0x0900;	????	
    10e4:	74 00       	.word	0x0074;	????	
    10e6:	01 3f       	jmp	$-508    	;abs 0xeea
    10e8:	7d 00       	.word	0x007d;	????	
    10ea:	00 00       	.word	0x0000;	????	
    10ec:	77 0a       	.word	0x0a77;	????	
    10ee:	00 00       	.word	0x0000;	????	
    10f0:	09 63       	adc	r9		
    10f2:	00 01       	.word	0x0100;	????	
    10f4:	41 6b       	addc.b	r11,	r1	
    10f6:	00 00       	.word	0x0000;	????	
    10f8:	00 c9       	bic	r9,	r0	
    10fa:	0a 00       	.word	0x000a;	????	
    10fc:	00 09       	.word	0x0900;	????	
    10fe:	64 73       	subc.b	#2,	r4	;r3 As==10
    1100:	74 00       	.word	0x0074;	????	
    1102:	01 43       	clr	r1		
    1104:	f7 00       	.word	0x00f7;	????	
    1106:	00 00       	.word	0x0000;	????	
    1108:	d4 0a       	.word	0x0ad4;	????	
    110a:	00 00       	.word	0x0000;	????	
    110c:	00 0a       	.word	0x0a00;	????	
    110e:	02 0b       	.word	0x0b02;	????	
    1110:	02 59       	add	r9,	r2	
    1112:	00 00       	.word	0x0000;	????	
    1114:	00 00       	.word	0x0000;	????	
    1116:	b0 00       	.word	0x00b0;	????	
    1118:	00 00       	.word	0x0000;	????	
    111a:	02 00       	.word	0x0002;	????	
    111c:	a9 05       	.word	0x05a9;	????	
    111e:	00 00       	.word	0x0000;	????	
    1120:	02 01       	.word	0x0102;	????	
    1122:	e6 00       	.word	0x00e6;	????	
    1124:	00 00       	.word	0x0000;	????	
    1126:	01 82       	sub	r2,	r1	
    1128:	05 00       	.word	0x0005;	????	
    112a:	00 26       	jz	$-1022   	;abs 0xd2c
    112c:	05 00       	.word	0x0005;	????	
    112e:	00 b8       	bit	r8,	r0	
    1130:	ca 42 cb d9 	mov.b	r2,	-9781(r10);0xd9cb(r10)
    1134:	06 00       	.word	0x0006;	????	
    1136:	00 02       	.word	0x0200;	????	
    1138:	04 05       	.word	0x0504;	????	
    113a:	cb 00       	.word	0x00cb;	????	
    113c:	00 00       	.word	0x0000;	????	
    113e:	02 02       	.word	0x0202;	????	
    1140:	07 7f       	subc	r15,	r7	
    1142:	01 00       	.word	0x0001;	????	
    1144:	00 03       	.word	0x0300;	????	
    1146:	02 05       	.word	0x0502;	????	
    1148:	69 6e       	addc.b	@r14,	r9	
    114a:	74 00       	.word	0x0074;	????	
    114c:	02 01       	.word	0x0102;	????	
    114e:	06 53       	add	#0,	r6	;r3 As==00
    1150:	01 00       	.word	0x0001;	????	
    1152:	00 02       	.word	0x0200;	????	
    1154:	08 05       	.word	0x0508;	????	
    1156:	c6 00       	.word	0x00c6;	????	
    1158:	00 00       	.word	0x0000;	????	
    115a:	02 01       	.word	0x0102;	????	
    115c:	08 51       	add	r1,	r8	
    115e:	01 00       	.word	0x0001;	????	
    1160:	00 02       	.word	0x0200;	????	
    1162:	04 07       	.word	0x0704;	????	
    1164:	7a 01       	.word	0x017a;	????	
    1166:	00 00       	.word	0x0000;	????	
    1168:	02 08       	.word	0x0802;	????	
    116a:	07 75       	subc	r5,	r7	
    116c:	01 00       	.word	0x0001;	????	
    116e:	00 02       	.word	0x0200;	????	
    1170:	02 07       	.word	0x0702;	????	
    1172:	e3 01       	.word	0x01e3;	????	
    1174:	00 00       	.word	0x0000;	????	
    1176:	02 01       	.word	0x0102;	????	
    1178:	06 5a       	add	r10,	r6	
    117a:	01 00       	.word	0x0001;	????	
    117c:	00 04       	.word	0x0400;	????	
    117e:	02 6d       	addc	r13,	r2	
    1180:	00 00       	.word	0x0000;	????	
    1182:	00 05       	.word	0x0500;	????	
    1184:	60 00       	.word	0x0060;	????	
    1186:	00 00       	.word	0x0000;	????	
    1188:	06 01       	.word	0x0106;	????	
    118a:	7d 05       	.word	0x057d;	????	
    118c:	00 00       	.word	0x0000;	????	
    118e:	01 06       	.word	0x0601;	????	
    1190:	01 2f       	jc	$-508    	;abs 0xf94
    1192:	00 00       	.word	0x0000;	????	
    1194:	00 b8       	bit	r8,	r0	
    1196:	ca 42 cb 10 	mov.b	r2,	4299(r10);0x10cb(r10)
    119a:	0b 00       	.word	0x000b;	????	
    119c:	00 07       	.word	0x0700;	????	
    119e:	70 00       	.word	0x0070;	????	
    11a0:	01 06       	.word	0x0601;	????	
    11a2:	67 00       	.word	0x0067;	????	
    11a4:	00 00       	.word	0x0000;	????	
    11a6:	24 0b       	.word	0x0b24;	????	
    11a8:	00 00       	.word	0x0000;	????	
    11aa:	08 78       	subc	r8,	r8	
    11ac:	05 00       	.word	0x0005;	????	
    11ae:	00 01       	.word	0x0100;	????	
    11b0:	08 2f       	jc	$-494    	;abs 0xfc2
    11b2:	00 00       	.word	0x0000;	????	
    11b4:	00 46       	br	r6		
    11b6:	0b 00       	.word	0x000b;	????	
    11b8:	00 09       	.word	0x0900;	????	
    11ba:	72 65       	addc.b	@r5+,	r2	
    11bc:	73 00       	.word	0x0073;	????	
    11be:	01 09       	.word	0x0901;	????	
    11c0:	2f 00       	.word	0x002f;	????	
    11c2:	00 00       	.word	0x0000;	????	
    11c4:	69 0b       	.word	0x0b69;	????	
    11c6:	00 00       	.word	0x0000;	????	
    11c8:	00 00       	.word	0x0000;	????	
    11ca:	ca 00       	.word	0x00ca;	????	
    11cc:	00 00       	.word	0x0000;	????	
    11ce:	02 00       	.word	0x0002;	????	
    11d0:	27 06       	.word	0x0627;	????	
    11d2:	00 00       	.word	0x0000;	????	
    11d4:	02 01       	.word	0x0102;	????	
    11d6:	47 07       	.word	0x0747;	????	
    11d8:	00 00       	.word	0x0000;	????	
    11da:	00 c0       	bic	r0,	r0	
    11dc:	0c c0       	bic	r0,	r12	
    11de:	2f 62       	addc	#4,	r15	;r2 As==10
    11e0:	75 69       	addc.b	@r9+,	r5	
    11e2:	6c 64       	addc.b	@r4,	r12	
    11e4:	2f 67       	addc	@r7,	r15	
    11e6:	63 63       	.word	0x6363;	????	Illegal as 2-op instr
    11e8:	2d 6d       	addc	@r13,	r13	
    11ea:	73 70       	.word	0x7073;	????	Illegal as 2-op instr
    11ec:	34 33       	jn	$-406    	;abs 0x1056
    11ee:	30 2d       	jc	$+610    	;abs 0x1450
    11f0:	67 52       	add.b	#4,	r7	;r2 As==10
    11f2:	42 52       	rla.b	r2		
    11f4:	52 6f 2f 67 	addc.b	26415(r15),r2	;0x672f(r15)
    11f8:	63 63       	.word	0x6363;	????	Illegal as 2-op instr
    11fa:	2d 6d       	addc	@r13,	r13	
    11fc:	73 70       	.word	0x7073;	????	Illegal as 2-op instr
    11fe:	34 33       	jn	$-406    	;abs 0x1068
    1200:	30 2d       	jc	$+610    	;abs 0x1462
    1202:	34 2e       	jc	$-918    	;abs 0xe6c
    1204:	36 2e       	jc	$-914    	;abs 0xe72
    1206:	33 7e       	.word	0x7e33;	????	Illegal as 2-op instr
    1208:	6d 73       	subc.b	#2,	r13	;r3 As==10
    120a:	70 67       	addc.b	@r7+,	r0	
    120c:	63 63       	.word	0x6363;	????	Illegal as 2-op instr
    120e:	2d 32       	jn	$-932    	;abs 0xe6a
    1210:	30 31       	jn	$+610    	;abs 0x1472
    1212:	32 30       	jn	$+102    	;abs 0x1278
    1214:	34 30       	jn	$+106    	;abs 0x127e
    1216:	36 2f       	jc	$-402    	;abs 0x1084
    1218:	2e 2f       	jc	$-418    	;abs 0x1076
    121a:	67 63       	addc.b	#2,	r7	;r3 As==10
    121c:	63 2d       	jc	$+712    	;abs 0x14e4
    121e:	34 2e       	jc	$-918    	;abs 0xe88
    1220:	36 2e       	jc	$-914    	;abs 0xe8e
    1222:	33 2f       	jc	$-408    	;abs 0x108a
    1224:	67 63       	addc.b	#2,	r7	;r3 As==10
    1226:	63 2f       	jc	$-312    	;abs 0x10ee
    1228:	63 6f       	.word	0x6f63;	????	Illegal as 2-op instr
    122a:	6e 66       	addc.b	@r6,	r14	
    122c:	69 67       	addc.b	@r7,	r9	
    122e:	2f 6d       	addc	@r13,	r15	
    1230:	73 70       	.word	0x7073;	????	Illegal as 2-op instr
    1232:	34 33       	jn	$-406    	;abs 0x109c
    1234:	30 2f       	jc	$-414    	;abs 0x1096
    1236:	63 72       	.word	0x7263;	????	Illegal as 2-op instr
    1238:	74 30       	jn	$+234    	;abs 0x1322
    123a:	2e 53       	incd	r14		
    123c:	00 2f       	jc	$-510    	;abs 0x103e
    123e:	62 75       	subc.b	@r5,	r2	
    1240:	69 6c       	addc.b	@r12,	r9	
    1242:	64 2f       	jc	$-310    	;abs 0x110c
    1244:	67 63       	addc.b	#2,	r7	;r3 As==10
    1246:	63 2d       	jc	$+712    	;abs 0x150e
    1248:	6d 73       	subc.b	#2,	r13	;r3 As==10
    124a:	70 34       	jge	$+226    	;abs 0x132c
    124c:	33 30       	jn	$+104    	;abs 0x12b4
    124e:	2d 67       	addc	@r7,	r13	
    1250:	52 42 52 52 	mov.b	&0x5252,r2	
    1254:	6f 2f       	jc	$-288    	;abs 0x1134
    1256:	67 63       	addc.b	#2,	r7	;r3 As==10
    1258:	63 2d       	jc	$+712    	;abs 0x1520
    125a:	6d 73       	subc.b	#2,	r13	;r3 As==10
    125c:	70 34       	jge	$+226    	;abs 0x133e
    125e:	33 30       	jn	$+104    	;abs 0x12c6
    1260:	2d 34       	jge	$+92     	;abs 0x12bc
    1262:	2e 36       	jge	$-930    	;abs 0xec0
    1264:	2e 33       	jn	$-418    	;abs 0x10c2
    1266:	7e 6d       	addc.b	@r13+,	r14	
    1268:	73 70       	.word	0x7073;	????	Illegal as 2-op instr
    126a:	67 63       	addc.b	#2,	r7	;r3 As==10
    126c:	63 2d       	jc	$+712    	;abs 0x1534
    126e:	32 30       	jn	$+102    	;abs 0x12d4
    1270:	31 32       	jn	$-924    	;abs 0xed4
    1272:	30 34       	jge	$+98     	;abs 0x12d4
    1274:	30 36       	jge	$-926    	;abs 0xed6
    1276:	2f 62       	addc	#4,	r15	;r2 As==10
    1278:	75 69       	addc.b	@r9+,	r5	
    127a:	6c 64       	addc.b	@r4,	r12	
    127c:	2d 72       	subc	#4,	r13	;r2 As==10
    127e:	65 73       	subc.b	#2,	r5	;r3 As==10
    1280:	75 6c       	addc.b	@r12+,	r5	
    1282:	74 2f       	jc	$-278    	;abs 0x116c
    1284:	67 63       	addc.b	#2,	r7	;r3 As==10
    1286:	63 00       	.word	0x0063;	????	
    1288:	47 4e       	mov.b	r14,	r7	
    128a:	55 20       	jnz	$+172    	;abs 0x1336
    128c:	41 53       	add.b	#0,	r1	;r3 As==00
    128e:	20 32       	jn	$-958    	;abs 0xed0
    1290:	2e 32       	jn	$-930    	;abs 0xeee
    1292:	31 2e       	jc	$-924    	;abs 0xef6
    1294:	31 00       	.word	0x0031;	????	
    1296:	01 80       	sub	r0,	r1	
    1298:	ca 00       	.word	0x00ca;	????	
    129a:	00 00       	.word	0x0000;	????	
    129c:	02 00       	.word	0x0002;	????	
    129e:	3b 06       	.word	0x063b;	????	
    12a0:	00 00       	.word	0x0000;	????	
    12a2:	02 01       	.word	0x0102;	????	
    12a4:	d6 07       	.word	0x07d6;	????	
    12a6:	00 00       	.word	0x0000;	????	
    12a8:	0c c0       	bic	r0,	r12	
    12aa:	10 c0 2f 62 	bic	25135(r0),r0	;PC rel. 0x74db
    12ae:	75 69       	addc.b	@r9+,	r5	
    12b0:	6c 64       	addc.b	@r4,	r12	
    12b2:	2f 67       	addc	@r7,	r15	
    12b4:	63 63       	.word	0x6363;	????	Illegal as 2-op instr
    12b6:	2d 6d       	addc	@r13,	r13	
    12b8:	73 70       	.word	0x7073;	????	Illegal as 2-op instr
    12ba:	34 33       	jn	$-406    	;abs 0x1124
    12bc:	30 2d       	jc	$+610    	;abs 0x151e
    12be:	67 52       	add.b	#4,	r7	;r2 As==10
    12c0:	42 52       	rla.b	r2		
    12c2:	52 6f 2f 67 	addc.b	26415(r15),r2	;0x672f(r15)
    12c6:	63 63       	.word	0x6363;	????	Illegal as 2-op instr
    12c8:	2d 6d       	addc	@r13,	r13	
    12ca:	73 70       	.word	0x7073;	????	Illegal as 2-op instr
    12cc:	34 33       	jn	$-406    	;abs 0x1136
    12ce:	30 2d       	jc	$+610    	;abs 0x1530
    12d0:	34 2e       	jc	$-918    	;abs 0xf3a
    12d2:	36 2e       	jc	$-914    	;abs 0xf40
    12d4:	33 7e       	.word	0x7e33;	????	Illegal as 2-op instr
    12d6:	6d 73       	subc.b	#2,	r13	;r3 As==10
    12d8:	70 67       	addc.b	@r7+,	r0	
    12da:	63 63       	.word	0x6363;	????	Illegal as 2-op instr
    12dc:	2d 32       	jn	$-932    	;abs 0xf38
    12de:	30 31       	jn	$+610    	;abs 0x1540
    12e0:	32 30       	jn	$+102    	;abs 0x1346
    12e2:	34 30       	jn	$+106    	;abs 0x134c
    12e4:	36 2f       	jc	$-402    	;abs 0x1152
    12e6:	2e 2f       	jc	$-418    	;abs 0x1144
    12e8:	67 63       	addc.b	#2,	r7	;r3 As==10
    12ea:	63 2d       	jc	$+712    	;abs 0x15b2
    12ec:	34 2e       	jc	$-918    	;abs 0xf56
    12ee:	36 2e       	jc	$-914    	;abs 0xf5c
    12f0:	33 2f       	jc	$-408    	;abs 0x1158
    12f2:	67 63       	addc.b	#2,	r7	;r3 As==10
    12f4:	63 2f       	jc	$-312    	;abs 0x11bc
    12f6:	63 6f       	.word	0x6f63;	????	Illegal as 2-op instr
    12f8:	6e 66       	addc.b	@r6,	r14	
    12fa:	69 67       	addc.b	@r7,	r9	
    12fc:	2f 6d       	addc	@r13,	r15	
    12fe:	73 70       	.word	0x7073;	????	Illegal as 2-op instr
    1300:	34 33       	jn	$-406    	;abs 0x116a
    1302:	30 2f       	jc	$-414    	;abs 0x1164
    1304:	63 72       	.word	0x7263;	????	Illegal as 2-op instr
    1306:	74 30       	jn	$+234    	;abs 0x13f0
    1308:	2e 53       	incd	r14		
    130a:	00 2f       	jc	$-510    	;abs 0x110c
    130c:	62 75       	subc.b	@r5,	r2	
    130e:	69 6c       	addc.b	@r12,	r9	
    1310:	64 2f       	jc	$-310    	;abs 0x11da
    1312:	67 63       	addc.b	#2,	r7	;r3 As==10
    1314:	63 2d       	jc	$+712    	;abs 0x15dc
    1316:	6d 73       	subc.b	#2,	r13	;r3 As==10
    1318:	70 34       	jge	$+226    	;abs 0x13fa
    131a:	33 30       	jn	$+104    	;abs 0x1382
    131c:	2d 67       	addc	@r7,	r13	
    131e:	52 42 52 52 	mov.b	&0x5252,r2	
    1322:	6f 2f       	jc	$-288    	;abs 0x1202
    1324:	67 63       	addc.b	#2,	r7	;r3 As==10
    1326:	63 2d       	jc	$+712    	;abs 0x15ee
    1328:	6d 73       	subc.b	#2,	r13	;r3 As==10
    132a:	70 34       	jge	$+226    	;abs 0x140c
    132c:	33 30       	jn	$+104    	;abs 0x1394
    132e:	2d 34       	jge	$+92     	;abs 0x138a
    1330:	2e 36       	jge	$-930    	;abs 0xf8e
    1332:	2e 33       	jn	$-418    	;abs 0x1190
    1334:	7e 6d       	addc.b	@r13+,	r14	
    1336:	73 70       	.word	0x7073;	????	Illegal as 2-op instr
    1338:	67 63       	addc.b	#2,	r7	;r3 As==10
    133a:	63 2d       	jc	$+712    	;abs 0x1602
    133c:	32 30       	jn	$+102    	;abs 0x13a2
    133e:	31 32       	jn	$-924    	;abs 0xfa2
    1340:	30 34       	jge	$+98     	;abs 0x13a2
    1342:	30 36       	jge	$-926    	;abs 0xfa4
    1344:	2f 62       	addc	#4,	r15	;r2 As==10
    1346:	75 69       	addc.b	@r9+,	r5	
    1348:	6c 64       	addc.b	@r4,	r12	
    134a:	2d 72       	subc	#4,	r13	;r2 As==10
    134c:	65 73       	subc.b	#2,	r5	;r3 As==10
    134e:	75 6c       	addc.b	@r12+,	r5	
    1350:	74 2f       	jc	$-278    	;abs 0x123a
    1352:	67 63       	addc.b	#2,	r7	;r3 As==10
    1354:	63 00       	.word	0x0063;	????	
    1356:	47 4e       	mov.b	r14,	r7	
    1358:	55 20       	jnz	$+172    	;abs 0x1404
    135a:	41 53       	add.b	#0,	r1	;r3 As==00
    135c:	20 32       	jn	$-958    	;abs 0xf9e
    135e:	2e 32       	jn	$-930    	;abs 0xfbc
    1360:	31 2e       	jc	$-924    	;abs 0xfc4
    1362:	31 00       	.word	0x0031;	????	
    1364:	01 80       	sub	r0,	r1	
    1366:	ca 00       	.word	0x00ca;	????	
    1368:	00 00       	.word	0x0000;	????	
    136a:	02 00       	.word	0x0002;	????	
    136c:	4f 06       	.word	0x064f;	????	
    136e:	00 00       	.word	0x0000;	????	
    1370:	02 01       	.word	0x0102;	????	
    1372:	63 08       	.word	0x0863;	????	
    1374:	00 00       	.word	0x0000;	????	
    1376:	10 c0 28 c0 	bic	-16344(r0),r0	;PC rel. 0xd3a0
    137a:	2f 62       	addc	#4,	r15	;r2 As==10
    137c:	75 69       	addc.b	@r9+,	r5	
    137e:	6c 64       	addc.b	@r4,	r12	
    1380:	2f 67       	addc	@r7,	r15	
    1382:	63 63       	.word	0x6363;	????	Illegal as 2-op instr
    1384:	2d 6d       	addc	@r13,	r13	
    1386:	73 70       	.word	0x7073;	????	Illegal as 2-op instr
    1388:	34 33       	jn	$-406    	;abs 0x11f2
    138a:	30 2d       	jc	$+610    	;abs 0x15ec
    138c:	67 52       	add.b	#4,	r7	;r2 As==10
    138e:	42 52       	rla.b	r2		
    1390:	52 6f 2f 67 	addc.b	26415(r15),r2	;0x672f(r15)
    1394:	63 63       	.word	0x6363;	????	Illegal as 2-op instr
    1396:	2d 6d       	addc	@r13,	r13	
    1398:	73 70       	.word	0x7073;	????	Illegal as 2-op instr
    139a:	34 33       	jn	$-406    	;abs 0x1204
    139c:	30 2d       	jc	$+610    	;abs 0x15fe
    139e:	34 2e       	jc	$-918    	;abs 0x1008
    13a0:	36 2e       	jc	$-914    	;abs 0x100e
    13a2:	33 7e       	.word	0x7e33;	????	Illegal as 2-op instr
    13a4:	6d 73       	subc.b	#2,	r13	;r3 As==10
    13a6:	70 67       	addc.b	@r7+,	r0	
    13a8:	63 63       	.word	0x6363;	????	Illegal as 2-op instr
    13aa:	2d 32       	jn	$-932    	;abs 0x1006
    13ac:	30 31       	jn	$+610    	;abs 0x160e
    13ae:	32 30       	jn	$+102    	;abs 0x1414
    13b0:	34 30       	jn	$+106    	;abs 0x141a
    13b2:	36 2f       	jc	$-402    	;abs 0x1220
    13b4:	2e 2f       	jc	$-418    	;abs 0x1212
    13b6:	67 63       	addc.b	#2,	r7	;r3 As==10
    13b8:	63 2d       	jc	$+712    	;abs 0x1680
    13ba:	34 2e       	jc	$-918    	;abs 0x1024
    13bc:	36 2e       	jc	$-914    	;abs 0x102a
    13be:	33 2f       	jc	$-408    	;abs 0x1226
    13c0:	67 63       	addc.b	#2,	r7	;r3 As==10
    13c2:	63 2f       	jc	$-312    	;abs 0x128a
    13c4:	63 6f       	.word	0x6f63;	????	Illegal as 2-op instr
    13c6:	6e 66       	addc.b	@r6,	r14	
    13c8:	69 67       	addc.b	@r7,	r9	
    13ca:	2f 6d       	addc	@r13,	r15	
    13cc:	73 70       	.word	0x7073;	????	Illegal as 2-op instr
    13ce:	34 33       	jn	$-406    	;abs 0x1238
    13d0:	30 2f       	jc	$-414    	;abs 0x1232
    13d2:	63 72       	.word	0x7263;	????	Illegal as 2-op instr
    13d4:	74 30       	jn	$+234    	;abs 0x14be
    13d6:	2e 53       	incd	r14		
    13d8:	00 2f       	jc	$-510    	;abs 0x11da
    13da:	62 75       	subc.b	@r5,	r2	
    13dc:	69 6c       	addc.b	@r12,	r9	
    13de:	64 2f       	jc	$-310    	;abs 0x12a8
    13e0:	67 63       	addc.b	#2,	r7	;r3 As==10
    13e2:	63 2d       	jc	$+712    	;abs 0x16aa
    13e4:	6d 73       	subc.b	#2,	r13	;r3 As==10
    13e6:	70 34       	jge	$+226    	;abs 0x14c8
    13e8:	33 30       	jn	$+104    	;abs 0x1450
    13ea:	2d 67       	addc	@r7,	r13	
    13ec:	52 42 52 52 	mov.b	&0x5252,r2	
    13f0:	6f 2f       	jc	$-288    	;abs 0x12d0
    13f2:	67 63       	addc.b	#2,	r7	;r3 As==10
    13f4:	63 2d       	jc	$+712    	;abs 0x16bc
    13f6:	6d 73       	subc.b	#2,	r13	;r3 As==10
    13f8:	70 34       	jge	$+226    	;abs 0x14da
    13fa:	33 30       	jn	$+104    	;abs 0x1462
    13fc:	2d 34       	jge	$+92     	;abs 0x1458
    13fe:	2e 36       	jge	$-930    	;abs 0x105c
    1400:	2e 33       	jn	$-418    	;abs 0x125e
    1402:	7e 6d       	addc.b	@r13+,	r14	
    1404:	73 70       	.word	0x7073;	????	Illegal as 2-op instr
    1406:	67 63       	addc.b	#2,	r7	;r3 As==10
    1408:	63 2d       	jc	$+712    	;abs 0x16d0
    140a:	32 30       	jn	$+102    	;abs 0x1470
    140c:	31 32       	jn	$-924    	;abs 0x1070
    140e:	30 34       	jge	$+98     	;abs 0x1470
    1410:	30 36       	jge	$-926    	;abs 0x1072
    1412:	2f 62       	addc	#4,	r15	;r2 As==10
    1414:	75 69       	addc.b	@r9+,	r5	
    1416:	6c 64       	addc.b	@r4,	r12	
    1418:	2d 72       	subc	#4,	r13	;r2 As==10
    141a:	65 73       	subc.b	#2,	r5	;r3 As==10
    141c:	75 6c       	addc.b	@r12+,	r5	
    141e:	74 2f       	jc	$-278    	;abs 0x1308
    1420:	67 63       	addc.b	#2,	r7	;r3 As==10
    1422:	63 00       	.word	0x0063;	????	
    1424:	47 4e       	mov.b	r14,	r7	
    1426:	55 20       	jnz	$+172    	;abs 0x14d2
    1428:	41 53       	add.b	#0,	r1	;r3 As==00
    142a:	20 32       	jn	$-958    	;abs 0x106c
    142c:	2e 32       	jn	$-930    	;abs 0x108a
    142e:	31 2e       	jc	$-924    	;abs 0x1092
    1430:	31 00       	.word	0x0031;	????	
    1432:	01 80       	sub	r0,	r1	
    1434:	ca 00       	.word	0x00ca;	????	
    1436:	00 00       	.word	0x0000;	????	
    1438:	02 00       	.word	0x0002;	????	
    143a:	63 06       	.word	0x0663;	????	
    143c:	00 00       	.word	0x0000;	????	
    143e:	02 01       	.word	0x0102;	????	
    1440:	f6 08       	.word	0x08f6;	????	
    1442:	00 00       	.word	0x0000;	????	
    1444:	28 c0       	bic	@r0,	r8	
    1446:	3e c0 2f 62 	bic	#25135,	r14	;#0x622f
    144a:	75 69       	addc.b	@r9+,	r5	
    144c:	6c 64       	addc.b	@r4,	r12	
    144e:	2f 67       	addc	@r7,	r15	
    1450:	63 63       	.word	0x6363;	????	Illegal as 2-op instr
    1452:	2d 6d       	addc	@r13,	r13	
    1454:	73 70       	.word	0x7073;	????	Illegal as 2-op instr
    1456:	34 33       	jn	$-406    	;abs 0x12c0
    1458:	30 2d       	jc	$+610    	;abs 0x16ba
    145a:	67 52       	add.b	#4,	r7	;r2 As==10
    145c:	42 52       	rla.b	r2		
    145e:	52 6f 2f 67 	addc.b	26415(r15),r2	;0x672f(r15)
    1462:	63 63       	.word	0x6363;	????	Illegal as 2-op instr
    1464:	2d 6d       	addc	@r13,	r13	
    1466:	73 70       	.word	0x7073;	????	Illegal as 2-op instr
    1468:	34 33       	jn	$-406    	;abs 0x12d2
    146a:	30 2d       	jc	$+610    	;abs 0x16cc
    146c:	34 2e       	jc	$-918    	;abs 0x10d6
    146e:	36 2e       	jc	$-914    	;abs 0x10dc
    1470:	33 7e       	.word	0x7e33;	????	Illegal as 2-op instr
    1472:	6d 73       	subc.b	#2,	r13	;r3 As==10
    1474:	70 67       	addc.b	@r7+,	r0	
    1476:	63 63       	.word	0x6363;	????	Illegal as 2-op instr
    1478:	2d 32       	jn	$-932    	;abs 0x10d4
    147a:	30 31       	jn	$+610    	;abs 0x16dc
    147c:	32 30       	jn	$+102    	;abs 0x14e2
    147e:	34 30       	jn	$+106    	;abs 0x14e8
    1480:	36 2f       	jc	$-402    	;abs 0x12ee
    1482:	2e 2f       	jc	$-418    	;abs 0x12e0
    1484:	67 63       	addc.b	#2,	r7	;r3 As==10
    1486:	63 2d       	jc	$+712    	;abs 0x174e
    1488:	34 2e       	jc	$-918    	;abs 0x10f2
    148a:	36 2e       	jc	$-914    	;abs 0x10f8
    148c:	33 2f       	jc	$-408    	;abs 0x12f4
    148e:	67 63       	addc.b	#2,	r7	;r3 As==10
    1490:	63 2f       	jc	$-312    	;abs 0x1358
    1492:	63 6f       	.word	0x6f63;	????	Illegal as 2-op instr
    1494:	6e 66       	addc.b	@r6,	r14	
    1496:	69 67       	addc.b	@r7,	r9	
    1498:	2f 6d       	addc	@r13,	r15	
    149a:	73 70       	.word	0x7073;	????	Illegal as 2-op instr
    149c:	34 33       	jn	$-406    	;abs 0x1306
    149e:	30 2f       	jc	$-414    	;abs 0x1300
    14a0:	63 72       	.word	0x7263;	????	Illegal as 2-op instr
    14a2:	74 30       	jn	$+234    	;abs 0x158c
    14a4:	2e 53       	incd	r14		
    14a6:	00 2f       	jc	$-510    	;abs 0x12a8
    14a8:	62 75       	subc.b	@r5,	r2	
    14aa:	69 6c       	addc.b	@r12,	r9	
    14ac:	64 2f       	jc	$-310    	;abs 0x1376
    14ae:	67 63       	addc.b	#2,	r7	;r3 As==10
    14b0:	63 2d       	jc	$+712    	;abs 0x1778
    14b2:	6d 73       	subc.b	#2,	r13	;r3 As==10
    14b4:	70 34       	jge	$+226    	;abs 0x1596
    14b6:	33 30       	jn	$+104    	;abs 0x151e
    14b8:	2d 67       	addc	@r7,	r13	
    14ba:	52 42 52 52 	mov.b	&0x5252,r2	
    14be:	6f 2f       	jc	$-288    	;abs 0x139e
    14c0:	67 63       	addc.b	#2,	r7	;r3 As==10
    14c2:	63 2d       	jc	$+712    	;abs 0x178a
    14c4:	6d 73       	subc.b	#2,	r13	;r3 As==10
    14c6:	70 34       	jge	$+226    	;abs 0x15a8
    14c8:	33 30       	jn	$+104    	;abs 0x1530
    14ca:	2d 34       	jge	$+92     	;abs 0x1526
    14cc:	2e 36       	jge	$-930    	;abs 0x112a
    14ce:	2e 33       	jn	$-418    	;abs 0x132c
    14d0:	7e 6d       	addc.b	@r13+,	r14	
    14d2:	73 70       	.word	0x7073;	????	Illegal as 2-op instr
    14d4:	67 63       	addc.b	#2,	r7	;r3 As==10
    14d6:	63 2d       	jc	$+712    	;abs 0x179e
    14d8:	32 30       	jn	$+102    	;abs 0x153e
    14da:	31 32       	jn	$-924    	;abs 0x113e
    14dc:	30 34       	jge	$+98     	;abs 0x153e
    14de:	30 36       	jge	$-926    	;abs 0x1140
    14e0:	2f 62       	addc	#4,	r15	;r2 As==10
    14e2:	75 69       	addc.b	@r9+,	r5	
    14e4:	6c 64       	addc.b	@r4,	r12	
    14e6:	2d 72       	subc	#4,	r13	;r2 As==10
    14e8:	65 73       	subc.b	#2,	r5	;r3 As==10
    14ea:	75 6c       	addc.b	@r12+,	r5	
    14ec:	74 2f       	jc	$-278    	;abs 0x13d6
    14ee:	67 63       	addc.b	#2,	r7	;r3 As==10
    14f0:	63 00       	.word	0x0063;	????	
    14f2:	47 4e       	mov.b	r14,	r7	
    14f4:	55 20       	jnz	$+172    	;abs 0x15a0
    14f6:	41 53       	add.b	#0,	r1	;r3 As==00
    14f8:	20 32       	jn	$-958    	;abs 0x113a
    14fa:	2e 32       	jn	$-930    	;abs 0x1158
    14fc:	31 2e       	jc	$-924    	;abs 0x1160
    14fe:	31 00       	.word	0x0031;	????	
    1500:	01 80       	sub	r0,	r1	
    1502:	ca 00       	.word	0x00ca;	????	
    1504:	00 00       	.word	0x0000;	????	
    1506:	02 00       	.word	0x0002;	????	
    1508:	77 06       	.word	0x0677;	????	
    150a:	00 00       	.word	0x0000;	????	
    150c:	02 01       	.word	0x0102;	????	
    150e:	89 09       	.word	0x0989;	????	
    1510:	00 00       	.word	0x0000;	????	
    1512:	48 c1       	bic.b	r1,	r8	
    1514:	4e c1       	bic.b	r1,	r14	
    1516:	2f 62       	addc	#4,	r15	;r2 As==10
    1518:	75 69       	addc.b	@r9+,	r5	
    151a:	6c 64       	addc.b	@r4,	r12	
    151c:	2f 67       	addc	@r7,	r15	
    151e:	63 63       	.word	0x6363;	????	Illegal as 2-op instr
    1520:	2d 6d       	addc	@r13,	r13	
    1522:	73 70       	.word	0x7073;	????	Illegal as 2-op instr
    1524:	34 33       	jn	$-406    	;abs 0x138e
    1526:	30 2d       	jc	$+610    	;abs 0x1788
    1528:	67 52       	add.b	#4,	r7	;r2 As==10
    152a:	42 52       	rla.b	r2		
    152c:	52 6f 2f 67 	addc.b	26415(r15),r2	;0x672f(r15)
    1530:	63 63       	.word	0x6363;	????	Illegal as 2-op instr
    1532:	2d 6d       	addc	@r13,	r13	
    1534:	73 70       	.word	0x7073;	????	Illegal as 2-op instr
    1536:	34 33       	jn	$-406    	;abs 0x13a0
    1538:	30 2d       	jc	$+610    	;abs 0x179a
    153a:	34 2e       	jc	$-918    	;abs 0x11a4
    153c:	36 2e       	jc	$-914    	;abs 0x11aa
    153e:	33 7e       	.word	0x7e33;	????	Illegal as 2-op instr
    1540:	6d 73       	subc.b	#2,	r13	;r3 As==10
    1542:	70 67       	addc.b	@r7+,	r0	
    1544:	63 63       	.word	0x6363;	????	Illegal as 2-op instr
    1546:	2d 32       	jn	$-932    	;abs 0x11a2
    1548:	30 31       	jn	$+610    	;abs 0x17aa
    154a:	32 30       	jn	$+102    	;abs 0x15b0
    154c:	34 30       	jn	$+106    	;abs 0x15b6
    154e:	36 2f       	jc	$-402    	;abs 0x13bc
    1550:	2e 2f       	jc	$-418    	;abs 0x13ae
    1552:	67 63       	addc.b	#2,	r7	;r3 As==10
    1554:	63 2d       	jc	$+712    	;abs 0x181c
    1556:	34 2e       	jc	$-918    	;abs 0x11c0
    1558:	36 2e       	jc	$-914    	;abs 0x11c6
    155a:	33 2f       	jc	$-408    	;abs 0x13c2
    155c:	67 63       	addc.b	#2,	r7	;r3 As==10
    155e:	63 2f       	jc	$-312    	;abs 0x1426
    1560:	63 6f       	.word	0x6f63;	????	Illegal as 2-op instr
    1562:	6e 66       	addc.b	@r6,	r14	
    1564:	69 67       	addc.b	@r7,	r9	
    1566:	2f 6d       	addc	@r13,	r15	
    1568:	73 70       	.word	0x7073;	????	Illegal as 2-op instr
    156a:	34 33       	jn	$-406    	;abs 0x13d4
    156c:	30 2f       	jc	$-414    	;abs 0x13ce
    156e:	63 72       	.word	0x7263;	????	Illegal as 2-op instr
    1570:	74 30       	jn	$+234    	;abs 0x165a
    1572:	2e 53       	incd	r14		
    1574:	00 2f       	jc	$-510    	;abs 0x1376
    1576:	62 75       	subc.b	@r5,	r2	
    1578:	69 6c       	addc.b	@r12,	r9	
    157a:	64 2f       	jc	$-310    	;abs 0x1444
    157c:	67 63       	addc.b	#2,	r7	;r3 As==10
    157e:	63 2d       	jc	$+712    	;abs 0x1846
    1580:	6d 73       	subc.b	#2,	r13	;r3 As==10
    1582:	70 34       	jge	$+226    	;abs 0x1664
    1584:	33 30       	jn	$+104    	;abs 0x15ec
    1586:	2d 67       	addc	@r7,	r13	
    1588:	52 42 52 52 	mov.b	&0x5252,r2	
    158c:	6f 2f       	jc	$-288    	;abs 0x146c
    158e:	67 63       	addc.b	#2,	r7	;r3 As==10
    1590:	63 2d       	jc	$+712    	;abs 0x1858
    1592:	6d 73       	subc.b	#2,	r13	;r3 As==10
    1594:	70 34       	jge	$+226    	;abs 0x1676
    1596:	33 30       	jn	$+104    	;abs 0x15fe
    1598:	2d 34       	jge	$+92     	;abs 0x15f4
    159a:	2e 36       	jge	$-930    	;abs 0x11f8
    159c:	2e 33       	jn	$-418    	;abs 0x13fa
    159e:	7e 6d       	addc.b	@r13+,	r14	
    15a0:	73 70       	.word	0x7073;	????	Illegal as 2-op instr
    15a2:	67 63       	addc.b	#2,	r7	;r3 As==10
    15a4:	63 2d       	jc	$+712    	;abs 0x186c
    15a6:	32 30       	jn	$+102    	;abs 0x160c
    15a8:	31 32       	jn	$-924    	;abs 0x120c
    15aa:	30 34       	jge	$+98     	;abs 0x160c
    15ac:	30 36       	jge	$-926    	;abs 0x120e
    15ae:	2f 62       	addc	#4,	r15	;r2 As==10
    15b0:	75 69       	addc.b	@r9+,	r5	
    15b2:	6c 64       	addc.b	@r4,	r12	
    15b4:	2d 72       	subc	#4,	r13	;r2 As==10
    15b6:	65 73       	subc.b	#2,	r5	;r3 As==10
    15b8:	75 6c       	addc.b	@r12+,	r5	
    15ba:	74 2f       	jc	$-278    	;abs 0x14a4
    15bc:	67 63       	addc.b	#2,	r7	;r3 As==10
    15be:	63 00       	.word	0x0063;	????	
    15c0:	47 4e       	mov.b	r14,	r7	
    15c2:	55 20       	jnz	$+172    	;abs 0x166e
    15c4:	41 53       	add.b	#0,	r1	;r3 As==00
    15c6:	20 32       	jn	$-958    	;abs 0x1208
    15c8:	2e 32       	jn	$-930    	;abs 0x1226
    15ca:	31 2e       	jc	$-924    	;abs 0x122e
    15cc:	31 00       	.word	0x0031;	????	
    15ce:	01 80       	sub	r0,	r1	
    15d0:	ca 00       	.word	0x00ca;	????	
    15d2:	00 00       	.word	0x0000;	????	
    15d4:	02 00       	.word	0x0002;	????	
    15d6:	8b 06       	.word	0x068b;	????	
    15d8:	00 00       	.word	0x0000;	????	
    15da:	02 01       	.word	0x0102;	????	
    15dc:	17 0a       	.word	0x0a17;	????	
    15de:	00 00       	.word	0x0000;	????	
    15e0:	42 cb       	bic.b	r11,	r2	
    15e2:	44 cb       	bic.b	r11,	r4	
    15e4:	2f 62       	addc	#4,	r15	;r2 As==10
    15e6:	75 69       	addc.b	@r9+,	r5	
    15e8:	6c 64       	addc.b	@r4,	r12	
    15ea:	2f 67       	addc	@r7,	r15	
    15ec:	63 63       	.word	0x6363;	????	Illegal as 2-op instr
    15ee:	2d 6d       	addc	@r13,	r13	
    15f0:	73 70       	.word	0x7073;	????	Illegal as 2-op instr
    15f2:	34 33       	jn	$-406    	;abs 0x145c
    15f4:	30 2d       	jc	$+610    	;abs 0x1856
    15f6:	67 52       	add.b	#4,	r7	;r2 As==10
    15f8:	42 52       	rla.b	r2		
    15fa:	52 6f 2f 67 	addc.b	26415(r15),r2	;0x672f(r15)
    15fe:	63 63       	.word	0x6363;	????	Illegal as 2-op instr
    1600:	2d 6d       	addc	@r13,	r13	
    1602:	73 70       	.word	0x7073;	????	Illegal as 2-op instr
    1604:	34 33       	jn	$-406    	;abs 0x146e
    1606:	30 2d       	jc	$+610    	;abs 0x1868
    1608:	34 2e       	jc	$-918    	;abs 0x1272
    160a:	36 2e       	jc	$-914    	;abs 0x1278
    160c:	33 7e       	.word	0x7e33;	????	Illegal as 2-op instr
    160e:	6d 73       	subc.b	#2,	r13	;r3 As==10
    1610:	70 67       	addc.b	@r7+,	r0	
    1612:	63 63       	.word	0x6363;	????	Illegal as 2-op instr
    1614:	2d 32       	jn	$-932    	;abs 0x1270
    1616:	30 31       	jn	$+610    	;abs 0x1878
    1618:	32 30       	jn	$+102    	;abs 0x167e
    161a:	34 30       	jn	$+106    	;abs 0x1684
    161c:	36 2f       	jc	$-402    	;abs 0x148a
    161e:	2e 2f       	jc	$-418    	;abs 0x147c
    1620:	67 63       	addc.b	#2,	r7	;r3 As==10
    1622:	63 2d       	jc	$+712    	;abs 0x18ea
    1624:	34 2e       	jc	$-918    	;abs 0x128e
    1626:	36 2e       	jc	$-914    	;abs 0x1294
    1628:	33 2f       	jc	$-408    	;abs 0x1490
    162a:	67 63       	addc.b	#2,	r7	;r3 As==10
    162c:	63 2f       	jc	$-312    	;abs 0x14f4
    162e:	63 6f       	.word	0x6f63;	????	Illegal as 2-op instr
    1630:	6e 66       	addc.b	@r6,	r14	
    1632:	69 67       	addc.b	@r7,	r9	
    1634:	2f 6d       	addc	@r13,	r15	
    1636:	73 70       	.word	0x7073;	????	Illegal as 2-op instr
    1638:	34 33       	jn	$-406    	;abs 0x14a2
    163a:	30 2f       	jc	$-414    	;abs 0x149c
    163c:	63 72       	.word	0x7263;	????	Illegal as 2-op instr
    163e:	74 30       	jn	$+234    	;abs 0x1728
    1640:	2e 53       	incd	r14		
    1642:	00 2f       	jc	$-510    	;abs 0x1444
    1644:	62 75       	subc.b	@r5,	r2	
    1646:	69 6c       	addc.b	@r12,	r9	
    1648:	64 2f       	jc	$-310    	;abs 0x1512
    164a:	67 63       	addc.b	#2,	r7	;r3 As==10
    164c:	63 2d       	jc	$+712    	;abs 0x1914
    164e:	6d 73       	subc.b	#2,	r13	;r3 As==10
    1650:	70 34       	jge	$+226    	;abs 0x1732
    1652:	33 30       	jn	$+104    	;abs 0x16ba
    1654:	2d 67       	addc	@r7,	r13	
    1656:	52 42 52 52 	mov.b	&0x5252,r2	
    165a:	6f 2f       	jc	$-288    	;abs 0x153a
    165c:	67 63       	addc.b	#2,	r7	;r3 As==10
    165e:	63 2d       	jc	$+712    	;abs 0x1926
    1660:	6d 73       	subc.b	#2,	r13	;r3 As==10
    1662:	70 34       	jge	$+226    	;abs 0x1744
    1664:	33 30       	jn	$+104    	;abs 0x16cc
    1666:	2d 34       	jge	$+92     	;abs 0x16c2
    1668:	2e 36       	jge	$-930    	;abs 0x12c6
    166a:	2e 33       	jn	$-418    	;abs 0x14c8
    166c:	7e 6d       	addc.b	@r13+,	r14	
    166e:	73 70       	.word	0x7073;	????	Illegal as 2-op instr
    1670:	67 63       	addc.b	#2,	r7	;r3 As==10
    1672:	63 2d       	jc	$+712    	;abs 0x193a
    1674:	32 30       	jn	$+102    	;abs 0x16da
    1676:	31 32       	jn	$-924    	;abs 0x12da
    1678:	30 34       	jge	$+98     	;abs 0x16da
    167a:	30 36       	jge	$-926    	;abs 0x12dc
    167c:	2f 62       	addc	#4,	r15	;r2 As==10
    167e:	75 69       	addc.b	@r9+,	r5	
    1680:	6c 64       	addc.b	@r4,	r12	
    1682:	2d 72       	subc	#4,	r13	;r2 As==10
    1684:	65 73       	subc.b	#2,	r5	;r3 As==10
    1686:	75 6c       	addc.b	@r12+,	r5	
    1688:	74 2f       	jc	$-278    	;abs 0x1572
    168a:	67 63       	addc.b	#2,	r7	;r3 As==10
    168c:	63 00       	.word	0x0063;	????	
    168e:	47 4e       	mov.b	r14,	r7	
    1690:	55 20       	jnz	$+172    	;abs 0x173c
    1692:	41 53       	add.b	#0,	r1	;r3 As==00
    1694:	20 32       	jn	$-958    	;abs 0x12d6
    1696:	2e 32       	jn	$-930    	;abs 0x12f4
    1698:	31 2e       	jc	$-924    	;abs 0x12fc
    169a:	31 00       	.word	0x0031;	????	
    169c:	01 80       	sub	r0,	r1	

Disassembly of section .debug_abbrev:

00000000 <.debug_abbrev>:
   0:	01 11       	rra	r1		
   2:	01 25       	jz	$+516    	;abs 0x206
   4:	0e 13       	reti			;return from interupt
   6:	0b 03       	.word	0x030b;	????	
   8:	0e 1b       	.word	0x1b0e;	????	
   a:	0e 11       	rra	r14		
   c:	01 52       	add	r2,	r1	
   e:	01 55       	add	r5,	r1	
  10:	06 10       	rrc	r6		
  12:	06 00       	.word	0x0006;	????	
  14:	00 02       	.word	0x0200;	????	
  16:	24 00       	.word	0x0024;	????	
  18:	0b 0b       	.word	0x0b0b;	????	
  1a:	3e 0b       	.word	0x0b3e;	????	
  1c:	03 0e       	.word	0x0e03;	????	
  1e:	00 00       	.word	0x0000;	????	
  20:	03 24       	jz	$+8      	;abs 0x28
  22:	00 0b       	.word	0x0b00;	????	
  24:	0b 3e       	jmp	$-1000   	;abs 0xfc3c
  26:	0b 03       	.word	0x030b;	????	
  28:	08 00       	.word	0x0008;	????	
  2a:	00 04       	.word	0x0400;	????	
  2c:	0f 00       	.word	0x000f;	????	
  2e:	0b 0b       	.word	0x0b0b;	????	
  30:	49 13       	.word	0x1349;	????	
  32:	00 00       	.word	0x0000;	????	
  34:	05 26       	jz	$-1012   	;abs 0xfc40
  36:	00 49       	br	r9		
  38:	13 00       	.word	0x0013;	????	
  3a:	00 06       	.word	0x0600;	????	
  3c:	13 01       	.word	0x0113;	????	
  3e:	0b 0b       	.word	0x0b0b;	????	
  40:	3a 0b       	.word	0x0b3a;	????	
  42:	3b 0b       	.word	0x0b3b;	????	
  44:	01 13       	reti			;return from interupt
  46:	00 00       	.word	0x0000;	????	
  48:	07 0d       	.word	0x0d07;	????	
  4a:	00 03       	.word	0x0300;	????	
  4c:	08 3a       	jl	$-1006   	;abs 0xfc5e
  4e:	0b 3b       	jl	$-488    	;abs 0xfe66
  50:	0b 49       	mov	r9,	r11	
  52:	13 38       	jl	$+40     	;abs 0x7a
  54:	0a 00       	.word	0x000a;	????	
  56:	00 08       	.word	0x0800;	????	
  58:	01 01       	.word	0x0101;	????	
  5a:	49 13       	.word	0x1349;	????	
  5c:	01 13       	reti			;return from interupt
  5e:	00 00       	.word	0x0000;	????	
  60:	09 21       	jnz	$+532    	;abs 0x274
  62:	00 49       	br	r9		
  64:	13 2f       	jc	$-472    	;abs 0xfe8c
  66:	0b 00       	.word	0x000b;	????	
  68:	00 0a       	.word	0x0a00;	????	
  6a:	16 00       	.word	0x0016;	????	
  6c:	03 0e       	.word	0x0e03;	????	
  6e:	3a 0b       	.word	0x0b3a;	????	
  70:	3b 0b       	.word	0x0b3b;	????	
  72:	49 13       	.word	0x1349;	????	
  74:	00 00       	.word	0x0000;	????	
  76:	0b 0d       	.word	0x0d0b;	????	
  78:	00 03       	.word	0x0300;	????	
  7a:	0e 3a       	jl	$-994    	;abs 0xfc98
  7c:	0b 3b       	jl	$-488    	;abs 0xfe94
  7e:	0b 49       	mov	r9,	r11	
  80:	13 38       	jl	$+40     	;abs 0xa8
  82:	0a 00       	.word	0x000a;	????	
  84:	00 0c       	.word	0x0c00;	????	
  86:	15 01       	.word	0x0115;	????	
  88:	27 0c       	.word	0x0c27;	????	
  8a:	49 13       	.word	0x1349;	????	
  8c:	01 13       	reti			;return from interupt
  8e:	00 00       	.word	0x0000;	????	
  90:	0d 05       	.word	0x050d;	????	
  92:	00 49       	br	r9		
  94:	13 00       	.word	0x0013;	????	
  96:	00 0e       	.word	0x0e00;	????	
  98:	21 00       	.word	0x0021;	????	
  9a:	49 13       	.word	0x1349;	????	
  9c:	00 00       	.word	0x0000;	????	
  9e:	0f 13       	reti			;return from interupt
  a0:	01 03       	.word	0x0301;	????	
  a2:	0e 0b       	.word	0x0b0e;	????	
  a4:	0b 3a       	jl	$-1000   	;abs 0xfcbc
  a6:	0b 3b       	jl	$-488    	;abs 0xfebe
  a8:	0b 01       	.word	0x010b;	????	
  aa:	13 00       	.word	0x0013;	????	
  ac:	00 10       	rrc	r0		
  ae:	2e 01       	.word	0x012e;	????	
  b0:	3f 0c       	.word	0x0c3f;	????	
  b2:	03 0e       	.word	0x0e03;	????	
  b4:	3a 0b       	.word	0x0b3a;	????	
  b6:	3b 0b       	.word	0x0b3b;	????	
  b8:	27 0c       	.word	0x0c27;	????	
  ba:	49 13       	.word	0x1349;	????	
  bc:	20 0b       	.word	0x0b20;	????	
  be:	01 13       	reti			;return from interupt
  c0:	00 00       	.word	0x0000;	????	
  c2:	11 05       	.word	0x0511;	????	
  c4:	00 03       	.word	0x0300;	????	
  c6:	0e 3a       	jl	$-994    	;abs 0xfce4
  c8:	0b 3b       	jl	$-488    	;abs 0xfee0
  ca:	0b 49       	mov	r9,	r11	
  cc:	13 00       	.word	0x0013;	????	
  ce:	00 12       	push	r0		
  d0:	2e 01       	.word	0x012e;	????	
  d2:	3f 0c       	.word	0x0c3f;	????	
  d4:	03 0e       	.word	0x0e03;	????	
  d6:	3a 0b       	.word	0x0b3a;	????	
  d8:	3b 0b       	.word	0x0b3b;	????	
  da:	27 0c       	.word	0x0c27;	????	
  dc:	49 13       	.word	0x1349;	????	
  de:	11 01       	.word	0x0111;	????	
  e0:	12 01       	.word	0x0112;	????	
  e2:	40 06       	.word	0x0640;	????	
  e4:	01 13       	reti			;return from interupt
  e6:	00 00       	.word	0x0000;	????	
  e8:	13 05       	.word	0x0513;	????	
  ea:	00 03       	.word	0x0300;	????	
  ec:	0e 3a       	jl	$-994    	;abs 0xfd0a
  ee:	0b 3b       	jl	$-488    	;abs 0xff06
  f0:	0b 49       	mov	r9,	r11	
  f2:	13 02       	.word	0x0213;	????	
  f4:	06 00       	.word	0x0006;	????	
  f6:	00 14       	.word	0x1400;	????	
  f8:	34 00       	.word	0x0034;	????	
  fa:	03 08       	.word	0x0803;	????	
  fc:	3a 0b       	.word	0x0b3a;	????	
  fe:	3b 0b       	.word	0x0b3b;	????	
 100:	49 13       	.word	0x1349;	????	
 102:	02 06       	.word	0x0602;	????	
 104:	00 00       	.word	0x0000;	????	
 106:	15 2e       	jc	$-980    	;abs 0xfd32
 108:	01 31       	jn	$+516    	;abs 0x30c
 10a:	13 11       	rra	#1		;r3 As==01
 10c:	01 12       	push	r1		
 10e:	01 40       	mov	r0,	r1	
 110:	06 01       	.word	0x0106;	????	
 112:	13 00       	.word	0x0013;	????	
 114:	00 16       	.word	0x1600;	????	
 116:	05 00       	.word	0x0005;	????	
 118:	31 13       	reti			;return from interupt
 11a:	02 06       	.word	0x0602;	????	
 11c:	00 00       	.word	0x0000;	????	
 11e:	17 1d       	.word	0x1d17;	????	
 120:	01 31       	jn	$+516    	;abs 0x324
 122:	13 11       	rra	#1		;r3 As==01
 124:	01 12       	push	r1		
 126:	01 58       	add	r8,	r1	
 128:	0b 59       	add	r9,	r11	
 12a:	0b 00       	.word	0x000b;	????	
 12c:	00 18       	.word	0x1800;	????	
 12e:	0b 01       	.word	0x010b;	????	
 130:	11 01       	.word	0x0111;	????	
 132:	12 01       	.word	0x0112;	????	
 134:	00 00       	.word	0x0000;	????	
 136:	19 05       	.word	0x0519;	????	
 138:	00 31       	jn	$+514    	;abs 0x33a
 13a:	13 00       	.word	0x0013;	????	
 13c:	00 1a       	.word	0x1a00;	????	
 13e:	2e 01       	.word	0x012e;	????	
 140:	3f 0c       	.word	0x0c3f;	????	
 142:	03 0e       	.word	0x0e03;	????	
 144:	3a 0b       	.word	0x0b3a;	????	
 146:	3b 0b       	.word	0x0b3b;	????	
 148:	27 0c       	.word	0x0c27;	????	
 14a:	49 13       	.word	0x1349;	????	
 14c:	11 01       	.word	0x0111;	????	
 14e:	12 01       	.word	0x0112;	????	
 150:	40 0a       	.word	0x0a40;	????	
 152:	01 13       	reti			;return from interupt
 154:	00 00       	.word	0x0000;	????	
 156:	1b 2e       	jc	$-968    	;abs 0xfd8e
 158:	00 3f       	jmp	$-510    	;abs 0xff5a
 15a:	0c 03       	.word	0x030c;	????	
 15c:	0e 3a       	jl	$-994    	;abs 0xfd7a
 15e:	0b 3b       	jl	$-488    	;abs 0xff76
 160:	05 27       	jz	$-500    	;abs 0xff6c
 162:	0c 11       	rra	r12		
 164:	01 12       	push	r1		
 166:	01 40       	mov	r0,	r1	
 168:	06 00       	.word	0x0006;	????	
 16a:	00 1c       	.word	0x1c00;	????	
 16c:	34 00       	.word	0x0034;	????	
 16e:	03 0e       	.word	0x0e03;	????	
 170:	3a 0b       	.word	0x0b3a;	????	
 172:	3b 05       	.word	0x053b;	????	
 174:	87 40 0e 49 	mov	r0,	18702(r7);0x490e(r7)
 178:	13 3f       	jmp	$-472    	;abs 0xffa0
 17a:	0c 3c       	jmp	$+26     	;abs 0x194
 17c:	0c 00       	.word	0x000c;	????	
 17e:	00 1d       	.word	0x1d00;	????	
 180:	35 00       	.word	0x0035;	????	
 182:	49 13       	.word	0x1349;	????	
 184:	00 00       	.word	0x0000;	????	
 186:	1e 34       	jge	$+62     	;abs 0x1c4
 188:	00 03       	.word	0x0300;	????	
 18a:	0e 3a       	jl	$-994    	;abs 0xfda8
 18c:	0b 3b       	jl	$-488    	;abs 0xffa4
 18e:	0b 49       	mov	r9,	r11	
 190:	13 3f       	jmp	$-472    	;abs 0xffb8
 192:	0c 02       	.word	0x020c;	????	
 194:	0a 00       	.word	0x000a;	????	
 196:	00 1f       	.word	0x1f00;	????	
 198:	34 00       	.word	0x0034;	????	
 19a:	03 08       	.word	0x0803;	????	
 19c:	3a 0b       	.word	0x0b3a;	????	
 19e:	3b 0b       	.word	0x0b3b;	????	
 1a0:	49 13       	.word	0x1349;	????	
 1a2:	3f 0c       	.word	0x0c3f;	????	
 1a4:	02 0a       	.word	0x0a02;	????	
 1a6:	00 00       	.word	0x0000;	????	
 1a8:	00 01       	.word	0x0100;	????	
 1aa:	11 01       	.word	0x0111;	????	
 1ac:	25 0e       	.word	0x0e25;	????	
 1ae:	13 0b       	.word	0x0b13;	????	
 1b0:	03 0e       	.word	0x0e03;	????	
 1b2:	1b 0e       	.word	0x0e1b;	????	
 1b4:	11 01       	.word	0x0111;	????	
 1b6:	12 01       	.word	0x0112;	????	
 1b8:	10 06       	.word	0x0610;	????	
 1ba:	00 00       	.word	0x0000;	????	
 1bc:	02 13       	reti			;return from interupt
 1be:	01 0b       	.word	0x0b01;	????	
 1c0:	0b 3a       	jl	$-1000   	;abs 0xfdd8
 1c2:	0b 3b       	jl	$-488    	;abs 0xffda
 1c4:	0b 01       	.word	0x010b;	????	
 1c6:	13 00       	.word	0x0013;	????	
 1c8:	00 03       	.word	0x0300;	????	
 1ca:	0d 00       	.word	0x000d;	????	
 1cc:	03 08       	.word	0x0803;	????	
 1ce:	3a 0b       	.word	0x0b3a;	????	
 1d0:	3b 0b       	.word	0x0b3b;	????	
 1d2:	49 13       	.word	0x1349;	????	
 1d4:	38 0a       	.word	0x0a38;	????	
 1d6:	00 00       	.word	0x0000;	????	
 1d8:	04 01       	.word	0x0104;	????	
 1da:	01 49       	mov	r9,	r1	
 1dc:	13 01       	.word	0x0113;	????	
 1de:	13 00       	.word	0x0013;	????	
 1e0:	00 05       	.word	0x0500;	????	
 1e2:	21 00       	.word	0x0021;	????	
 1e4:	49 13       	.word	0x1349;	????	
 1e6:	2f 0b       	.word	0x0b2f;	????	
 1e8:	00 00       	.word	0x0000;	????	
 1ea:	06 24       	jz	$+14     	;abs 0x1f8
 1ec:	00 0b       	.word	0x0b00;	????	
 1ee:	0b 3e       	jmp	$-1000   	;abs 0xfe06
 1f0:	0b 03       	.word	0x030b;	????	
 1f2:	0e 00       	.word	0x000e;	????	
 1f4:	00 07       	.word	0x0700;	????	
 1f6:	16 00       	.word	0x0016;	????	
 1f8:	03 0e       	.word	0x0e03;	????	
 1fa:	3a 0b       	.word	0x0b3a;	????	
 1fc:	3b 0b       	.word	0x0b3b;	????	
 1fe:	49 13       	.word	0x1349;	????	
 200:	00 00       	.word	0x0000;	????	
 202:	08 0d       	.word	0x0d08;	????	
 204:	00 03       	.word	0x0300;	????	
 206:	0e 3a       	jl	$-994    	;abs 0xfe24
 208:	0b 3b       	jl	$-488    	;abs 0x20
 20a:	0b 49       	mov	r9,	r11	
 20c:	13 38       	jl	$+40     	;abs 0x234
 20e:	0a 00       	.word	0x000a;	????	
 210:	00 09       	.word	0x0900;	????	
 212:	0f 00       	.word	0x000f;	????	
 214:	0b 0b       	.word	0x0b0b;	????	
 216:	49 13       	.word	0x1349;	????	
 218:	00 00       	.word	0x0000;	????	
 21a:	0a 26       	jz	$-1002   	;abs 0xfe30
 21c:	00 49       	br	r9		
 21e:	13 00       	.word	0x0013;	????	
 220:	00 0b       	.word	0x0b00;	????	
 222:	15 01       	.word	0x0115;	????	
 224:	27 0c       	.word	0x0c27;	????	
 226:	49 13       	.word	0x1349;	????	
 228:	01 13       	reti			;return from interupt
 22a:	00 00       	.word	0x0000;	????	
 22c:	0c 05       	.word	0x050c;	????	
 22e:	00 49       	br	r9		
 230:	13 00       	.word	0x0013;	????	
 232:	00 0d       	.word	0x0d00;	????	
 234:	24 00       	.word	0x0024;	????	
 236:	0b 0b       	.word	0x0b0b;	????	
 238:	3e 0b       	.word	0x0b3e;	????	
 23a:	03 08       	.word	0x0803;	????	
 23c:	00 00       	.word	0x0000;	????	
 23e:	0e 21       	jnz	$+542    	;abs 0x45c
 240:	00 49       	br	r9		
 242:	13 00       	.word	0x0013;	????	
 244:	00 0f       	.word	0x0f00;	????	
 246:	2e 01       	.word	0x012e;	????	
 248:	3f 0c       	.word	0x0c3f;	????	
 24a:	03 0e       	.word	0x0e03;	????	
 24c:	3a 0b       	.word	0x0b3a;	????	
 24e:	3b 0b       	.word	0x0b3b;	????	
 250:	27 0c       	.word	0x0c27;	????	
 252:	49 13       	.word	0x1349;	????	
 254:	11 01       	.word	0x0111;	????	
 256:	12 01       	.word	0x0112;	????	
 258:	40 0a       	.word	0x0a40;	????	
 25a:	01 13       	reti			;return from interupt
 25c:	00 00       	.word	0x0000;	????	
 25e:	10 05       	.word	0x0510;	????	
 260:	00 03       	.word	0x0300;	????	
 262:	08 3a       	jl	$-1006   	;abs 0xfe74
 264:	0b 3b       	jl	$-488    	;abs 0x7c
 266:	0b 49       	mov	r9,	r11	
 268:	13 02       	.word	0x0213;	????	
 26a:	06 00       	.word	0x0006;	????	
 26c:	00 11       	rra	r0		
 26e:	34 00       	.word	0x0034;	????	
 270:	03 08       	.word	0x0803;	????	
 272:	3a 0b       	.word	0x0b3a;	????	
 274:	3b 0b       	.word	0x0b3b;	????	
 276:	49 13       	.word	0x1349;	????	
 278:	02 06       	.word	0x0602;	????	
 27a:	00 00       	.word	0x0000;	????	
 27c:	12 2e       	jc	$-986    	;abs 0xfea2
 27e:	01 3f       	jmp	$-508    	;abs 0x82
 280:	0c 03       	.word	0x030c;	????	
 282:	0e 3a       	jl	$-994    	;abs 0xfea0
 284:	0b 3b       	jl	$-488    	;abs 0x9c
 286:	0b 27       	jz	$-488    	;abs 0x9e
 288:	0c 49       	mov	r9,	r12	
 28a:	13 11       	rra	#1		;r3 As==01
 28c:	01 12       	push	r1		
 28e:	01 40       	mov	r0,	r1	
 290:	06 01       	.word	0x0106;	????	
 292:	13 00       	.word	0x0013;	????	
 294:	00 13       	reti			
 296:	05 00       	.word	0x0005;	????	
 298:	03 0e       	.word	0x0e03;	????	
 29a:	3a 0b       	.word	0x0b3a;	????	
 29c:	3b 0b       	.word	0x0b3b;	????	
 29e:	49 13       	.word	0x1349;	????	
 2a0:	02 06       	.word	0x0602;	????	
 2a2:	00 00       	.word	0x0000;	????	
 2a4:	14 05       	.word	0x0514;	????	
 2a6:	00 03       	.word	0x0300;	????	
 2a8:	0e 3a       	jl	$-994    	;abs 0xfec6
 2aa:	0b 3b       	jl	$-488    	;abs 0xc2
 2ac:	0b 49       	mov	r9,	r11	
 2ae:	13 02       	.word	0x0213;	????	
 2b0:	0a 00       	.word	0x000a;	????	
 2b2:	00 15       	.word	0x1500;	????	
 2b4:	05 00       	.word	0x0005;	????	
 2b6:	03 08       	.word	0x0803;	????	
 2b8:	3a 0b       	.word	0x0b3a;	????	
 2ba:	3b 0b       	.word	0x0b3b;	????	
 2bc:	49 13       	.word	0x1349;	????	
 2be:	02 0a       	.word	0x0a02;	????	
 2c0:	00 00       	.word	0x0000;	????	
 2c2:	16 34       	jge	$+46     	;abs 0x2f0
 2c4:	00 03       	.word	0x0300;	????	
 2c6:	0e 3a       	jl	$-994    	;abs 0xfee4
 2c8:	0b 3b       	jl	$-488    	;abs 0xe0
 2ca:	0b 49       	mov	r9,	r11	
 2cc:	13 02       	.word	0x0213;	????	
 2ce:	06 00       	.word	0x0006;	????	
 2d0:	00 17       	.word	0x1700;	????	
 2d2:	34 00       	.word	0x0034;	????	
 2d4:	03 0e       	.word	0x0e03;	????	
 2d6:	3a 0b       	.word	0x0b3a;	????	
 2d8:	3b 0b       	.word	0x0b3b;	????	
 2da:	49 13       	.word	0x1349;	????	
 2dc:	02 0a       	.word	0x0a02;	????	
 2de:	00 00       	.word	0x0000;	????	
 2e0:	00 01       	.word	0x0100;	????	
 2e2:	11 01       	.word	0x0111;	????	
 2e4:	25 0e       	.word	0x0e25;	????	
 2e6:	13 0b       	.word	0x0b13;	????	
 2e8:	03 0e       	.word	0x0e03;	????	
 2ea:	1b 0e       	.word	0x0e1b;	????	
 2ec:	11 01       	.word	0x0111;	????	
 2ee:	12 01       	.word	0x0112;	????	
 2f0:	10 06       	.word	0x0610;	????	
 2f2:	00 00       	.word	0x0000;	????	
 2f4:	02 16       	.word	0x1602;	????	
 2f6:	00 03       	.word	0x0300;	????	
 2f8:	0e 3a       	jl	$-994    	;abs 0xff16
 2fa:	0b 3b       	jl	$-488    	;abs 0x112
 2fc:	0b 49       	mov	r9,	r11	
 2fe:	13 00       	.word	0x0013;	????	
 300:	00 03       	.word	0x0300;	????	
 302:	0f 00       	.word	0x000f;	????	
 304:	0b 0b       	.word	0x0b0b;	????	
 306:	03 0e       	.word	0x0e03;	????	
 308:	00 00       	.word	0x0000;	????	
 30a:	04 2e       	jc	$-1014   	;abs 0xff14
 30c:	01 03       	.word	0x0301;	????	
 30e:	0e 3a       	jl	$-994    	;abs 0xff2c
 310:	0b 3b       	jl	$-488    	;abs 0x128
 312:	0b 27       	jz	$-488    	;abs 0x12a
 314:	0c 11       	rra	r12		
 316:	01 12       	push	r1		
 318:	01 40       	mov	r0,	r1	
 31a:	06 01       	.word	0x0106;	????	
 31c:	13 00       	.word	0x0013;	????	
 31e:	00 05       	.word	0x0500;	????	
 320:	05 00       	.word	0x0005;	????	
 322:	03 08       	.word	0x0803;	????	
 324:	3a 0b       	.word	0x0b3a;	????	
 326:	3b 0b       	.word	0x0b3b;	????	
 328:	49 13       	.word	0x1349;	????	
 32a:	02 06       	.word	0x0602;	????	
 32c:	00 00       	.word	0x0000;	????	
 32e:	06 34       	jge	$+14     	;abs 0x33c
 330:	00 03       	.word	0x0300;	????	
 332:	08 3a       	jl	$-1006   	;abs 0xff44
 334:	0b 3b       	jl	$-488    	;abs 0x14c
 336:	0b 49       	mov	r9,	r11	
 338:	13 02       	.word	0x0213;	????	
 33a:	06 00       	.word	0x0006;	????	
 33c:	00 07       	.word	0x0700;	????	
 33e:	24 00       	.word	0x0024;	????	
 340:	0b 0b       	.word	0x0b0b;	????	
 342:	3e 0b       	.word	0x0b3e;	????	
 344:	03 0e       	.word	0x0e03;	????	
 346:	00 00       	.word	0x0000;	????	
 348:	08 0f       	.word	0x0f08;	????	
 34a:	00 0b       	.word	0x0b00;	????	
 34c:	0b 49       	mov	r9,	r11	
 34e:	13 00       	.word	0x0013;	????	
 350:	00 09       	.word	0x0900;	????	
 352:	26 00       	.word	0x0026;	????	
 354:	49 13       	.word	0x1349;	????	
 356:	00 00       	.word	0x0000;	????	
 358:	0a 2e       	jc	$-1002   	;abs 0xff6e
 35a:	01 03       	.word	0x0301;	????	
 35c:	0e 3a       	jl	$-994    	;abs 0xff7a
 35e:	0b 3b       	jl	$-488    	;abs 0x176
 360:	0b 27       	jz	$-488    	;abs 0x178
 362:	0c 11       	rra	r12		
 364:	01 12       	push	r1		
 366:	01 40       	mov	r0,	r1	
 368:	0a 01       	.word	0x010a;	????	
 36a:	13 00       	.word	0x0013;	????	
 36c:	00 0b       	.word	0x0b00;	????	
 36e:	34 00       	.word	0x0034;	????	
 370:	03 08       	.word	0x0803;	????	
 372:	3a 0b       	.word	0x0b3a;	????	
 374:	3b 0b       	.word	0x0b3b;	????	
 376:	49 13       	.word	0x1349;	????	
 378:	02 0a       	.word	0x0a02;	????	
 37a:	00 00       	.word	0x0000;	????	
 37c:	0c 01       	.word	0x010c;	????	
 37e:	01 49       	mov	r9,	r1	
 380:	13 01       	.word	0x0113;	????	
 382:	13 00       	.word	0x0013;	????	
 384:	00 0d       	.word	0x0d00;	????	
 386:	21 00       	.word	0x0021;	????	
 388:	49 13       	.word	0x1349;	????	
 38a:	2f 0b       	.word	0x0b2f;	????	
 38c:	00 00       	.word	0x0000;	????	
 38e:	0e 2e       	jc	$-994    	;abs 0xffac
 390:	01 3f       	jmp	$-508    	;abs 0x194
 392:	0c 03       	.word	0x030c;	????	
 394:	0e 3a       	jl	$-994    	;abs 0xffb2
 396:	0b 3b       	jl	$-488    	;abs 0x1ae
 398:	0b 27       	jz	$-488    	;abs 0x1b0
 39a:	0c 11       	rra	r12		
 39c:	01 12       	push	r1		
 39e:	01 40       	mov	r0,	r1	
 3a0:	06 01       	.word	0x0106;	????	
 3a2:	13 00       	.word	0x0013;	????	
 3a4:	00 0f       	.word	0x0f00;	????	
 3a6:	05 00       	.word	0x0005;	????	
 3a8:	03 0e       	.word	0x0e03;	????	
 3aa:	3a 0b       	.word	0x0b3a;	????	
 3ac:	3b 0b       	.word	0x0b3b;	????	
 3ae:	49 13       	.word	0x1349;	????	
 3b0:	02 06       	.word	0x0602;	????	
 3b2:	00 00       	.word	0x0000;	????	
 3b4:	10 24       	jz	$+34     	;abs 0x3d6
 3b6:	00 0b       	.word	0x0b00;	????	
 3b8:	0b 3e       	jmp	$-1000   	;abs 0xffd0
 3ba:	0b 03       	.word	0x030b;	????	
 3bc:	08 00       	.word	0x0008;	????	
 3be:	00 11       	rra	r0		
 3c0:	34 00       	.word	0x0034;	????	
 3c2:	03 0e       	.word	0x0e03;	????	
 3c4:	3a 0b       	.word	0x0b3a;	????	
 3c6:	3b 0b       	.word	0x0b3b;	????	
 3c8:	49 13       	.word	0x1349;	????	
 3ca:	02 0a       	.word	0x0a02;	????	
 3cc:	00 00       	.word	0x0000;	????	
 3ce:	12 18       	.word	0x1812;	????	
 3d0:	00 00       	.word	0x0000;	????	
 3d2:	00 13       	reti			
 3d4:	0a 00       	.word	0x000a;	????	
 3d6:	03 0e       	.word	0x0e03;	????	
 3d8:	3a 0b       	.word	0x0b3a;	????	
 3da:	3b 0b       	.word	0x0b3b;	????	
 3dc:	11 01       	.word	0x0111;	????	
 3de:	00 00       	.word	0x0000;	????	
 3e0:	00 01       	.word	0x0100;	????	
 3e2:	11 01       	.word	0x0111;	????	
 3e4:	25 0e       	.word	0x0e25;	????	
 3e6:	13 0b       	.word	0x0b13;	????	
 3e8:	03 0e       	.word	0x0e03;	????	
 3ea:	1b 0e       	.word	0x0e1b;	????	
 3ec:	11 01       	.word	0x0111;	????	
 3ee:	12 01       	.word	0x0112;	????	
 3f0:	10 06       	.word	0x0610;	????	
 3f2:	00 00       	.word	0x0000;	????	
 3f4:	02 2e       	jc	$-1018   	;abs 0xfffa
 3f6:	01 3f       	jmp	$-508    	;abs 0x1fa
 3f8:	0c 03       	.word	0x030c;	????	
 3fa:	0e 3a       	jl	$-994    	;abs 0x18
 3fc:	0b 3b       	jl	$-488    	;abs 0x214
 3fe:	0b 27       	jz	$-488    	;abs 0x216
 400:	0c 11       	rra	r12		
 402:	01 12       	push	r1		
 404:	01 40       	mov	r0,	r1	
 406:	0a 01       	.word	0x010a;	????	
 408:	13 00       	.word	0x0013;	????	
 40a:	00 03       	.word	0x0300;	????	
 40c:	05 00       	.word	0x0005;	????	
 40e:	03 08       	.word	0x0803;	????	
 410:	3a 0b       	.word	0x0b3a;	????	
 412:	3b 0b       	.word	0x0b3b;	????	
 414:	49 13       	.word	0x1349;	????	
 416:	02 06       	.word	0x0602;	????	
 418:	00 00       	.word	0x0000;	????	
 41a:	04 24       	jz	$+10     	;abs 0x424
 41c:	00 0b       	.word	0x0b00;	????	
 41e:	0b 3e       	jmp	$-1000   	;abs 0x36
 420:	0b 03       	.word	0x030b;	????	
 422:	0e 00       	.word	0x000e;	????	
 424:	00 05       	.word	0x0500;	????	
 426:	2e 00       	.word	0x002e;	????	
 428:	3f 0c       	.word	0x0c3f;	????	
 42a:	03 0e       	.word	0x0e03;	????	
 42c:	3a 0b       	.word	0x0b3a;	????	
 42e:	3b 0b       	.word	0x0b3b;	????	
 430:	49 13       	.word	0x1349;	????	
 432:	11 01       	.word	0x0111;	????	
 434:	12 01       	.word	0x0112;	????	
 436:	40 0a       	.word	0x0a40;	????	
 438:	00 00       	.word	0x0000;	????	
 43a:	00 01       	.word	0x0100;	????	
 43c:	11 01       	.word	0x0111;	????	
 43e:	25 0e       	.word	0x0e25;	????	
 440:	13 0b       	.word	0x0b13;	????	
 442:	03 0e       	.word	0x0e03;	????	
 444:	1b 0e       	.word	0x0e1b;	????	
 446:	11 01       	.word	0x0111;	????	
 448:	12 01       	.word	0x0112;	????	
 44a:	10 06       	.word	0x0610;	????	
 44c:	00 00       	.word	0x0000;	????	
 44e:	02 24       	jz	$+6      	;abs 0x454
 450:	00 0b       	.word	0x0b00;	????	
 452:	0b 3e       	jmp	$-1000   	;abs 0x6a
 454:	0b 03       	.word	0x030b;	????	
 456:	0e 00       	.word	0x000e;	????	
 458:	00 03       	.word	0x0300;	????	
 45a:	24 00       	.word	0x0024;	????	
 45c:	0b 0b       	.word	0x0b0b;	????	
 45e:	3e 0b       	.word	0x0b3e;	????	
 460:	03 08       	.word	0x0803;	????	
 462:	00 00       	.word	0x0000;	????	
 464:	04 2e       	jc	$-1014   	;abs 0x6e
 466:	01 3f       	jmp	$-508    	;abs 0x26a
 468:	0c 03       	.word	0x030c;	????	
 46a:	0e 3a       	jl	$-994    	;abs 0x88
 46c:	0b 3b       	jl	$-488    	;abs 0x284
 46e:	0b 27       	jz	$-488    	;abs 0x286
 470:	0c 11       	rra	r12		
 472:	01 12       	push	r1		
 474:	01 40       	mov	r0,	r1	
 476:	0a 01       	.word	0x010a;	????	
 478:	13 00       	.word	0x0013;	????	
 47a:	00 05       	.word	0x0500;	????	
 47c:	05 00       	.word	0x0005;	????	
 47e:	03 0e       	.word	0x0e03;	????	
 480:	3a 0b       	.word	0x0b3a;	????	
 482:	3b 0b       	.word	0x0b3b;	????	
 484:	49 13       	.word	0x1349;	????	
 486:	02 0a       	.word	0x0a02;	????	
 488:	00 00       	.word	0x0000;	????	
 48a:	06 05       	.word	0x0506;	????	
 48c:	00 03       	.word	0x0300;	????	
 48e:	0e 3a       	jl	$-994    	;abs 0xac
 490:	0b 3b       	jl	$-488    	;abs 0x2a8
 492:	0b 49       	mov	r9,	r11	
 494:	13 02       	.word	0x0213;	????	
 496:	06 00       	.word	0x0006;	????	
 498:	00 07       	.word	0x0700;	????	
 49a:	2e 00       	.word	0x002e;	????	
 49c:	3f 0c       	.word	0x0c3f;	????	
 49e:	03 0e       	.word	0x0e03;	????	
 4a0:	3a 0b       	.word	0x0b3a;	????	
 4a2:	3b 0b       	.word	0x0b3b;	????	
 4a4:	49 13       	.word	0x1349;	????	
 4a6:	11 01       	.word	0x0111;	????	
 4a8:	12 01       	.word	0x0112;	????	
 4aa:	40 0a       	.word	0x0a40;	????	
 4ac:	00 00       	.word	0x0000;	????	
 4ae:	08 34       	jge	$+18     	;abs 0x4c0
 4b0:	00 03       	.word	0x0300;	????	
 4b2:	0e 3a       	jl	$-994    	;abs 0xd0
 4b4:	0b 3b       	jl	$-488    	;abs 0x2cc
 4b6:	0b 87       	sub	r7,	r11	
 4b8:	40 0e       	.word	0x0e40;	????	
 4ba:	49 13       	.word	0x1349;	????	
 4bc:	3f 0c       	.word	0x0c3f;	????	
 4be:	3c 0c       	.word	0x0c3c;	????	
 4c0:	00 00       	.word	0x0000;	????	
 4c2:	09 35       	jge	$+532    	;abs 0x6d6
 4c4:	00 49       	br	r9		
 4c6:	13 00       	.word	0x0013;	????	
 4c8:	00 0a       	.word	0x0a00;	????	
 4ca:	34 00       	.word	0x0034;	????	
 4cc:	03 0e       	.word	0x0e03;	????	
 4ce:	3a 0b       	.word	0x0b3a;	????	
 4d0:	3b 05       	.word	0x053b;	????	
 4d2:	87 40 0e 49 	mov	r0,	18702(r7);0x490e(r7)
 4d6:	13 3f       	jmp	$-472    	;abs 0x2fe
 4d8:	0c 3c       	jmp	$+26     	;abs 0x4f2
 4da:	0c 00       	.word	0x000c;	????	
 4dc:	00 0b       	.word	0x0b00;	????	
 4de:	26 00       	.word	0x0026;	????	
 4e0:	49 13       	.word	0x1349;	????	
 4e2:	00 00       	.word	0x0000;	????	
 4e4:	00 01       	.word	0x0100;	????	
 4e6:	11 00       	.word	0x0011;	????	
 4e8:	10 06       	.word	0x0610;	????	
 4ea:	11 01       	.word	0x0111;	????	
 4ec:	12 01       	.word	0x0112;	????	
 4ee:	03 08       	.word	0x0803;	????	
 4f0:	1b 08       	.word	0x081b;	????	
 4f2:	25 08       	.word	0x0825;	????	
 4f4:	13 05       	.word	0x0513;	????	
 4f6:	00 00       	.word	0x0000;	????	
 4f8:	00 01       	.word	0x0100;	????	
 4fa:	11 00       	.word	0x0011;	????	
 4fc:	10 06       	.word	0x0610;	????	
 4fe:	11 01       	.word	0x0111;	????	
 500:	12 01       	.word	0x0112;	????	
 502:	03 08       	.word	0x0803;	????	
 504:	1b 08       	.word	0x081b;	????	
 506:	25 08       	.word	0x0825;	????	
 508:	13 05       	.word	0x0513;	????	
 50a:	00 00       	.word	0x0000;	????	
 50c:	00 01       	.word	0x0100;	????	
 50e:	11 01       	.word	0x0111;	????	
 510:	25 0e       	.word	0x0e25;	????	
 512:	13 0b       	.word	0x0b13;	????	
 514:	03 0e       	.word	0x0e03;	????	
 516:	1b 0e       	.word	0x0e1b;	????	
 518:	11 01       	.word	0x0111;	????	
 51a:	12 01       	.word	0x0112;	????	
 51c:	10 06       	.word	0x0610;	????	
 51e:	00 00       	.word	0x0000;	????	
 520:	02 24       	jz	$+6      	;abs 0x526
 522:	00 0b       	.word	0x0b00;	????	
 524:	0b 3e       	jmp	$-1000   	;abs 0x13c
 526:	0b 03       	.word	0x030b;	????	
 528:	0e 00       	.word	0x000e;	????	
 52a:	00 03       	.word	0x0300;	????	
 52c:	24 00       	.word	0x0024;	????	
 52e:	0b 0b       	.word	0x0b0b;	????	
 530:	3e 0b       	.word	0x0b3e;	????	
 532:	03 08       	.word	0x0803;	????	
 534:	00 00       	.word	0x0000;	????	
 536:	04 16       	.word	0x1604;	????	
 538:	00 03       	.word	0x0300;	????	
 53a:	0e 3a       	jl	$-994    	;abs 0x158
 53c:	0b 3b       	jl	$-488    	;abs 0x354
 53e:	0b 49       	mov	r9,	r11	
 540:	13 00       	.word	0x0013;	????	
 542:	00 05       	.word	0x0500;	????	
 544:	2e 01       	.word	0x012e;	????	
 546:	3f 0c       	.word	0x0c3f;	????	
 548:	03 0e       	.word	0x0e03;	????	
 54a:	3a 0b       	.word	0x0b3a;	????	
 54c:	3b 0b       	.word	0x0b3b;	????	
 54e:	27 0c       	.word	0x0c27;	????	
 550:	49 13       	.word	0x1349;	????	
 552:	11 01       	.word	0x0111;	????	
 554:	12 01       	.word	0x0112;	????	
 556:	40 06       	.word	0x0640;	????	
 558:	01 13       	reti			;return from interupt
 55a:	00 00       	.word	0x0000;	????	
 55c:	06 05       	.word	0x0506;	????	
 55e:	00 03       	.word	0x0300;	????	
 560:	0e 3a       	jl	$-994    	;abs 0x17e
 562:	0b 3b       	jl	$-488    	;abs 0x37a
 564:	0b 49       	mov	r9,	r11	
 566:	13 02       	.word	0x0213;	????	
 568:	0a 00       	.word	0x000a;	????	
 56a:	00 07       	.word	0x0700;	????	
 56c:	05 00       	.word	0x0005;	????	
 56e:	03 08       	.word	0x0803;	????	
 570:	3a 0b       	.word	0x0b3a;	????	
 572:	3b 0b       	.word	0x0b3b;	????	
 574:	49 13       	.word	0x1349;	????	
 576:	02 06       	.word	0x0602;	????	
 578:	00 00       	.word	0x0000;	????	
 57a:	08 05       	.word	0x0508;	????	
 57c:	00 03       	.word	0x0300;	????	
 57e:	0e 3a       	jl	$-994    	;abs 0x19c
 580:	0b 3b       	jl	$-488    	;abs 0x398
 582:	0b 49       	mov	r9,	r11	
 584:	13 02       	.word	0x0213;	????	
 586:	06 00       	.word	0x0006;	????	
 588:	00 09       	.word	0x0900;	????	
 58a:	34 00       	.word	0x0034;	????	
 58c:	03 08       	.word	0x0803;	????	
 58e:	3a 0b       	.word	0x0b3a;	????	
 590:	3b 0b       	.word	0x0b3b;	????	
 592:	49 13       	.word	0x1349;	????	
 594:	02 06       	.word	0x0602;	????	
 596:	00 00       	.word	0x0000;	????	
 598:	0a 0f       	.word	0x0f0a;	????	
 59a:	00 0b       	.word	0x0b00;	????	
 59c:	0b 00       	.word	0x000b;	????	
 59e:	00 0b       	.word	0x0b00;	????	
 5a0:	0f 00       	.word	0x000f;	????	
 5a2:	0b 0b       	.word	0x0b0b;	????	
 5a4:	49 13       	.word	0x1349;	????	
 5a6:	00 00       	.word	0x0000;	????	
 5a8:	00 01       	.word	0x0100;	????	
 5aa:	11 01       	.word	0x0111;	????	
 5ac:	25 0e       	.word	0x0e25;	????	
 5ae:	13 0b       	.word	0x0b13;	????	
 5b0:	03 0e       	.word	0x0e03;	????	
 5b2:	1b 0e       	.word	0x0e1b;	????	
 5b4:	11 01       	.word	0x0111;	????	
 5b6:	12 01       	.word	0x0112;	????	
 5b8:	10 06       	.word	0x0610;	????	
 5ba:	00 00       	.word	0x0000;	????	
 5bc:	02 24       	jz	$+6      	;abs 0x5c2
 5be:	00 0b       	.word	0x0b00;	????	
 5c0:	0b 3e       	jmp	$-1000   	;abs 0x1d8
 5c2:	0b 03       	.word	0x030b;	????	
 5c4:	0e 00       	.word	0x000e;	????	
 5c6:	00 03       	.word	0x0300;	????	
 5c8:	24 00       	.word	0x0024;	????	
 5ca:	0b 0b       	.word	0x0b0b;	????	
 5cc:	3e 0b       	.word	0x0b3e;	????	
 5ce:	03 08       	.word	0x0803;	????	
 5d0:	00 00       	.word	0x0000;	????	
 5d2:	04 0f       	.word	0x0f04;	????	
 5d4:	00 0b       	.word	0x0b00;	????	
 5d6:	0b 49       	mov	r9,	r11	
 5d8:	13 00       	.word	0x0013;	????	
 5da:	00 05       	.word	0x0500;	????	
 5dc:	26 00       	.word	0x0026;	????	
 5de:	49 13       	.word	0x1349;	????	
 5e0:	00 00       	.word	0x0000;	????	
 5e2:	06 2e       	jc	$-1010   	;abs 0x1f0
 5e4:	01 3f       	jmp	$-508    	;abs 0x3e8
 5e6:	0c 03       	.word	0x030c;	????	
 5e8:	0e 3a       	jl	$-994    	;abs 0x206
 5ea:	0b 3b       	jl	$-488    	;abs 0x402
 5ec:	0b 27       	jz	$-488    	;abs 0x404
 5ee:	0c 49       	mov	r9,	r12	
 5f0:	13 11       	rra	#1		;r3 As==01
 5f2:	01 12       	push	r1		
 5f4:	01 40       	mov	r0,	r1	
 5f6:	06 00       	.word	0x0006;	????	
 5f8:	00 07       	.word	0x0700;	????	
 5fa:	05 00       	.word	0x0005;	????	
 5fc:	03 08       	.word	0x0803;	????	
 5fe:	3a 0b       	.word	0x0b3a;	????	
 600:	3b 0b       	.word	0x0b3b;	????	
 602:	49 13       	.word	0x1349;	????	
 604:	02 06       	.word	0x0602;	????	
 606:	00 00       	.word	0x0000;	????	
 608:	08 34       	jge	$+18     	;abs 0x61a
 60a:	00 03       	.word	0x0300;	????	
 60c:	0e 3a       	jl	$-994    	;abs 0x22a
 60e:	0b 3b       	jl	$-488    	;abs 0x426
 610:	0b 49       	mov	r9,	r11	
 612:	13 02       	.word	0x0213;	????	
 614:	06 00       	.word	0x0006;	????	
 616:	00 09       	.word	0x0900;	????	
 618:	34 00       	.word	0x0034;	????	
 61a:	03 08       	.word	0x0803;	????	
 61c:	3a 0b       	.word	0x0b3a;	????	
 61e:	3b 0b       	.word	0x0b3b;	????	
 620:	49 13       	.word	0x1349;	????	
 622:	02 06       	.word	0x0602;	????	
 624:	00 00       	.word	0x0000;	????	
 626:	00 01       	.word	0x0100;	????	
 628:	11 00       	.word	0x0011;	????	
 62a:	10 06       	.word	0x0610;	????	
 62c:	11 01       	.word	0x0111;	????	
 62e:	12 01       	.word	0x0112;	????	
 630:	03 08       	.word	0x0803;	????	
 632:	1b 08       	.word	0x081b;	????	
 634:	25 08       	.word	0x0825;	????	
 636:	13 05       	.word	0x0513;	????	
 638:	00 00       	.word	0x0000;	????	
 63a:	00 01       	.word	0x0100;	????	
 63c:	11 00       	.word	0x0011;	????	
 63e:	10 06       	.word	0x0610;	????	
 640:	11 01       	.word	0x0111;	????	
 642:	12 01       	.word	0x0112;	????	
 644:	03 08       	.word	0x0803;	????	
 646:	1b 08       	.word	0x081b;	????	
 648:	25 08       	.word	0x0825;	????	
 64a:	13 05       	.word	0x0513;	????	
 64c:	00 00       	.word	0x0000;	????	
 64e:	00 01       	.word	0x0100;	????	
 650:	11 00       	.word	0x0011;	????	
 652:	10 06       	.word	0x0610;	????	
 654:	11 01       	.word	0x0111;	????	
 656:	12 01       	.word	0x0112;	????	
 658:	03 08       	.word	0x0803;	????	
 65a:	1b 08       	.word	0x081b;	????	
 65c:	25 08       	.word	0x0825;	????	
 65e:	13 05       	.word	0x0513;	????	
 660:	00 00       	.word	0x0000;	????	
 662:	00 01       	.word	0x0100;	????	
 664:	11 00       	.word	0x0011;	????	
 666:	10 06       	.word	0x0610;	????	
 668:	11 01       	.word	0x0111;	????	
 66a:	12 01       	.word	0x0112;	????	
 66c:	03 08       	.word	0x0803;	????	
 66e:	1b 08       	.word	0x081b;	????	
 670:	25 08       	.word	0x0825;	????	
 672:	13 05       	.word	0x0513;	????	
 674:	00 00       	.word	0x0000;	????	
 676:	00 01       	.word	0x0100;	????	
 678:	11 00       	.word	0x0011;	????	
 67a:	10 06       	.word	0x0610;	????	
 67c:	11 01       	.word	0x0111;	????	
 67e:	12 01       	.word	0x0112;	????	
 680:	03 08       	.word	0x0803;	????	
 682:	1b 08       	.word	0x081b;	????	
 684:	25 08       	.word	0x0825;	????	
 686:	13 05       	.word	0x0513;	????	
 688:	00 00       	.word	0x0000;	????	
 68a:	00 01       	.word	0x0100;	????	
 68c:	11 00       	.word	0x0011;	????	
 68e:	10 06       	.word	0x0610;	????	
 690:	11 01       	.word	0x0111;	????	
 692:	12 01       	.word	0x0112;	????	
 694:	03 08       	.word	0x0803;	????	
 696:	1b 08       	.word	0x081b;	????	
 698:	25 08       	.word	0x0825;	????	
 69a:	13 05       	.word	0x0513;	????	
 69c:	00 00       	.word	0x0000;	????	
	...

Disassembly of section .debug_line:

00000000 <.debug_line>:
   0:	a5 01       	.word	0x01a5;	????	
   2:	00 00       	.word	0x0000;	????	
   4:	02 00       	.word	0x0002;	????	
   6:	bc 00       	.word	0x00bc;	????	
   8:	00 00       	.word	0x0000;	????	
   a:	01 01       	.word	0x0101;	????	
   c:	fb 0e       	.word	0x0efb;	????	
   e:	0d 00       	.word	0x000d;	????	
  10:	01 01       	.word	0x0101;	????	
  12:	01 01       	.word	0x0101;	????	
  14:	00 00       	.word	0x0000;	????	
  16:	00 01       	.word	0x0100;	????	
  18:	00 00       	.word	0x0000;	????	
  1a:	01 2f       	jc	$-508    	;abs 0xfe1e
  1c:	75 73       	subc.b	#-1,	r5	;r3 As==11
  1e:	72 2f       	jc	$-282    	;abs 0xff04
  20:	6c 69       	addc.b	@r9,	r12	
  22:	62 2f       	jc	$-314    	;abs 0xfee8
  24:	67 63       	addc.b	#2,	r7	;r3 As==10
  26:	63 2f       	jc	$-312    	;abs 0xfeee
  28:	6d 73       	subc.b	#2,	r13	;r3 As==10
  2a:	70 34       	jge	$+226    	;abs 0x10c
  2c:	33 30       	jn	$+104    	;abs 0x94
  2e:	2f 34       	jge	$+96     	;abs 0x8e
  30:	2e 36       	jge	$-930    	;abs 0xfc8e
  32:	2e 33       	jn	$-418    	;abs 0xfe90
  34:	2f 2e       	jc	$-928    	;abs 0xfc94
  36:	2e 2f       	jc	$-418    	;abs 0xfe94
  38:	2e 2e       	jc	$-930    	;abs 0xfc96
  3a:	2f 2e       	jc	$-928    	;abs 0xfc9a
  3c:	2e 2f       	jc	$-418    	;abs 0xfe9a
  3e:	2e 2e       	jc	$-930    	;abs 0xfc9c
  40:	2f 6d       	addc	@r13,	r15	
  42:	73 70       	.word	0x7073;	????	Illegal as 2-op instr
  44:	34 33       	jn	$-406    	;abs 0xfeae
  46:	30 2f       	jc	$-414    	;abs 0xfea8
  48:	69 6e       	addc.b	@r14,	r9	
  4a:	63 6c       	.word	0x6c63;	????	Illegal as 2-op instr
  4c:	75 64       	addc.b	@r4+,	r5	
  4e:	65 2f       	jc	$-308    	;abs 0xff1a
  50:	6c 69       	addc.b	@r9,	r12	
  52:	62 65       	addc.b	@r5,	r2	
  54:	6d 62       	addc.b	#4,	r13	;r2 As==10
  56:	2f 73       	subc	#2,	r15	;r3 As==10
  58:	68 65       	addc.b	@r5,	r8	
  5a:	6c 6c       	addc.b	@r12,	r12	
  5c:	00 2f       	jc	$-510    	;abs 0xfe5e
  5e:	75 73       	subc.b	#-1,	r5	;r3 As==11
  60:	72 2f       	jc	$-282    	;abs 0xff46
  62:	6c 69       	addc.b	@r9,	r12	
  64:	62 2f       	jc	$-314    	;abs 0xff2a
  66:	67 63       	addc.b	#2,	r7	;r3 As==10
  68:	63 2f       	jc	$-312    	;abs 0xff30
  6a:	6d 73       	subc.b	#2,	r13	;r3 As==10
  6c:	70 34       	jge	$+226    	;abs 0x14e
  6e:	33 30       	jn	$+104    	;abs 0xd6
  70:	2f 34       	jge	$+96     	;abs 0xd0
  72:	2e 36       	jge	$-930    	;abs 0xfcd0
  74:	2e 33       	jn	$-418    	;abs 0xfed2
  76:	2f 2e       	jc	$-928    	;abs 0xfcd6
  78:	2e 2f       	jc	$-418    	;abs 0xfed6
  7a:	2e 2e       	jc	$-930    	;abs 0xfcd8
  7c:	2f 2e       	jc	$-928    	;abs 0xfcdc
  7e:	2e 2f       	jc	$-418    	;abs 0xfedc
  80:	2e 2e       	jc	$-930    	;abs 0xfcde
  82:	2f 6d       	addc	@r13,	r15	
  84:	73 70       	.word	0x7073;	????	Illegal as 2-op instr
  86:	34 33       	jn	$-406    	;abs 0xfef0
  88:	30 2f       	jc	$-414    	;abs 0xfeea
  8a:	69 6e       	addc.b	@r14,	r9	
  8c:	63 6c       	.word	0x6c63;	????	Illegal as 2-op instr
  8e:	75 64       	addc.b	@r4+,	r5	
  90:	65 00       	.word	0x0065;	????	
  92:	00 73       	sbc	r0		
  94:	68 65       	addc.b	@r5,	r8	
  96:	6c 6c       	addc.b	@r12,	r12	
  98:	2e 63       	addc	#2,	r14	;r3 As==10
  9a:	00 00       	.word	0x0000;	????	
  9c:	00 00       	.word	0x0000;	????	
  9e:	73 68       	.word	0x6873;	????	Illegal as 2-op instr
  a0:	65 6c       	addc.b	@r12,	r5	
  a2:	6c 2e       	jc	$-806    	;abs 0xfd7c
  a4:	68 00       	.word	0x0068;	????	
  a6:	01 00       	.word	0x0001;	????	
  a8:	00 73       	sbc	r0		
  aa:	68 65       	addc.b	@r5,	r8	
  ac:	6c 6c       	addc.b	@r12,	r12	
  ae:	2e 68       	addc	@r8,	r14	
  b0:	00 00       	.word	0x0000;	????	
  b2:	00 00       	.word	0x0000;	????	
  b4:	6d 73       	subc.b	#2,	r13	;r3 As==10
  b6:	70 34       	jge	$+226    	;abs 0x198
  b8:	33 30       	jn	$+104    	;abs 0x120
  ba:	67 32       	jn	$-816    	;abs 0xfd8a
  bc:	35 35       	jge	$+620    	;abs 0x328
  be:	33 2e       	jc	$-920    	;abs 0xfd26
  c0:	68 00       	.word	0x0068;	????	
  c2:	02 00       	.word	0x0002;	????	
  c4:	00 00       	.word	0x0000;	????	
  c6:	00 03       	.word	0x0300;	????	
  c8:	02 52       	rla	r2		
  ca:	c1 03       	.word	0x03c1;	????	
  cc:	8f 01       	.word	0x018f;	????	
  ce:	01 2f       	jc	$-508    	;abs 0xfed2
  d0:	f3 d7       	bis.b	@r7+,	#1	;r3 As==01
  d2:	d7 d7 d7 d7 	bis.b	-10281(r7),-10281(r7);0xd7d7(r7), 0xd7d7(r7)
  d6:	d7 d7 
  d8:	d9 03       	.word	0x03d9;	????	
  da:	85 7f 66 69 	subc	r15,	26982(r5);0x6966(r5)
  de:	84 00       	.word	0x0084;	????	
  e0:	02 04       	.word	0x0402;	????	
  e2:	02 83       	sub	#0,	r2	;r3 As==00
  e4:	00 02       	.word	0x0200;	????	
  e6:	04 02       	.word	0x0204;	????	
  e8:	08 8f       	sub	r15,	r8	
  ea:	87 03       	.word	0x0387;	????	
  ec:	6b 82       	sub.b	#4,	r11	;r2 As==10
  ee:	4d 00       	.word	0x004d;	????	
  f0:	02 04       	.word	0x0402;	????	
  f2:	02 bb       	bit	r11,	r2	
  f4:	00 02       	.word	0x0200;	????	
  f6:	04 02       	.word	0x0204;	????	
  f8:	08 1f       	.word	0x1f08;	????	
  fa:	db 03       	.word	0x03db;	????	
  fc:	e4 00       	.word	0x00e4;	????	
  fe:	82 83 9f f3 	sub	#0,	&0xf39f	;r3 As==00
 102:	08 21       	jnz	$+530    	;abs 0x314
 104:	08 21       	jnz	$+530    	;abs 0x316
 106:	bb bb be 03 	bit	@r11+,	958(r11);0x03be(r11)
 10a:	6d 9e       	cmp.b	@r14,	r13	
 10c:	2f f3       	and	#2,	r15	;r3 As==10
 10e:	a1 03       	.word	0x03a1;	????	
 110:	73 66       	.word	0x6673;	????	Illegal as 2-op instr
 112:	2f f3       	and	#2,	r15	;r3 As==10
 114:	a1 03       	.word	0x03a1;	????	
 116:	73 66       	.word	0x6673;	????	Illegal as 2-op instr
 118:	4b 08       	.word	0x084b;	????	
 11a:	75 a1       	dadd.b	@r1+,	r5	
 11c:	03 73       	sbc	#0		;r3 As==00
 11e:	82 2f       	jc	$-250    	;abs 0x24
 120:	f3 a1       	dadd.b	@r1+,	#1	;r3 As==01
 122:	03 73       	sbc	#0		;r3 As==00
 124:	66 2f       	jc	$-306    	;abs 0xfff2
 126:	f3 a1       	dadd.b	@r1+,	#1	;r3 As==01
 128:	03 73       	sbc	#0		;r3 As==00
 12a:	66 2f       	jc	$-306    	;abs 0xfff8
 12c:	f3 a1       	dadd.b	@r1+,	#1	;r3 As==01
 12e:	03 6f       	.word	0x6f03;	????	Illegal as 2-op instr
 130:	66 13       	.word	0x1366;	????	
 132:	6a a2       	dadd.b	#4,	r10	;r2 As==10
 134:	03 79       	.word	0x7903;	????	Illegal as 2-op instr
 136:	4a 08       	.word	0x084a;	????	
 138:	3d 50 03 6b 	add	#27395,	r13	;#0x6b03
 13c:	4a 13       	.word	0x134a;	????	
 13e:	68 a4       	dadd.b	@r4,	r8	
 140:	46 08       	.word	0x0846;	????	
 142:	3d 4d       	mov	@r13+,	r13	
 144:	03 6b       	.word	0x6b03;	????	Illegal as 2-op instr
 146:	4a 13       	.word	0x134a;	????	
 148:	67 08       	.word	0x0867;	????	
 14a:	3d 50 46 a2 	add	#-23994,r13	;#0xa246
 14e:	03 e8       	.word	0xe803;	????	Illegal as 2-op instr
 150:	00 4a       	br	r10		
 152:	13 9f       	.word	0x9f13;	????	Illegal as 2-op instr
 154:	03 ec       	.word	0xec03;	????	Illegal as 2-op instr
 156:	00 2e       	jc	$-1022   	;abs 0xfd58
 158:	00 02       	.word	0x0200;	????	
 15a:	04 01       	.word	0x0104;	????	
 15c:	31 67       	addc	@r7+,	r1	
 15e:	83 68       	addc	r8,	#1	;r3 As==01
 160:	4b 02       	.word	0x024b;	????	
 162:	04 00       	.word	0x0004;	????	
 164:	01 01       	.word	0x0101;	????	
 166:	00 03       	.word	0x0300;	????	
 168:	02 3e       	jmp	$-1018   	;abs 0xfd6e
 16a:	c0 03       	.word	0x03c0;	????	
 16c:	b3 01       	.word	0x01b3;	????	
 16e:	01 14       	.word	0x1401;	????	
 170:	4b 4b       	mov.b	r11,	r11	
 172:	4b 4b       	mov.b	r11,	r11	
 174:	4b 4b       	mov.b	r11,	r11	
 176:	4b 4b       	mov.b	r11,	r11	
 178:	4d 67       	addc.b	r7,	r13	
 17a:	67 69       	addc.b	@r9,	r7	
 17c:	67 67       	addc.b	@r7,	r7	
 17e:	4c 4b       	mov.b	r11,	r12	
 180:	4b 4b       	mov.b	r11,	r11	
 182:	4c 4b       	mov.b	r11,	r12	
 184:	4c 83       	sub.b	#0,	r12	;r3 As==00
 186:	03 09       	.word	0x0903;	????	
 188:	2e d8       	bis	@r8,	r14	
 18a:	83 4b       	mov	r11,	#1	;r3 As==01
 18c:	83 4b       	mov	r11,	#1	;r3 As==01
 18e:	4b 67       	addc.b	r7,	r11	
 190:	4b 83       	sub.b	#0,	r11	;r3 As==00
 192:	85 67 4c 03 	addc	r7,	844(r5)	;0x034c(r5)
 196:	74 4a       	mov.b	@r10+,	r4	
 198:	03 0f       	.word	0x0f03;	????	
 19a:	66 84       	sub.b	@r4,	r6	
 19c:	08 af       	dadd	r15,	r8	
 19e:	83 30       	jn	$+264    	;abs 0x2a6
 1a0:	83 30       	jn	$+264    	;abs 0x2a8
 1a2:	88 83 02 02 	sub	#0,	514(r8)	;r3 As==00, 0x0202(r8)
 1a6:	00 01       	.word	0x0100;	????	
 1a8:	01 fe       	and	r14,	r1	
 1aa:	00 00       	.word	0x0000;	????	
 1ac:	00 02       	.word	0x0200;	????	
 1ae:	00 33       	jn	$-510    	;abs 0xffb0
 1b0:	00 00       	.word	0x0000;	????	
 1b2:	00 01       	.word	0x0100;	????	
 1b4:	01 fb       	and	r11,	r1	
 1b6:	0e 0d       	.word	0x0d0e;	????	
 1b8:	00 01       	.word	0x0100;	????	
 1ba:	01 01       	.word	0x0101;	????	
 1bc:	01 00       	.word	0x0001;	????	
 1be:	00 00       	.word	0x0000;	????	
 1c0:	01 00       	.word	0x0001;	????	
 1c2:	00 01       	.word	0x0100;	????	
 1c4:	2e 2f       	jc	$-418    	;abs 0x22
 1c6:	69 6e       	addc.b	@r14,	r9	
 1c8:	63 6c       	.word	0x6c63;	????	Illegal as 2-op instr
 1ca:	75 64       	addc.b	@r4+,	r5	
 1cc:	65 00       	.word	0x0065;	????	
 1ce:	00 73       	sbc	r0		
 1d0:	68 65       	addc.b	@r5,	r8	
 1d2:	6c 6c       	addc.b	@r12,	r12	
 1d4:	2e 63       	addc	#2,	r14	;r3 As==10
 1d6:	00 00       	.word	0x0000;	????	
 1d8:	00 00       	.word	0x0000;	????	
 1da:	73 68       	.word	0x6873;	????	Illegal as 2-op instr
 1dc:	65 6c       	addc.b	@r12,	r5	
 1de:	6c 2e       	jc	$-806    	;abs 0xfeb8
 1e0:	68 00       	.word	0x0068;	????	
 1e2:	01 00       	.word	0x0001;	????	
 1e4:	00 00       	.word	0x0000;	????	
 1e6:	00 03       	.word	0x0300;	????	
 1e8:	02 58       	add	r8,	r2	
 1ea:	c4 03       	.word	0x03c4;	????	
 1ec:	16 01       	.word	0x0116;	????	
 1ee:	2f 30       	jn	$+96     	;abs 0x24e
 1f0:	00 02       	.word	0x0200;	????	
 1f2:	04 01       	.word	0x0104;	????	
 1f4:	06 4a       	mov	r10,	r6	
 1f6:	00 02       	.word	0x0200;	????	
 1f8:	04 01       	.word	0x0104;	????	
 1fa:	06 46       	mov	r6,	r6	
 1fc:	00 02       	.word	0x0200;	????	
 1fe:	04 01       	.word	0x0104;	????	
 200:	4e 69       	addc.b	r9,	r14	
 202:	31 69       	addc	@r9+,	r1	
 204:	00 02       	.word	0x0200;	????	
 206:	04 01       	.word	0x0104;	????	
 208:	06 4a       	mov	r10,	r6	
 20a:	06 46       	mov	r6,	r6	
 20c:	89 65 00 02 	addc	r5,	512(r9)	;0x0200(r9)
 210:	04 01       	.word	0x0104;	????	
 212:	06 2e       	jc	$-1010   	;abs 0xfe20
 214:	06 50       	add	r0,	r6	
 216:	00 02       	.word	0x0200;	????	
 218:	04 01       	.word	0x0104;	????	
 21a:	06 4a       	mov	r10,	r6	
 21c:	06 03       	.word	0x0306;	????	
 21e:	78 ba       	bit.b	@r10+,	r8	
 220:	03 0c       	.word	0x0c03;	????	
 222:	4a 47       	mov.b	r7,	r10	
 224:	32 85       	sub	@r5+,	r2	
 226:	14 33       	jn	$-470    	;abs 0x50
 228:	4c bc       	bit.b	r12,	r12	
 22a:	00 02       	.word	0x0200;	????	
 22c:	04 01       	.word	0x0104;	????	
 22e:	08 38       	jl	$+18     	;abs 0x240
 230:	6e 4d       	mov.b	@r13,	r14	
 232:	da 2d       	jc	$+950    	;abs 0x5e8
 234:	31 84       	sub	@r4+,	r1	
 236:	68 00       	.word	0x0068;	????	
 238:	02 04       	.word	0x0402;	????	
 23a:	01 06       	.word	0x0601;	????	
 23c:	ba 06       	.word	0x06ba;	????	
 23e:	4c 00       	.word	0x004c;	????	
 240:	02 04       	.word	0x0402;	????	
 242:	01 06       	.word	0x0601;	????	
 244:	4a 06       	.word	0x064a;	????	
 246:	31 4e       	mov	@r14+,	r1	
 248:	bc 03       	.word	0x03bc;	????	
 24a:	6a 2e       	jc	$-810    	;abs 0xff20
 24c:	00 02       	.word	0x0200;	????	
 24e:	04 02       	.word	0x0204;	????	
 250:	06 66       	rlc	r6		
 252:	00 02       	.word	0x0200;	????	
 254:	04 02       	.word	0x0204;	????	
 256:	06 03       	.word	0x0306;	????	
 258:	17 08       	.word	0x0817;	????	
 25a:	20 00       	.word	0x0020;	????	
 25c:	02 04       	.word	0x0402;	????	
 25e:	02 65       	addc	r5,	r2	
 260:	00 02       	.word	0x0200;	????	
 262:	04 01       	.word	0x0104;	????	
 264:	06 2e       	jc	$-1010   	;abs 0xfe72
 266:	06 4d       	mov	r13,	r6	
 268:	03 78       	.word	0x7803;	????	Illegal as 2-op instr
 26a:	08 3c       	jmp	$+18     	;abs 0x27c
 26c:	03 76       	.word	0x7603;	????	Illegal as 2-op instr
 26e:	2e 00       	.word	0x002e;	????	
 270:	02 04       	.word	0x0402;	????	
 272:	01 06       	.word	0x0601;	????	
 274:	2e 06       	.word	0x062e;	????	
 276:	03 18       	.word	0x1803;	????	
 278:	4a 4c       	mov.b	r12,	r10	
 27a:	03 68       	.word	0x6803;	????	Illegal as 2-op instr
 27c:	4a 03       	.word	0x034a;	????	
 27e:	0b 4a       	mov	r10,	r11	
 280:	03 0e       	.word	0x0e03;	????	
 282:	2e f5       	and	@r5,	r14	
 284:	03 19       	.word	0x1903;	????	
 286:	08 3c       	jmp	$+18     	;abs 0x298
 288:	03 6f       	.word	0x6f03;	????	Illegal as 2-op instr
 28a:	2e 4c       	mov	@r12,	r14	
 28c:	83 a0       	dadd	r0,	#1	;r3 As==01
 28e:	08 3d       	jmp	$+530    	;abs 0x4a0
 290:	a0 4c 4d 03 	mov	@r12,	845(r0)	;PC rel. 0x05df
 294:	73 08       	.word	0x0873;	????	
 296:	3c 00       	.word	0x003c;	????	
 298:	02 04       	.word	0x0402;	????	
 29a:	01 06       	.word	0x0601;	????	
 29c:	2e 06       	.word	0x062e;	????	
 29e:	03 11       	rra	#0		;r3 As==00
 2a0:	66 03       	.word	0x0366;	????	
 2a2:	78 66       	addc.b	@r6+,	r8	
 2a4:	68 51       	add.b	@r1,	r8	
 2a6:	02 12       	push	r2		
 2a8:	00 01       	.word	0x0100;	????	
 2aa:	01 07       	.word	0x0701;	????	
 2ac:	01 00       	.word	0x0001;	????	
 2ae:	00 02       	.word	0x0200;	????	
 2b0:	00 4c       	br	r12		
 2b2:	00 00       	.word	0x0000;	????	
 2b4:	00 01       	.word	0x0100;	????	
 2b6:	01 fb       	and	r11,	r1	
 2b8:	0e 0d       	.word	0x0d0e;	????	
 2ba:	00 01       	.word	0x0100;	????	
 2bc:	01 01       	.word	0x0101;	????	
 2be:	01 00       	.word	0x0001;	????	
 2c0:	00 00       	.word	0x0000;	????	
 2c2:	01 00       	.word	0x0001;	????	
 2c4:	00 01       	.word	0x0100;	????	
 2c6:	2f 75       	subc	@r5,	r15	
 2c8:	73 72       	.word	0x7273;	????	Illegal as 2-op instr
 2ca:	2f 6c       	addc	@r12,	r15	
 2cc:	69 62       	addc.b	#4,	r9	;r2 As==10
 2ce:	2f 67       	addc	@r7,	r15	
 2d0:	63 63       	.word	0x6363;	????	Illegal as 2-op instr
 2d2:	2f 6d       	addc	@r13,	r15	
 2d4:	73 70       	.word	0x7073;	????	Illegal as 2-op instr
 2d6:	34 33       	jn	$-406    	;abs 0x140
 2d8:	30 2f       	jc	$-414    	;abs 0x13a
 2da:	34 2e       	jc	$-918    	;abs 0xff44
 2dc:	36 2e       	jc	$-914    	;abs 0xff4a
 2de:	33 2f       	jc	$-408    	;abs 0x146
 2e0:	69 6e       	addc.b	@r14,	r9	
 2e2:	63 6c       	.word	0x6c63;	????	Illegal as 2-op instr
 2e4:	75 64       	addc.b	@r4+,	r5	
 2e6:	65 00       	.word	0x0065;	????	
 2e8:	00 63       	adc	r0		
 2ea:	6f 6e       	addc.b	@r14,	r15	
 2ec:	69 6f       	addc.b	@r15,	r9	
 2ee:	2e 63       	addc	#2,	r14	;r3 As==10
 2f0:	00 00       	.word	0x0000;	????	
 2f2:	00 00       	.word	0x0000;	????	
 2f4:	73 74       	.word	0x7473;	????	Illegal as 2-op instr
 2f6:	64 61       	addc.b	@r1,	r4	
 2f8:	72 67       	addc.b	@r7+,	r2	
 2fa:	2e 68       	addc	@r8,	r14	
 2fc:	00 01       	.word	0x0100;	????	
 2fe:	00 00       	.word	0x0000;	????	
 300:	00 00       	.word	0x0000;	????	
 302:	03 02       	.word	0x0203;	????	
 304:	1a c6 03 d9 	bic	-9981(r6),r10	;0xd903(r6)
 308:	00 01       	.word	0x0100;	????	
 30a:	f6 00       	.word	0x00f6;	????	
 30c:	02 04       	.word	0x0402;	????	
 30e:	02 9f       	cmp	r15,	r2	
 310:	00 02       	.word	0x0200;	????	
 312:	04 01       	.word	0x0104;	????	
 314:	06 2e       	jc	$-1010   	;abs 0xff22
 316:	06 bc       	bit	r12,	r6	
 318:	4b 4b       	mov.b	r11,	r11	
 31a:	00 02       	.word	0x0200;	????	
 31c:	04 02       	.word	0x0204;	????	
 31e:	06 2e       	jc	$-1010   	;abs 0xff2c
 320:	00 02       	.word	0x0200;	????	
 322:	04 01       	.word	0x0104;	????	
 324:	66 06       	.word	0x0666;	????	
 326:	bb 4b d8 83 	mov	@r11+,	-31784(r11);0x83d8(r11)
 32a:	03 6c       	.word	0x6c03;	????	Illegal as 2-op instr
 32c:	ba 14       	.word	0x14ba;	????	
 32e:	bb 03       	.word	0x03bb;	????	
 330:	42 2e       	jc	$-890    	;abs 0xffb6
 332:	4d 2f       	jc	$-356    	;abs 0x1ce
 334:	00 02       	.word	0x0200;	????	
 336:	04 01       	.word	0x0104;	????	
 338:	49 69       	rlc.b	r9		
 33a:	4d bf       	bit.b	r15,	r13	
 33c:	f3 83       	sub.b	#-1,	#1	;r3 As==11, r3 As==01
 33e:	00 02       	.word	0x0200;	????	
 340:	04 01       	.word	0x0104;	????	
 342:	32 00       	.word	0x0032;	????	
 344:	02 04       	.word	0x0402;	????	
 346:	01 08       	.word	0x0801;	????	
 348:	21 00       	.word	0x0021;	????	
 34a:	02 04       	.word	0x0402;	????	
 34c:	01 b8       	bit	r8,	r1	
 34e:	00 02       	.word	0x0200;	????	
 350:	04 02       	.word	0x0204;	????	
 352:	06 82       	sub	r2,	r6	
 354:	06 4f       	mov	r15,	r6	
 356:	00 02       	.word	0x0200;	????	
 358:	04 02       	.word	0x0204;	????	
 35a:	03 70       	.word	0x7003;	????	Illegal as 2-op instr
 35c:	66 00       	.word	0x0066;	????	
 35e:	02 04       	.word	0x0402;	????	
 360:	02 03       	.word	0x0302;	????	
 362:	11 82 00 02 	sub	&0x0200,r1	
 366:	04 01       	.word	0x0104;	????	
 368:	06 66       	rlc	r6		
 36a:	00 02       	.word	0x0200;	????	
 36c:	04 01       	.word	0x0104;	????	
 36e:	06 49       	mov	r9,	r6	
 370:	69 bd       	bit.b	@r13,	r9	
 372:	69 4b       	mov.b	@r11,	r9	
 374:	08 59       	add	r9,	r8	
 376:	68 7e       	subc.b	@r14,	r8	
 378:	6e 03       	.word	0x036e;	????	
 37a:	29 66       	addc	@r6,	r9	
 37c:	fa 2f       	jc	$-10     	;abs 0x372
 37e:	67 02       	.word	0x0267;	????	
 380:	44 14       	.word	0x1444;	????	
 382:	bd bb 31 67 	bit	@r11+,	26417(r13);0x6731(r13)
 386:	00 02       	.word	0x0200;	????	
 388:	04 01       	.word	0x0104;	????	
 38a:	06 66       	rlc	r6		
 38c:	06 f3       	and	#0,	r6	;r3 As==00
 38e:	da 9f 00 02 	cmp.b	512(r15),260(r10);0x0200(r15), 0x0104(r10)
 392:	04 01 
 394:	06 66       	rlc	r6		
 396:	06 08       	.word	0x0806;	????	
 398:	ad b8 31 30 	bit	@r8,	12337(r13);0x3031(r13)
 39c:	67 08       	.word	0x0867;	????	
 39e:	21 9f       	cmp	@r15,	r1	
 3a0:	d7 03       	.word	0x03d7;	????	
 3a2:	66 82       	sub.b	#4,	r6	;r2 As==10
 3a4:	03 23       	jnz	$-504    	;abs 0x1ac
 3a6:	2e 00       	.word	0x002e;	????	
 3a8:	02 04       	.word	0x0402;	????	
 3aa:	01 03       	.word	0x0301;	????	
 3ac:	5d 4a 03 26 	mov.b	9731(r10),r13	;0x2603(r10)
 3b0:	66 02       	.word	0x0266;	????	
 3b2:	0a 00       	.word	0x000a;	????	
 3b4:	01 01       	.word	0x0101;	????	
 3b6:	3d 00       	.word	0x003d;	????	
 3b8:	00 00       	.word	0x0000;	????	
 3ba:	02 00       	.word	0x0002;	????	
 3bc:	25 00       	.word	0x0025;	????	
 3be:	00 00       	.word	0x0000;	????	
 3c0:	01 01       	.word	0x0101;	????	
 3c2:	fb 0e       	.word	0x0efb;	????	
 3c4:	0d 00       	.word	0x000d;	????	
 3c6:	01 01       	.word	0x0101;	????	
 3c8:	01 01       	.word	0x0101;	????	
 3ca:	00 00       	.word	0x0000;	????	
 3cc:	00 01       	.word	0x0100;	????	
 3ce:	00 00       	.word	0x0000;	????	
 3d0:	01 00       	.word	0x0001;	????	
 3d2:	63 6f       	.word	0x6f63;	????	Illegal as 2-op instr
 3d4:	6e 69       	addc.b	@r9,	r14	
 3d6:	6f 5f       	add.b	@r15,	r15	
 3d8:	73 65       	.word	0x6573;	????	Illegal as 2-op instr
 3da:	72 69       	addc.b	@r9+,	r2	
 3dc:	61 6c       	addc.b	@r12,	r1	
 3de:	2e 63       	addc	#2,	r14	;r3 As==10
 3e0:	00 00       	.word	0x0000;	????	
 3e2:	00 00       	.word	0x0000;	????	
 3e4:	00 00       	.word	0x0000;	????	
 3e6:	03 02       	.word	0x0203;	????	
 3e8:	84 c8 03 17 	bic	r8,	5891(r4);0x1703(r4)
 3ec:	01 13       	reti			;return from interupt
 3ee:	4b 31       	jn	$+664    	;abs 0x686
 3f0:	13 4b       	.word	0x4b13;	????	Illegal as 2-op instr
 3f2:	02 02       	.word	0x0202;	????	
 3f4:	00 01       	.word	0x0100;	????	
 3f6:	01 bd       	bit	r13,	r1	
 3f8:	00 00       	.word	0x0000;	????	
 3fa:	00 02       	.word	0x0200;	????	
 3fc:	00 71       	subc	r1,	r0	
 3fe:	00 00       	.word	0x0000;	????	
 400:	00 01       	.word	0x0100;	????	
 402:	01 fb       	and	r11,	r1	
 404:	0e 0d       	.word	0x0d0e;	????	
 406:	00 01       	.word	0x0100;	????	
 408:	01 01       	.word	0x0101;	????	
 40a:	01 00       	.word	0x0001;	????	
 40c:	00 00       	.word	0x0000;	????	
 40e:	01 00       	.word	0x0001;	????	
 410:	00 01       	.word	0x0100;	????	
 412:	2f 75       	subc	@r5,	r15	
 414:	73 72       	.word	0x7273;	????	Illegal as 2-op instr
 416:	2f 6c       	addc	@r12,	r15	
 418:	69 62       	addc.b	#4,	r9	;r2 As==10
 41a:	2f 67       	addc	@r7,	r15	
 41c:	63 63       	.word	0x6363;	????	Illegal as 2-op instr
 41e:	2f 6d       	addc	@r13,	r15	
 420:	73 70       	.word	0x7073;	????	Illegal as 2-op instr
 422:	34 33       	jn	$-406    	;abs 0x28c
 424:	30 2f       	jc	$-414    	;abs 0x286
 426:	34 2e       	jc	$-918    	;abs 0x90
 428:	36 2e       	jc	$-914    	;abs 0x96
 42a:	33 2f       	jc	$-408    	;abs 0x292
 42c:	2e 2e       	jc	$-930    	;abs 0x8a
 42e:	2f 2e       	jc	$-928    	;abs 0x8e
 430:	2e 2f       	jc	$-418    	;abs 0x28e
 432:	2e 2e       	jc	$-930    	;abs 0x90
 434:	2f 2e       	jc	$-928    	;abs 0x94
 436:	2e 2f       	jc	$-418    	;abs 0x294
 438:	6d 73       	subc.b	#2,	r13	;r3 As==10
 43a:	70 34       	jge	$+226    	;abs 0x51c
 43c:	33 30       	jn	$+104    	;abs 0x4a4
 43e:	2f 69       	addc	@r9,	r15	
 440:	6e 63       	addc.b	#2,	r14	;r3 As==10
 442:	6c 75       	subc.b	@r5,	r12	
 444:	64 65       	addc.b	@r5,	r4	
 446:	00 00       	.word	0x0000;	????	
 448:	73 65       	.word	0x6573;	????	Illegal as 2-op instr
 44a:	72 69       	addc.b	@r9+,	r2	
 44c:	61 6c       	addc.b	@r12,	r1	
 44e:	5f 75 73 63 	subc.b	25459(r5),r15	;0x6373(r5)
 452:	69 5f       	add.b	@r15,	r9	
 454:	6d 73       	subc.b	#2,	r13	;r3 As==10
 456:	70 34       	jge	$+226    	;abs 0x538
 458:	33 30       	jn	$+104    	;abs 0x4c0
 45a:	2e 63       	addc	#2,	r14	;r3 As==10
 45c:	00 00       	.word	0x0000;	????	
 45e:	00 00       	.word	0x0000;	????	
 460:	6d 73       	subc.b	#2,	r13	;r3 As==10
 462:	70 34       	jge	$+226    	;abs 0x544
 464:	33 30       	jn	$+104    	;abs 0x4cc
 466:	67 32       	jn	$-816    	;abs 0x136
 468:	35 35       	jge	$+620    	;abs 0x6d4
 46a:	33 2e       	jc	$-920    	;abs 0xd2
 46c:	68 00       	.word	0x0068;	????	
 46e:	01 00       	.word	0x0001;	????	
 470:	00 00       	.word	0x0000;	????	
 472:	00 03       	.word	0x0300;	????	
 474:	02 90       	cmp	r0,	r2	
 476:	c8 03       	.word	0x03c8;	????	
 478:	2a 01       	.word	0x012a;	????	
 47a:	13 67       	.word	0x6713;	????	Illegal as 2-op instr
 47c:	67 68       	addc.b	@r8,	r7	
 47e:	03 0a       	.word	0x0a03;	????	
 480:	08 ac       	dadd	r12,	r8	
 482:	02 2e       	jc	$-1018   	;abs 0x88
 484:	14 d7 bd bf 	bis	-16451(r7),r4	;0xbfbd(r7)
 488:	02 2e       	jc	$-1018   	;abs 0x8e
 48a:	14 84 d7 bb 	sub	-17449(r4),r4	;0xbbd7(r4)
 48e:	bb da bb d7 	bis	@r10+,	-10309(r11);0xd7bb(r11)
 492:	d7 a4 4b 67 	dadd.b	26443(r4),19203(r7);0x674b(r4), 0x4b03(r7)
 496:	03 4b 
 498:	2e 13       	reti			;return from interupt
 49a:	d7 03       	.word	0x03d7;	????	
 49c:	36 2e       	jc	$-914    	;abs 0x10a
 49e:	13 4b       	.word	0x4b13;	????	Illegal as 2-op instr
 4a0:	31 00       	.word	0x0031;	????	
 4a2:	02 04       	.word	0x0402;	????	
 4a4:	01 13       	reti			;return from interupt
 4a6:	83 4b       	mov	r11,	#1	;r3 As==01
 4a8:	31 13       	reti			;return from interupt
 4aa:	4b 31       	jn	$+664    	;abs 0x742
 4ac:	00 02       	.word	0x0200;	????	
 4ae:	04 01       	.word	0x0104;	????	
 4b0:	13 83       	dec	#0		;r3 As==00
 4b2:	4b 02       	.word	0x024b;	????	
 4b4:	02 00       	.word	0x0002;	????	
 4b6:	01 01       	.word	0x0101;	????	
 4b8:	ae 00       	.word	0x00ae;	????	
 4ba:	00 00       	.word	0x0000;	????	
 4bc:	02 00       	.word	0x0002;	????	
 4be:	81 00       	.word	0x0081;	????	
 4c0:	00 00       	.word	0x0000;	????	
 4c2:	01 01       	.word	0x0101;	????	
 4c4:	fb 0e       	.word	0x0efb;	????	
 4c6:	0d 00       	.word	0x000d;	????	
 4c8:	01 01       	.word	0x0101;	????	
 4ca:	01 01       	.word	0x0101;	????	
 4cc:	00 00       	.word	0x0000;	????	
 4ce:	00 01       	.word	0x0100;	????	
 4d0:	00 00       	.word	0x0000;	????	
 4d2:	01 2f       	jc	$-508    	;abs 0x2d6
 4d4:	62 75       	subc.b	@r5,	r2	
 4d6:	69 6c       	addc.b	@r12,	r9	
 4d8:	64 2f       	jc	$-310    	;abs 0x3a2
 4da:	67 63       	addc.b	#2,	r7	;r3 As==10
 4dc:	63 2d       	jc	$+712    	;abs 0x7a4
 4de:	6d 73       	subc.b	#2,	r13	;r3 As==10
 4e0:	70 34       	jge	$+226    	;abs 0x5c2
 4e2:	33 30       	jn	$+104    	;abs 0x54a
 4e4:	2d 67       	addc	@r7,	r13	
 4e6:	52 42 52 52 	mov.b	&0x5252,r2	
 4ea:	6f 2f       	jc	$-288    	;abs 0x3ca
 4ec:	67 63       	addc.b	#2,	r7	;r3 As==10
 4ee:	63 2d       	jc	$+712    	;abs 0x7b6
 4f0:	6d 73       	subc.b	#2,	r13	;r3 As==10
 4f2:	70 34       	jge	$+226    	;abs 0x5d4
 4f4:	33 30       	jn	$+104    	;abs 0x55c
 4f6:	2d 34       	jge	$+92     	;abs 0x552
 4f8:	2e 36       	jge	$-930    	;abs 0x156
 4fa:	2e 33       	jn	$-418    	;abs 0x358
 4fc:	7e 6d       	addc.b	@r13+,	r14	
 4fe:	73 70       	.word	0x7073;	????	Illegal as 2-op instr
 500:	67 63       	addc.b	#2,	r7	;r3 As==10
 502:	63 2d       	jc	$+712    	;abs 0x7ca
 504:	32 30       	jn	$+102    	;abs 0x56a
 506:	31 32       	jn	$-924    	;abs 0x16a
 508:	30 34       	jge	$+98     	;abs 0x56a
 50a:	30 36       	jge	$-926    	;abs 0x16c
 50c:	2f 2e       	jc	$-928    	;abs 0x16c
 50e:	2f 67       	addc	@r7,	r15	
 510:	63 63       	.word	0x6363;	????	Illegal as 2-op instr
 512:	2d 34       	jge	$+92     	;abs 0x56e
 514:	2e 36       	jge	$-930    	;abs 0x172
 516:	2e 33       	jn	$-418    	;abs 0x374
 518:	2f 6c       	addc	@r12,	r15	
 51a:	69 62       	addc.b	#4,	r9	;r2 As==10
 51c:	67 63       	addc.b	#2,	r7	;r3 As==10
 51e:	63 2f       	jc	$-312    	;abs 0x3e6
 520:	2e 2e       	jc	$-930    	;abs 0x17e
 522:	2f 67       	addc	@r7,	r15	
 524:	63 63       	.word	0x6363;	????	Illegal as 2-op instr
 526:	2f 63       	addc	#2,	r15	;r3 As==10
 528:	6f 6e       	addc.b	@r14,	r15	
 52a:	66 69       	addc.b	@r9,	r6	
 52c:	67 2f       	jc	$-304    	;abs 0x3fc
 52e:	6d 73       	subc.b	#2,	r13	;r3 As==10
 530:	70 34       	jge	$+226    	;abs 0x612
 532:	33 30       	jn	$+104    	;abs 0x59a
 534:	00 00       	.word	0x0000;	????	
 536:	6c 69       	addc.b	@r9,	r12	
 538:	62 67       	addc.b	@r7,	r2	
 53a:	63 63       	.word	0x6363;	????	Illegal as 2-op instr
 53c:	2e 53       	incd	r14		
 53e:	00 01       	.word	0x0100;	????	
 540:	00 00       	.word	0x0000;	????	
 542:	00 00       	.word	0x0000;	????	
 544:	03 02       	.word	0x0203;	????	
 546:	f2 c9 03 c6 	bic.b	@r9+,	&0xc603	
 54a:	04 01       	.word	0x0104;	????	
 54c:	2f 2f       	jc	$-416    	;abs 0x3ac
 54e:	2f 4b       	mov	@r11,	r15	
 550:	2f 2f       	jc	$-416    	;abs 0x3b0
 552:	2f 2f       	jc	$-416    	;abs 0x3b2
 554:	2f 2f       	jc	$-416    	;abs 0x3b4
 556:	2f 2f       	jc	$-416    	;abs 0x3b6
 558:	4b 2f       	jc	$-360    	;abs 0x3f0
 55a:	2f 2f       	jc	$-416    	;abs 0x3ba
 55c:	2f 2f       	jc	$-416    	;abs 0x3bc
 55e:	2f 2f       	jc	$-416    	;abs 0x3be
 560:	2f 2f       	jc	$-416    	;abs 0x3c0
 562:	34 4b       	mov	@r11+,	r4	
 564:	2f 02       	.word	0x022f;	????	
 566:	02 00       	.word	0x0002;	????	
 568:	01 01       	.word	0x0101;	????	
 56a:	a3 00       	.word	0x00a3;	????	
 56c:	00 00       	.word	0x0000;	????	
 56e:	02 00       	.word	0x0002;	????	
 570:	81 00       	.word	0x0081;	????	
 572:	00 00       	.word	0x0000;	????	
 574:	01 01       	.word	0x0101;	????	
 576:	fb 0e       	.word	0x0efb;	????	
 578:	0d 00       	.word	0x000d;	????	
 57a:	01 01       	.word	0x0101;	????	
 57c:	01 01       	.word	0x0101;	????	
 57e:	00 00       	.word	0x0000;	????	
 580:	00 01       	.word	0x0100;	????	
 582:	00 00       	.word	0x0000;	????	
 584:	01 2f       	jc	$-508    	;abs 0x388
 586:	62 75       	subc.b	@r5,	r2	
 588:	69 6c       	addc.b	@r12,	r9	
 58a:	64 2f       	jc	$-310    	;abs 0x454
 58c:	67 63       	addc.b	#2,	r7	;r3 As==10
 58e:	63 2d       	jc	$+712    	;abs 0x856
 590:	6d 73       	subc.b	#2,	r13	;r3 As==10
 592:	70 34       	jge	$+226    	;abs 0x674
 594:	33 30       	jn	$+104    	;abs 0x5fc
 596:	2d 67       	addc	@r7,	r13	
 598:	52 42 52 52 	mov.b	&0x5252,r2	
 59c:	6f 2f       	jc	$-288    	;abs 0x47c
 59e:	67 63       	addc.b	#2,	r7	;r3 As==10
 5a0:	63 2d       	jc	$+712    	;abs 0x868
 5a2:	6d 73       	subc.b	#2,	r13	;r3 As==10
 5a4:	70 34       	jge	$+226    	;abs 0x686
 5a6:	33 30       	jn	$+104    	;abs 0x60e
 5a8:	2d 34       	jge	$+92     	;abs 0x604
 5aa:	2e 36       	jge	$-930    	;abs 0x208
 5ac:	2e 33       	jn	$-418    	;abs 0x40a
 5ae:	7e 6d       	addc.b	@r13+,	r14	
 5b0:	73 70       	.word	0x7073;	????	Illegal as 2-op instr
 5b2:	67 63       	addc.b	#2,	r7	;r3 As==10
 5b4:	63 2d       	jc	$+712    	;abs 0x87c
 5b6:	32 30       	jn	$+102    	;abs 0x61c
 5b8:	31 32       	jn	$-924    	;abs 0x21c
 5ba:	30 34       	jge	$+98     	;abs 0x61c
 5bc:	30 36       	jge	$-926    	;abs 0x21e
 5be:	2f 2e       	jc	$-928    	;abs 0x21e
 5c0:	2f 67       	addc	@r7,	r15	
 5c2:	63 63       	.word	0x6363;	????	Illegal as 2-op instr
 5c4:	2d 34       	jge	$+92     	;abs 0x620
 5c6:	2e 36       	jge	$-930    	;abs 0x224
 5c8:	2e 33       	jn	$-418    	;abs 0x426
 5ca:	2f 6c       	addc	@r12,	r15	
 5cc:	69 62       	addc.b	#4,	r9	;r2 As==10
 5ce:	67 63       	addc.b	#2,	r7	;r3 As==10
 5d0:	63 2f       	jc	$-312    	;abs 0x498
 5d2:	2e 2e       	jc	$-930    	;abs 0x230
 5d4:	2f 67       	addc	@r7,	r15	
 5d6:	63 63       	.word	0x6363;	????	Illegal as 2-op instr
 5d8:	2f 63       	addc	#2,	r15	;r3 As==10
 5da:	6f 6e       	addc.b	@r14,	r15	
 5dc:	66 69       	addc.b	@r9,	r6	
 5de:	67 2f       	jc	$-304    	;abs 0x4ae
 5e0:	6d 73       	subc.b	#2,	r13	;r3 As==10
 5e2:	70 34       	jge	$+226    	;abs 0x6c4
 5e4:	33 30       	jn	$+104    	;abs 0x64c
 5e6:	00 00       	.word	0x0000;	????	
 5e8:	6c 69       	addc.b	@r9,	r12	
 5ea:	62 67       	addc.b	@r7,	r2	
 5ec:	63 63       	.word	0x6363;	????	Illegal as 2-op instr
 5ee:	2e 53       	incd	r14		
 5f0:	00 01       	.word	0x0100;	????	
 5f2:	00 00       	.word	0x0000;	????	
 5f4:	00 00       	.word	0x0000;	????	
 5f6:	03 02       	.word	0x0203;	????	
 5f8:	2c ca       	bic	@r10,	r12	
 5fa:	03 a4       	.word	0xa403;	????	Illegal as 2-op instr
 5fc:	04 01       	.word	0x0104;	????	
 5fe:	4b 2f       	jc	$-360    	;abs 0x496
 600:	2f 2f       	jc	$-416    	;abs 0x460
 602:	2f 2f       	jc	$-416    	;abs 0x462
 604:	2f 2f       	jc	$-416    	;abs 0x464
 606:	2f 2f       	jc	$-416    	;abs 0x466
 608:	2f 34       	jge	$+96     	;abs 0x668
 60a:	4b 2f       	jc	$-360    	;abs 0x4a2
 60c:	02 02       	.word	0x0202;	????	
 60e:	00 01       	.word	0x0100;	????	
 610:	01 c4       	bic	r4,	r1	
 612:	00 00       	.word	0x0000;	????	
 614:	00 02       	.word	0x0200;	????	
 616:	00 72       	subc	r2,	r0	
 618:	00 00       	.word	0x0000;	????	
 61a:	00 01       	.word	0x0100;	????	
 61c:	01 fb       	and	r11,	r1	
 61e:	0e 0d       	.word	0x0d0e;	????	
 620:	00 01       	.word	0x0100;	????	
 622:	01 01       	.word	0x0101;	????	
 624:	01 00       	.word	0x0001;	????	
 626:	00 00       	.word	0x0000;	????	
 628:	01 00       	.word	0x0001;	????	
 62a:	00 01       	.word	0x0100;	????	
 62c:	2e 2f       	jc	$-418    	;abs 0x48a
 62e:	73 74       	.word	0x7473;	????	Illegal as 2-op instr
 630:	72 69       	addc.b	@r9+,	r2	
 632:	6e 67       	addc.b	@r7,	r14	
 634:	00 2e       	jc	$-1022   	;abs 0x236
 636:	2f 2e       	jc	$-928    	;abs 0x296
 638:	2e 2f       	jc	$-418    	;abs 0x496
 63a:	69 6e       	addc.b	@r14,	r9	
 63c:	63 6c       	.word	0x6c63;	????	Illegal as 2-op instr
 63e:	75 64       	addc.b	@r4+,	r5	
 640:	65 2f       	jc	$-308    	;abs 0x50c
 642:	73 79       	.word	0x7973;	????	Illegal as 2-op instr
 644:	73 00       	.word	0x0073;	????	
 646:	2f 75       	subc	@r5,	r15	
 648:	73 72       	.word	0x7273;	????	Illegal as 2-op instr
 64a:	2f 6c       	addc	@r12,	r15	
 64c:	69 62       	addc.b	#4,	r9	;r2 As==10
 64e:	2f 67       	addc	@r7,	r15	
 650:	63 63       	.word	0x6363;	????	Illegal as 2-op instr
 652:	2f 6d       	addc	@r13,	r15	
 654:	73 70       	.word	0x7073;	????	Illegal as 2-op instr
 656:	34 33       	jn	$-406    	;abs 0x4c0
 658:	30 2f       	jc	$-414    	;abs 0x4ba
 65a:	34 2e       	jc	$-918    	;abs 0x2c4
 65c:	36 2e       	jc	$-914    	;abs 0x2ca
 65e:	33 2f       	jc	$-408    	;abs 0x4c6
 660:	69 6e       	addc.b	@r14,	r9	
 662:	63 6c       	.word	0x6c63;	????	Illegal as 2-op instr
 664:	75 64       	addc.b	@r4+,	r5	
 666:	65 00       	.word	0x0065;	????	
 668:	00 6d       	addc	r13,	r0	
 66a:	65 6d       	addc.b	@r13,	r5	
 66c:	73 65       	.word	0x6573;	????	Illegal as 2-op instr
 66e:	74 2e       	jc	$-790    	;abs 0x358
 670:	63 00       	.word	0x0063;	????	
 672:	01 00       	.word	0x0001;	????	
 674:	00 74       	subc	r4,	r0	
 676:	79 70 65 73 	subc.b	#29541,	r9	;#0x7365
 67a:	2e 68       	addc	@r8,	r14	
 67c:	00 02       	.word	0x0200;	????	
 67e:	00 00       	.word	0x0000;	????	
 680:	73 74       	.word	0x7473;	????	Illegal as 2-op instr
 682:	64 64       	addc.b	@r4,	r4	
 684:	65 66       	addc.b	@r6,	r5	
 686:	2e 68       	addc	@r8,	r14	
 688:	00 03       	.word	0x0300;	????	
 68a:	00 00       	.word	0x0000;	????	
 68c:	00 00       	.word	0x0000;	????	
 68e:	03 02       	.word	0x0203;	????	
 690:	4e ca       	bic.b	r10,	r14	
 692:	03 3d       	jmp	$+520    	;abs 0x89a
 694:	01 03       	.word	0x0301;	????	
 696:	15 82 00 02 	sub	&0x0200,r5	
 69a:	04 01       	.word	0x0104;	????	
 69c:	06 66       	rlc	r6		
 69e:	06 4e       	mov	r14,	r6	
 6a0:	67 00       	.word	0x0067;	????	
 6a2:	02 04       	.word	0x0402;	????	
 6a4:	01 2b       	jnc	$-508    	;abs 0x4a8
 6a6:	03 09       	.word	0x0903;	????	
 6a8:	66 84       	sub.b	@r4,	r6	
 6aa:	03 0a       	.word	0x0a03;	????	
 6ac:	66 4d       	mov.b	@r13,	r6	
 6ae:	31 03       	.word	0x0331;	????	
 6b0:	7a 9e       	cmp.b	@r14+,	r10	
 6b2:	03 0c       	.word	0x0c03;	????	
 6b4:	2e 00       	.word	0x002e;	????	
 6b6:	02 04       	.word	0x0402;	????	
 6b8:	01 a1       	dadd	r1,	r1	
 6ba:	00 02       	.word	0x0200;	????	
 6bc:	04 01       	.word	0x0104;	????	
 6be:	4b 00       	.word	0x004b;	????	
 6c0:	02 04       	.word	0x0402;	????	
 6c2:	01 30       	jn	$+4      	;abs 0x6c6
 6c4:	03 bd       	.word	0xbd03;	????	Illegal as 2-op instr
 6c6:	7f 4a       	mov.b	@r10+,	r15	
 6c8:	03 c3       	.word	0xc303;	????	Illegal as 2-op instr
 6ca:	00 2e       	jc	$-1022   	;abs 0x2cc
 6cc:	31 2f       	jc	$-412    	;abs 0x530
 6ce:	00 02       	.word	0x0200;	????	
 6d0:	04 01       	.word	0x0104;	????	
 6d2:	31 4e       	mov	@r14+,	r1	
 6d4:	02 0a       	.word	0x0a02;	????	
 6d6:	00 01       	.word	0x0100;	????	
 6d8:	01 6a       	addc	r10,	r1	
 6da:	00 00       	.word	0x0000;	????	
 6dc:	00 02       	.word	0x0200;	????	
 6de:	00 26       	jz	$-1022   	;abs 0x2e0
 6e0:	00 00       	.word	0x0000;	????	
 6e2:	00 01       	.word	0x0100;	????	
 6e4:	01 fb       	and	r11,	r1	
 6e6:	0e 0d       	.word	0x0d0e;	????	
 6e8:	00 01       	.word	0x0100;	????	
 6ea:	01 01       	.word	0x0101;	????	
 6ec:	01 00       	.word	0x0001;	????	
 6ee:	00 00       	.word	0x0000;	????	
 6f0:	01 00       	.word	0x0001;	????	
 6f2:	00 01       	.word	0x0100;	????	
 6f4:	2e 2f       	jc	$-418    	;abs 0x552
 6f6:	73 74       	.word	0x7473;	????	Illegal as 2-op instr
 6f8:	64 6c       	addc.b	@r12,	r4	
 6fa:	69 62       	addc.b	#4,	r9	;r2 As==10
 6fc:	00 00       	.word	0x0000;	????	
 6fe:	61 74       	subc.b	@r4,	r1	
 700:	6f 69       	addc.b	@r9,	r15	
 702:	2e 63       	addc	#2,	r14	;r3 As==10
 704:	00 01       	.word	0x0100;	????	
 706:	00 00       	.word	0x0000;	????	
 708:	00 00       	.word	0x0000;	????	
 70a:	03 02       	.word	0x0203;	????	
 70c:	b8 ca 18 4e 	bic	@r10+,	19992(r8);0x4e18(r8)
 710:	00 02       	.word	0x0200;	????	
 712:	04 01       	.word	0x0104;	????	
 714:	33 00       	.word	0x0033;	????	
 716:	02 04       	.word	0x0402;	????	
 718:	01 29       	jnc	$+516    	;abs 0x91c
 71a:	83 67       	addc	r7,	#1	;r3 As==01
 71c:	67 67       	addc.b	@r7,	r7	
 71e:	67 68       	addc.b	@r8,	r7	
 720:	69 2d       	jc	$+724    	;abs 0x9f4
 722:	4d 00       	.word	0x004d;	????	
 724:	02 04       	.word	0x0402;	????	
 726:	01 06       	.word	0x0601;	????	
 728:	66 06       	.word	0x0666;	????	
 72a:	03 71       	.word	0x7103;	????	Illegal as 2-op instr
 72c:	2e 03       	.word	0x032e;	????	
 72e:	11 2e       	jc	$-988    	;abs 0x352
 730:	f6 bc d7 9f 	bit.b	@r12+,	-24617(r6);0x9fd7(r6)
 734:	30 00       	.word	0x0030;	????	
 736:	02 04       	.word	0x0402;	????	
 738:	01 06       	.word	0x0601;	????	
 73a:	4a 06       	.word	0x064a;	????	
 73c:	03 76       	.word	0x7603;	????	Illegal as 2-op instr
 73e:	66 03       	.word	0x0366;	????	
 740:	0d 2e       	jc	$-996    	;abs 0x35c
 742:	02 04       	.word	0x0402;	????	
 744:	00 01       	.word	0x0100;	????	
 746:	01 8b       	sub	r11,	r1	
 748:	00 00       	.word	0x0000;	????	
 74a:	00 02       	.word	0x0200;	????	
 74c:	00 75       	subc	r5,	r0	
 74e:	00 00       	.word	0x0000;	????	
 750:	00 01       	.word	0x0100;	????	
 752:	01 fb       	and	r11,	r1	
 754:	0e 0d       	.word	0x0d0e;	????	
 756:	00 01       	.word	0x0100;	????	
 758:	01 01       	.word	0x0101;	????	
 75a:	01 00       	.word	0x0001;	????	
 75c:	00 00       	.word	0x0000;	????	
 75e:	01 00       	.word	0x0001;	????	
 760:	00 01       	.word	0x0100;	????	
 762:	2f 62       	addc	#4,	r15	;r2 As==10
 764:	75 69       	addc.b	@r9+,	r5	
 766:	6c 64       	addc.b	@r4,	r12	
 768:	2f 67       	addc	@r7,	r15	
 76a:	63 63       	.word	0x6363;	????	Illegal as 2-op instr
 76c:	2d 6d       	addc	@r13,	r13	
 76e:	73 70       	.word	0x7073;	????	Illegal as 2-op instr
 770:	34 33       	jn	$-406    	;abs 0x5da
 772:	30 2d       	jc	$+610    	;abs 0x9d4
 774:	67 52       	add.b	#4,	r7	;r2 As==10
 776:	42 52       	rla.b	r2		
 778:	52 6f 2f 67 	addc.b	26415(r15),r2	;0x672f(r15)
 77c:	63 63       	.word	0x6363;	????	Illegal as 2-op instr
 77e:	2d 6d       	addc	@r13,	r13	
 780:	73 70       	.word	0x7073;	????	Illegal as 2-op instr
 782:	34 33       	jn	$-406    	;abs 0x5ec
 784:	30 2d       	jc	$+610    	;abs 0x9e6
 786:	34 2e       	jc	$-918    	;abs 0x3f0
 788:	36 2e       	jc	$-914    	;abs 0x3f6
 78a:	33 7e       	.word	0x7e33;	????	Illegal as 2-op instr
 78c:	6d 73       	subc.b	#2,	r13	;r3 As==10
 78e:	70 67       	addc.b	@r7+,	r0	
 790:	63 63       	.word	0x6363;	????	Illegal as 2-op instr
 792:	2d 32       	jn	$-932    	;abs 0x3ee
 794:	30 31       	jn	$+610    	;abs 0x9f6
 796:	32 30       	jn	$+102    	;abs 0x7fc
 798:	34 30       	jn	$+106    	;abs 0x802
 79a:	36 2f       	jc	$-402    	;abs 0x608
 79c:	2e 2f       	jc	$-418    	;abs 0x5fa
 79e:	67 63       	addc.b	#2,	r7	;r3 As==10
 7a0:	63 2d       	jc	$+712    	;abs 0xa68
 7a2:	34 2e       	jc	$-918    	;abs 0x40c
 7a4:	36 2e       	jc	$-914    	;abs 0x412
 7a6:	33 2f       	jc	$-408    	;abs 0x60e
 7a8:	67 63       	addc.b	#2,	r7	;r3 As==10
 7aa:	63 2f       	jc	$-312    	;abs 0x672
 7ac:	63 6f       	.word	0x6f63;	????	Illegal as 2-op instr
 7ae:	6e 66       	addc.b	@r6,	r14	
 7b0:	69 67       	addc.b	@r7,	r9	
 7b2:	2f 6d       	addc	@r13,	r15	
 7b4:	73 70       	.word	0x7073;	????	Illegal as 2-op instr
 7b6:	34 33       	jn	$-406    	;abs 0x620
 7b8:	30 00       	.word	0x0030;	????	
 7ba:	00 63       	adc	r0		
 7bc:	72 74       	subc.b	@r4+,	r2	
 7be:	30 2e       	jc	$-926    	;abs 0x420
 7c0:	53 00       	.word	0x0053;	????	
 7c2:	01 00       	.word	0x0001;	????	
 7c4:	00 00       	.word	0x0000;	????	
 7c6:	00 03       	.word	0x0300;	????	
 7c8:	02 00       	.word	0x0002;	????	
 7ca:	c0 03       	.word	0x03c0;	????	
 7cc:	e8 00       	.word	0x00e8;	????	
 7ce:	01 4b       	mov	r11,	r1	
 7d0:	4b 02       	.word	0x024b;	????	
 7d2:	04 00       	.word	0x0004;	????	
 7d4:	01 01       	.word	0x0101;	????	
 7d6:	89 00       	.word	0x0089;	????	
 7d8:	00 00       	.word	0x0000;	????	
 7da:	02 00       	.word	0x0002;	????	
 7dc:	75 00       	.word	0x0075;	????	
 7de:	00 00       	.word	0x0000;	????	
 7e0:	01 01       	.word	0x0101;	????	
 7e2:	fb 0e       	.word	0x0efb;	????	
 7e4:	0d 00       	.word	0x000d;	????	
 7e6:	01 01       	.word	0x0101;	????	
 7e8:	01 01       	.word	0x0101;	????	
 7ea:	00 00       	.word	0x0000;	????	
 7ec:	00 01       	.word	0x0100;	????	
 7ee:	00 00       	.word	0x0000;	????	
 7f0:	01 2f       	jc	$-508    	;abs 0x5f4
 7f2:	62 75       	subc.b	@r5,	r2	
 7f4:	69 6c       	addc.b	@r12,	r9	
 7f6:	64 2f       	jc	$-310    	;abs 0x6c0
 7f8:	67 63       	addc.b	#2,	r7	;r3 As==10
 7fa:	63 2d       	jc	$+712    	;abs 0xac2
 7fc:	6d 73       	subc.b	#2,	r13	;r3 As==10
 7fe:	70 34       	jge	$+226    	;abs 0x8e0
 800:	33 30       	jn	$+104    	;abs 0x868
 802:	2d 67       	addc	@r7,	r13	
 804:	52 42 52 52 	mov.b	&0x5252,r2	
 808:	6f 2f       	jc	$-288    	;abs 0x6e8
 80a:	67 63       	addc.b	#2,	r7	;r3 As==10
 80c:	63 2d       	jc	$+712    	;abs 0xad4
 80e:	6d 73       	subc.b	#2,	r13	;r3 As==10
 810:	70 34       	jge	$+226    	;abs 0x8f2
 812:	33 30       	jn	$+104    	;abs 0x87a
 814:	2d 34       	jge	$+92     	;abs 0x870
 816:	2e 36       	jge	$-930    	;abs 0x474
 818:	2e 33       	jn	$-418    	;abs 0x676
 81a:	7e 6d       	addc.b	@r13+,	r14	
 81c:	73 70       	.word	0x7073;	????	Illegal as 2-op instr
 81e:	67 63       	addc.b	#2,	r7	;r3 As==10
 820:	63 2d       	jc	$+712    	;abs 0xae8
 822:	32 30       	jn	$+102    	;abs 0x888
 824:	31 32       	jn	$-924    	;abs 0x488
 826:	30 34       	jge	$+98     	;abs 0x888
 828:	30 36       	jge	$-926    	;abs 0x48a
 82a:	2f 2e       	jc	$-928    	;abs 0x48a
 82c:	2f 67       	addc	@r7,	r15	
 82e:	63 63       	.word	0x6363;	????	Illegal as 2-op instr
 830:	2d 34       	jge	$+92     	;abs 0x88c
 832:	2e 36       	jge	$-930    	;abs 0x490
 834:	2e 33       	jn	$-418    	;abs 0x692
 836:	2f 67       	addc	@r7,	r15	
 838:	63 63       	.word	0x6363;	????	Illegal as 2-op instr
 83a:	2f 63       	addc	#2,	r15	;r3 As==10
 83c:	6f 6e       	addc.b	@r14,	r15	
 83e:	66 69       	addc.b	@r9,	r6	
 840:	67 2f       	jc	$-304    	;abs 0x710
 842:	6d 73       	subc.b	#2,	r13	;r3 As==10
 844:	70 34       	jge	$+226    	;abs 0x926
 846:	33 30       	jn	$+104    	;abs 0x8ae
 848:	00 00       	.word	0x0000;	????	
 84a:	63 72       	.word	0x7263;	????	Illegal as 2-op instr
 84c:	74 30       	jn	$+234    	;abs 0x936
 84e:	2e 53       	incd	r14		
 850:	00 01       	.word	0x0100;	????	
 852:	00 00       	.word	0x0000;	????	
 854:	00 00       	.word	0x0000;	????	
 856:	03 02       	.word	0x0203;	????	
 858:	0c c0       	bic	r0,	r12	
 85a:	03 99       	.word	0x9903;	????	Illegal as 2-op instr
 85c:	01 01       	.word	0x0101;	????	
 85e:	02 04       	.word	0x0402;	????	
 860:	00 01       	.word	0x0100;	????	
 862:	01 8f       	sub	r15,	r1	
 864:	00 00       	.word	0x0000;	????	
 866:	00 02       	.word	0x0200;	????	
 868:	00 75       	subc	r5,	r0	
 86a:	00 00       	.word	0x0000;	????	
 86c:	00 01       	.word	0x0100;	????	
 86e:	01 fb       	and	r11,	r1	
 870:	0e 0d       	.word	0x0d0e;	????	
 872:	00 01       	.word	0x0100;	????	
 874:	01 01       	.word	0x0101;	????	
 876:	01 00       	.word	0x0001;	????	
 878:	00 00       	.word	0x0000;	????	
 87a:	01 00       	.word	0x0001;	????	
 87c:	00 01       	.word	0x0100;	????	
 87e:	2f 62       	addc	#4,	r15	;r2 As==10
 880:	75 69       	addc.b	@r9+,	r5	
 882:	6c 64       	addc.b	@r4,	r12	
 884:	2f 67       	addc	@r7,	r15	
 886:	63 63       	.word	0x6363;	????	Illegal as 2-op instr
 888:	2d 6d       	addc	@r13,	r13	
 88a:	73 70       	.word	0x7073;	????	Illegal as 2-op instr
 88c:	34 33       	jn	$-406    	;abs 0x6f6
 88e:	30 2d       	jc	$+610    	;abs 0xaf0
 890:	67 52       	add.b	#4,	r7	;r2 As==10
 892:	42 52       	rla.b	r2		
 894:	52 6f 2f 67 	addc.b	26415(r15),r2	;0x672f(r15)
 898:	63 63       	.word	0x6363;	????	Illegal as 2-op instr
 89a:	2d 6d       	addc	@r13,	r13	
 89c:	73 70       	.word	0x7073;	????	Illegal as 2-op instr
 89e:	34 33       	jn	$-406    	;abs 0x708
 8a0:	30 2d       	jc	$+610    	;abs 0xb02
 8a2:	34 2e       	jc	$-918    	;abs 0x50c
 8a4:	36 2e       	jc	$-914    	;abs 0x512
 8a6:	33 7e       	.word	0x7e33;	????	Illegal as 2-op instr
 8a8:	6d 73       	subc.b	#2,	r13	;r3 As==10
 8aa:	70 67       	addc.b	@r7+,	r0	
 8ac:	63 63       	.word	0x6363;	????	Illegal as 2-op instr
 8ae:	2d 32       	jn	$-932    	;abs 0x50a
 8b0:	30 31       	jn	$+610    	;abs 0xb12
 8b2:	32 30       	jn	$+102    	;abs 0x918
 8b4:	34 30       	jn	$+106    	;abs 0x91e
 8b6:	36 2f       	jc	$-402    	;abs 0x724
 8b8:	2e 2f       	jc	$-418    	;abs 0x716
 8ba:	67 63       	addc.b	#2,	r7	;r3 As==10
 8bc:	63 2d       	jc	$+712    	;abs 0xb84
 8be:	34 2e       	jc	$-918    	;abs 0x528
 8c0:	36 2e       	jc	$-914    	;abs 0x52e
 8c2:	33 2f       	jc	$-408    	;abs 0x72a
 8c4:	67 63       	addc.b	#2,	r7	;r3 As==10
 8c6:	63 2f       	jc	$-312    	;abs 0x78e
 8c8:	63 6f       	.word	0x6f63;	????	Illegal as 2-op instr
 8ca:	6e 66       	addc.b	@r6,	r14	
 8cc:	69 67       	addc.b	@r7,	r9	
 8ce:	2f 6d       	addc	@r13,	r15	
 8d0:	73 70       	.word	0x7073;	????	Illegal as 2-op instr
 8d2:	34 33       	jn	$-406    	;abs 0x73c
 8d4:	30 00       	.word	0x0030;	????	
 8d6:	00 63       	adc	r0		
 8d8:	72 74       	subc.b	@r4+,	r2	
 8da:	30 2e       	jc	$-926    	;abs 0x53c
 8dc:	53 00       	.word	0x0053;	????	
 8de:	01 00       	.word	0x0001;	????	
 8e0:	00 00       	.word	0x0000;	????	
 8e2:	00 03       	.word	0x0300;	????	
 8e4:	02 10       	rrc	r2		
 8e6:	c0 03       	.word	0x03c0;	????	
 8e8:	bc 01       	.word	0x01bc;	????	
 8ea:	01 4b       	mov	r11,	r1	
 8ec:	2f 30       	jn	$+96     	;abs 0x94c
 8ee:	67 2f       	jc	$-304    	;abs 0x7be
 8f0:	67 02       	.word	0x0267;	????	
 8f2:	02 00       	.word	0x0002;	????	
 8f4:	01 01       	.word	0x0101;	????	
 8f6:	8f 00       	.word	0x008f;	????	
 8f8:	00 00       	.word	0x0000;	????	
 8fa:	02 00       	.word	0x0002;	????	
 8fc:	75 00       	.word	0x0075;	????	
 8fe:	00 00       	.word	0x0000;	????	
 900:	01 01       	.word	0x0101;	????	
 902:	fb 0e       	.word	0x0efb;	????	
 904:	0d 00       	.word	0x000d;	????	
 906:	01 01       	.word	0x0101;	????	
 908:	01 01       	.word	0x0101;	????	
 90a:	00 00       	.word	0x0000;	????	
 90c:	00 01       	.word	0x0100;	????	
 90e:	00 00       	.word	0x0000;	????	
 910:	01 2f       	jc	$-508    	;abs 0x714
 912:	62 75       	subc.b	@r5,	r2	
 914:	69 6c       	addc.b	@r12,	r9	
 916:	64 2f       	jc	$-310    	;abs 0x7e0
 918:	67 63       	addc.b	#2,	r7	;r3 As==10
 91a:	63 2d       	jc	$+712    	;abs 0xbe2
 91c:	6d 73       	subc.b	#2,	r13	;r3 As==10
 91e:	70 34       	jge	$+226    	;abs 0xa00
 920:	33 30       	jn	$+104    	;abs 0x988
 922:	2d 67       	addc	@r7,	r13	
 924:	52 42 52 52 	mov.b	&0x5252,r2	
 928:	6f 2f       	jc	$-288    	;abs 0x808
 92a:	67 63       	addc.b	#2,	r7	;r3 As==10
 92c:	63 2d       	jc	$+712    	;abs 0xbf4
 92e:	6d 73       	subc.b	#2,	r13	;r3 As==10
 930:	70 34       	jge	$+226    	;abs 0xa12
 932:	33 30       	jn	$+104    	;abs 0x99a
 934:	2d 34       	jge	$+92     	;abs 0x990
 936:	2e 36       	jge	$-930    	;abs 0x594
 938:	2e 33       	jn	$-418    	;abs 0x796
 93a:	7e 6d       	addc.b	@r13+,	r14	
 93c:	73 70       	.word	0x7073;	????	Illegal as 2-op instr
 93e:	67 63       	addc.b	#2,	r7	;r3 As==10
 940:	63 2d       	jc	$+712    	;abs 0xc08
 942:	32 30       	jn	$+102    	;abs 0x9a8
 944:	31 32       	jn	$-924    	;abs 0x5a8
 946:	30 34       	jge	$+98     	;abs 0x9a8
 948:	30 36       	jge	$-926    	;abs 0x5aa
 94a:	2f 2e       	jc	$-928    	;abs 0x5aa
 94c:	2f 67       	addc	@r7,	r15	
 94e:	63 63       	.word	0x6363;	????	Illegal as 2-op instr
 950:	2d 34       	jge	$+92     	;abs 0x9ac
 952:	2e 36       	jge	$-930    	;abs 0x5b0
 954:	2e 33       	jn	$-418    	;abs 0x7b2
 956:	2f 67       	addc	@r7,	r15	
 958:	63 63       	.word	0x6363;	????	Illegal as 2-op instr
 95a:	2f 63       	addc	#2,	r15	;r3 As==10
 95c:	6f 6e       	addc.b	@r14,	r15	
 95e:	66 69       	addc.b	@r9,	r6	
 960:	67 2f       	jc	$-304    	;abs 0x830
 962:	6d 73       	subc.b	#2,	r13	;r3 As==10
 964:	70 34       	jge	$+226    	;abs 0xa46
 966:	33 30       	jn	$+104    	;abs 0x9ce
 968:	00 00       	.word	0x0000;	????	
 96a:	63 72       	.word	0x7263;	????	Illegal as 2-op instr
 96c:	74 30       	jn	$+234    	;abs 0xa56
 96e:	2e 53       	incd	r14		
 970:	00 01       	.word	0x0100;	????	
 972:	00 00       	.word	0x0000;	????	
 974:	00 00       	.word	0x0000;	????	
 976:	03 02       	.word	0x0203;	????	
 978:	28 c0       	bic	@r0,	r8	
 97a:	03 d6       	.word	0xd603;	????	Illegal as 2-op instr
 97c:	01 01       	.word	0x0101;	????	
 97e:	4b 2f       	jc	$-360    	;abs 0x816
 980:	30 67       	addc	@r7+,	r0	
 982:	2f 4b       	mov	@r11,	r15	
 984:	02 02       	.word	0x0202;	????	
 986:	00 01       	.word	0x0100;	????	
 988:	01 8a       	sub	r10,	r1	
 98a:	00 00       	.word	0x0000;	????	
 98c:	00 02       	.word	0x0200;	????	
 98e:	00 75       	subc	r5,	r0	
 990:	00 00       	.word	0x0000;	????	
 992:	00 01       	.word	0x0100;	????	
 994:	01 fb       	and	r11,	r1	
 996:	0e 0d       	.word	0x0d0e;	????	
 998:	00 01       	.word	0x0100;	????	
 99a:	01 01       	.word	0x0101;	????	
 99c:	01 00       	.word	0x0001;	????	
 99e:	00 00       	.word	0x0000;	????	
 9a0:	01 00       	.word	0x0001;	????	
 9a2:	00 01       	.word	0x0100;	????	
 9a4:	2f 62       	addc	#4,	r15	;r2 As==10
 9a6:	75 69       	addc.b	@r9+,	r5	
 9a8:	6c 64       	addc.b	@r4,	r12	
 9aa:	2f 67       	addc	@r7,	r15	
 9ac:	63 63       	.word	0x6363;	????	Illegal as 2-op instr
 9ae:	2d 6d       	addc	@r13,	r13	
 9b0:	73 70       	.word	0x7073;	????	Illegal as 2-op instr
 9b2:	34 33       	jn	$-406    	;abs 0x81c
 9b4:	30 2d       	jc	$+610    	;abs 0xc16
 9b6:	67 52       	add.b	#4,	r7	;r2 As==10
 9b8:	42 52       	rla.b	r2		
 9ba:	52 6f 2f 67 	addc.b	26415(r15),r2	;0x672f(r15)
 9be:	63 63       	.word	0x6363;	????	Illegal as 2-op instr
 9c0:	2d 6d       	addc	@r13,	r13	
 9c2:	73 70       	.word	0x7073;	????	Illegal as 2-op instr
 9c4:	34 33       	jn	$-406    	;abs 0x82e
 9c6:	30 2d       	jc	$+610    	;abs 0xc28
 9c8:	34 2e       	jc	$-918    	;abs 0x632
 9ca:	36 2e       	jc	$-914    	;abs 0x638
 9cc:	33 7e       	.word	0x7e33;	????	Illegal as 2-op instr
 9ce:	6d 73       	subc.b	#2,	r13	;r3 As==10
 9d0:	70 67       	addc.b	@r7+,	r0	
 9d2:	63 63       	.word	0x6363;	????	Illegal as 2-op instr
 9d4:	2d 32       	jn	$-932    	;abs 0x630
 9d6:	30 31       	jn	$+610    	;abs 0xc38
 9d8:	32 30       	jn	$+102    	;abs 0xa3e
 9da:	34 30       	jn	$+106    	;abs 0xa44
 9dc:	36 2f       	jc	$-402    	;abs 0x84a
 9de:	2e 2f       	jc	$-418    	;abs 0x83c
 9e0:	67 63       	addc.b	#2,	r7	;r3 As==10
 9e2:	63 2d       	jc	$+712    	;abs 0xcaa
 9e4:	34 2e       	jc	$-918    	;abs 0x64e
 9e6:	36 2e       	jc	$-914    	;abs 0x654
 9e8:	33 2f       	jc	$-408    	;abs 0x850
 9ea:	67 63       	addc.b	#2,	r7	;r3 As==10
 9ec:	63 2f       	jc	$-312    	;abs 0x8b4
 9ee:	63 6f       	.word	0x6f63;	????	Illegal as 2-op instr
 9f0:	6e 66       	addc.b	@r6,	r14	
 9f2:	69 67       	addc.b	@r7,	r9	
 9f4:	2f 6d       	addc	@r13,	r15	
 9f6:	73 70       	.word	0x7073;	????	Illegal as 2-op instr
 9f8:	34 33       	jn	$-406    	;abs 0x862
 9fa:	30 00       	.word	0x0030;	????	
 9fc:	00 63       	adc	r0		
 9fe:	72 74       	subc.b	@r4+,	r2	
 a00:	30 2e       	jc	$-926    	;abs 0x662
 a02:	53 00       	.word	0x0053;	????	
 a04:	01 00       	.word	0x0001;	????	
 a06:	00 00       	.word	0x0000;	????	
 a08:	00 03       	.word	0x0300;	????	
 a0a:	02 48       	mov	r8,	r2	
 a0c:	c1 03       	.word	0x03c1;	????	
 a0e:	fe 01       	.word	0x01fe;	????	
 a10:	01 4b       	mov	r11,	r1	
 a12:	02 02       	.word	0x0202;	????	
 a14:	00 01       	.word	0x0100;	????	
 a16:	01 89       	sub	r9,	r1	
 a18:	00 00       	.word	0x0000;	????	
 a1a:	00 02       	.word	0x0200;	????	
 a1c:	00 75       	subc	r5,	r0	
 a1e:	00 00       	.word	0x0000;	????	
 a20:	00 01       	.word	0x0100;	????	
 a22:	01 fb       	and	r11,	r1	
 a24:	0e 0d       	.word	0x0d0e;	????	
 a26:	00 01       	.word	0x0100;	????	
 a28:	01 01       	.word	0x0101;	????	
 a2a:	01 00       	.word	0x0001;	????	
 a2c:	00 00       	.word	0x0000;	????	
 a2e:	01 00       	.word	0x0001;	????	
 a30:	00 01       	.word	0x0100;	????	
 a32:	2f 62       	addc	#4,	r15	;r2 As==10
 a34:	75 69       	addc.b	@r9+,	r5	
 a36:	6c 64       	addc.b	@r4,	r12	
 a38:	2f 67       	addc	@r7,	r15	
 a3a:	63 63       	.word	0x6363;	????	Illegal as 2-op instr
 a3c:	2d 6d       	addc	@r13,	r13	
 a3e:	73 70       	.word	0x7073;	????	Illegal as 2-op instr
 a40:	34 33       	jn	$-406    	;abs 0x8aa
 a42:	30 2d       	jc	$+610    	;abs 0xca4
 a44:	67 52       	add.b	#4,	r7	;r2 As==10
 a46:	42 52       	rla.b	r2		
 a48:	52 6f 2f 67 	addc.b	26415(r15),r2	;0x672f(r15)
 a4c:	63 63       	.word	0x6363;	????	Illegal as 2-op instr
 a4e:	2d 6d       	addc	@r13,	r13	
 a50:	73 70       	.word	0x7073;	????	Illegal as 2-op instr
 a52:	34 33       	jn	$-406    	;abs 0x8bc
 a54:	30 2d       	jc	$+610    	;abs 0xcb6
 a56:	34 2e       	jc	$-918    	;abs 0x6c0
 a58:	36 2e       	jc	$-914    	;abs 0x6c6
 a5a:	33 7e       	.word	0x7e33;	????	Illegal as 2-op instr
 a5c:	6d 73       	subc.b	#2,	r13	;r3 As==10
 a5e:	70 67       	addc.b	@r7+,	r0	
 a60:	63 63       	.word	0x6363;	????	Illegal as 2-op instr
 a62:	2d 32       	jn	$-932    	;abs 0x6be
 a64:	30 31       	jn	$+610    	;abs 0xcc6
 a66:	32 30       	jn	$+102    	;abs 0xacc
 a68:	34 30       	jn	$+106    	;abs 0xad2
 a6a:	36 2f       	jc	$-402    	;abs 0x8d8
 a6c:	2e 2f       	jc	$-418    	;abs 0x8ca
 a6e:	67 63       	addc.b	#2,	r7	;r3 As==10
 a70:	63 2d       	jc	$+712    	;abs 0xd38
 a72:	34 2e       	jc	$-918    	;abs 0x6dc
 a74:	36 2e       	jc	$-914    	;abs 0x6e2
 a76:	33 2f       	jc	$-408    	;abs 0x8de
 a78:	67 63       	addc.b	#2,	r7	;r3 As==10
 a7a:	63 2f       	jc	$-312    	;abs 0x942
 a7c:	63 6f       	.word	0x6f63;	????	Illegal as 2-op instr
 a7e:	6e 66       	addc.b	@r6,	r14	
 a80:	69 67       	addc.b	@r7,	r9	
 a82:	2f 6d       	addc	@r13,	r15	
 a84:	73 70       	.word	0x7073;	????	Illegal as 2-op instr
 a86:	34 33       	jn	$-406    	;abs 0x8f0
 a88:	30 00       	.word	0x0030;	????	
 a8a:	00 63       	adc	r0		
 a8c:	72 74       	subc.b	@r4+,	r2	
 a8e:	30 2e       	jc	$-926    	;abs 0x6f0
 a90:	53 00       	.word	0x0053;	????	
 a92:	01 00       	.word	0x0001;	????	
 a94:	00 00       	.word	0x0000;	????	
 a96:	00 03       	.word	0x0300;	????	
 a98:	02 42       	mov	r2,	r2	
 a9a:	cb 03       	.word	0x03cb;	????	
 a9c:	cd 02       	.word	0x02cd;	????	
 a9e:	01 02       	.word	0x0201;	????	
 aa0:	02 00       	.word	0x0002;	????	
 aa2:	01 01       	.word	0x0101;	????	

Disassembly of section .debug_frame:

00000000 <.debug_frame>:
   0:	0e 00       	.word	0x000e;	????	
   2:	00 00       	.word	0x0000;	????	
   4:	ff ff ff ff 	and.b	@r15+,	-1(r15)	;0xffff(r15)
   8:	01 00       	.word	0x0001;	????	
   a:	01 7e       	subc	r14,	r1	
   c:	00 0c       	.word	0x0c00;	????	
   e:	01 02       	.word	0x0201;	????	
  10:	80 01       	.word	0x0180;	????	
  12:	62 00       	.word	0x0062;	????	
  14:	00 00       	.word	0x0000;	????	
  16:	00 00       	.word	0x0000;	????	
  18:	00 00       	.word	0x0000;	????	
  1a:	52 c1 88 00 	bic.b	136(r1),r2	;0x0088(r1)
  1e:	42 0e       	.word	0x0e42;	????	
  20:	04 8b       	sub	r11,	r4	
  22:	02 46       	mov	r6,	r2	
  24:	0e 06       	.word	0x060e;	????	
  26:	44 0e       	.word	0x0e44;	????	
  28:	08 40       	mov	r0,	r8	
  2a:	2e 04       	.word	0x042e;	????	
  2c:	46 0e       	.word	0x0e46;	????	
  2e:	04 44       	mov	r4,	r4	
  30:	0e 06       	.word	0x060e;	????	
  32:	44 0e       	.word	0x0e44;	????	
  34:	08 46       	mov	r6,	r8	
  36:	0e 04       	.word	0x040e;	????	
  38:	44 0e       	.word	0x0e44;	????	
  3a:	06 44       	mov	r4,	r6	
  3c:	0e 08       	.word	0x080e;	????	
  3e:	46 0e       	.word	0x0e46;	????	
  40:	04 44       	mov	r4,	r4	
  42:	0e 06       	.word	0x060e;	????	
  44:	44 0e       	.word	0x0e44;	????	
  46:	08 46       	mov	r6,	r8	
  48:	0e 04       	.word	0x040e;	????	
  4a:	44 0e       	.word	0x0e44;	????	
  4c:	06 44       	mov	r4,	r6	
  4e:	0e 08       	.word	0x080e;	????	
  50:	46 0e       	.word	0x0e46;	????	
  52:	04 44       	mov	r4,	r4	
  54:	0e 06       	.word	0x060e;	????	
  56:	44 0e       	.word	0x0e44;	????	
  58:	08 46       	mov	r6,	r8	
  5a:	0e 04       	.word	0x040e;	????	
  5c:	44 0e       	.word	0x0e44;	????	
  5e:	06 44       	mov	r4,	r6	
  60:	0e 08       	.word	0x080e;	????	
  62:	46 0e       	.word	0x0e46;	????	
  64:	04 44       	mov	r4,	r4	
  66:	0e 06       	.word	0x060e;	????	
  68:	44 0e       	.word	0x0e44;	????	
  6a:	08 46       	mov	r6,	r8	
  6c:	0e 04       	.word	0x040e;	????	
  6e:	44 0e       	.word	0x0e44;	????	
  70:	06 44       	mov	r4,	r6	
  72:	0e 08       	.word	0x080e;	????	
  74:	46 0e       	.word	0x0e46;	????	
  76:	04 00       	.word	0x0004;	????	
  78:	1e 00       	.word	0x001e;	????	
  7a:	00 00       	.word	0x0000;	????	
  7c:	00 00       	.word	0x0000;	????	
  7e:	00 00       	.word	0x0000;	????	
  80:	da c1 40 00 	bic.b	64(r1),	3650(r10);0x0040(r1), 0x0e42(r10)
  84:	42 0e 
  86:	04 8b       	sub	r11,	r4	
  88:	02 42       	mov	r2,	r2	
  8a:	0e 06       	.word	0x060e;	????	
  8c:	8a 03       	.word	0x038a;	????	
  8e:	62 0e       	.word	0x0e62;	????	
  90:	08 44       	mov	r4,	r8	
  92:	0e 0a       	.word	0x0a0e;	????	
  94:	40 2e       	jc	$-894    	;abs 0xfd16
  96:	04 46       	mov	r6,	r4	
  98:	0e 06       	.word	0x060e;	????	
  9a:	22 00       	.word	0x0022;	????	
  9c:	00 00       	.word	0x0000;	????	
  9e:	00 00       	.word	0x0000;	????	
  a0:	00 00       	.word	0x0000;	????	
  a2:	1a c2 38 00 	bic	&0x0038,r10	
  a6:	42 0e       	.word	0x0e42;	????	
  a8:	04 8b       	sub	r11,	r4	
  aa:	02 42       	mov	r2,	r2	
  ac:	0e 06       	.word	0x060e;	????	
  ae:	8a 03       	.word	0x038a;	????	
  b0:	4e 0e       	.word	0x0e4e;	????	
  b2:	08 44       	mov	r4,	r8	
  b4:	0e 0a       	.word	0x0a0e;	????	
  b6:	44 0e       	.word	0x0e44;	????	
  b8:	0c 40       	mov	r0,	r12	
  ba:	2e 06       	.word	0x062e;	????	
  bc:	48 0e       	.word	0x0e48;	????	
  be:	06 00       	.word	0x0006;	????	
  c0:	42 00       	.word	0x0042;	????	
  c2:	00 00       	.word	0x0000;	????	
  c4:	00 00       	.word	0x0000;	????	
  c6:	00 00       	.word	0x0000;	????	
  c8:	52 c2 74 00 	bic.b	&0x0074,r2	
  cc:	42 0e       	.word	0x0e42;	????	
  ce:	04 8b       	sub	r11,	r4	
  d0:	02 42       	mov	r2,	r2	
  d2:	0e 06       	.word	0x060e;	????	
  d4:	8a 03       	.word	0x038a;	????	
  d6:	42 0e       	.word	0x0e42;	????	
  d8:	08 89       	sub	r9,	r8	
  da:	04 46       	mov	r6,	r4	
  dc:	0e 0a       	.word	0x0a0e;	????	
  de:	40 2e       	jc	$-894    	;abs 0xfd60
  e0:	02 46       	mov	r6,	r2	
  e2:	0e 08       	.word	0x080e;	????	
  e4:	44 2e       	jc	$-886    	;abs 0xfd6e
  e6:	00 72       	subc	r2,	r0	
  e8:	0e 0a       	.word	0x0a0e;	????	
  ea:	44 0e       	.word	0x0e44;	????	
  ec:	0c 40       	mov	r0,	r12	
  ee:	2e 04       	.word	0x042e;	????	
  f0:	46 0e       	.word	0x0e46;	????	
  f2:	08 42       	mov	r2,	r8	
  f4:	0e 0a       	.word	0x0a0e;	????	
  f6:	44 0e       	.word	0x0e44;	????	
  f8:	0c 46       	mov	r6,	r12	
  fa:	0e 08       	.word	0x080e;	????	
  fc:	42 0e       	.word	0x0e42;	????	
  fe:	0a 44       	mov	r4,	r10	
 100:	0e 0c       	.word	0x0c0e;	????	
 102:	46 0e       	.word	0x0e46;	????	
 104:	08 00       	.word	0x0008;	????	
 106:	1c 00       	.word	0x001c;	????	
 108:	00 00       	.word	0x0000;	????	
 10a:	00 00       	.word	0x0000;	????	
 10c:	00 00       	.word	0x0000;	????	
 10e:	c6 c2 22 00 	bic.b	r2,	34(r6)	;0x0022(r6)
 112:	42 0e       	.word	0x0e42;	????	
 114:	04 8b       	sub	r11,	r4	
 116:	02 46       	mov	r6,	r2	
 118:	0e 06       	.word	0x060e;	????	
 11a:	44 0e       	.word	0x0e44;	????	
 11c:	08 40       	mov	r0,	r8	
 11e:	2e 04       	.word	0x042e;	????	
 120:	46 0e       	.word	0x0e46;	????	
 122:	04 42       	mov	r2,	r4	
 124:	2e 00       	.word	0x002e;	????	
 126:	1c 00       	.word	0x001c;	????	
 128:	00 00       	.word	0x0000;	????	
 12a:	00 00       	.word	0x0000;	????	
 12c:	00 00       	.word	0x0000;	????	
 12e:	e8 c2 22 00 	bic.b	#4,	34(r8)	;r2 As==10, 0x0022(r8)
 132:	42 0e       	.word	0x0e42;	????	
 134:	04 8b       	sub	r11,	r4	
 136:	02 46       	mov	r6,	r2	
 138:	0e 06       	.word	0x060e;	????	
 13a:	44 0e       	.word	0x0e44;	????	
 13c:	08 40       	mov	r0,	r8	
 13e:	2e 04       	.word	0x042e;	????	
 140:	46 0e       	.word	0x0e46;	????	
 142:	04 42       	mov	r2,	r4	
 144:	2e 00       	.word	0x002e;	????	
 146:	24 00       	.word	0x0024;	????	
 148:	00 00       	.word	0x0000;	????	
 14a:	00 00       	.word	0x0000;	????	
 14c:	00 00       	.word	0x0000;	????	
 14e:	0a c3       	bic	#0,	r10	;r3 As==00
 150:	2e 00       	.word	0x002e;	????	
 152:	42 0e       	.word	0x0e42;	????	
 154:	04 8b       	sub	r11,	r4	
 156:	02 42       	mov	r2,	r2	
 158:	0e 06       	.word	0x060e;	????	
 15a:	8a 03       	.word	0x038a;	????	
 15c:	46 0e       	.word	0x0e46;	????	
 15e:	08 46       	mov	r6,	r8	
 160:	0e 0a       	.word	0x0a0e;	????	
 162:	44 0e       	.word	0x0e44;	????	
 164:	0c 40       	mov	r0,	r12	
 166:	2e 06       	.word	0x062e;	????	
 168:	48 0e       	.word	0x0e48;	????	
 16a:	06 42       	mov	r2,	r6	
 16c:	2e 00       	.word	0x002e;	????	
 16e:	1c 00       	.word	0x001c;	????	
 170:	00 00       	.word	0x0000;	????	
 172:	00 00       	.word	0x0000;	????	
 174:	00 00       	.word	0x0000;	????	
 176:	38 c3       	bic	#-1,	r8	;r3 As==11
 178:	22 00       	.word	0x0022;	????	
 17a:	42 0e       	.word	0x0e42;	????	
 17c:	04 8b       	sub	r11,	r4	
 17e:	02 46       	mov	r6,	r2	
 180:	0e 06       	.word	0x060e;	????	
 182:	44 0e       	.word	0x0e44;	????	
 184:	08 40       	mov	r0,	r8	
 186:	2e 04       	.word	0x042e;	????	
 188:	46 0e       	.word	0x0e46;	????	
 18a:	04 42       	mov	r2,	r4	
 18c:	2e 00       	.word	0x002e;	????	
 18e:	1c 00       	.word	0x001c;	????	
 190:	00 00       	.word	0x0000;	????	
 192:	00 00       	.word	0x0000;	????	
 194:	00 00       	.word	0x0000;	????	
 196:	5a c3       	bic.b	#1,	r10	;r3 As==01
 198:	22 00       	.word	0x0022;	????	
 19a:	42 0e       	.word	0x0e42;	????	
 19c:	04 8b       	sub	r11,	r4	
 19e:	02 46       	mov	r6,	r2	
 1a0:	0e 06       	.word	0x060e;	????	
 1a2:	44 0e       	.word	0x0e44;	????	
 1a4:	08 40       	mov	r0,	r8	
 1a6:	2e 04       	.word	0x042e;	????	
 1a8:	46 0e       	.word	0x0e46;	????	
 1aa:	04 42       	mov	r2,	r4	
 1ac:	2e 00       	.word	0x002e;	????	
 1ae:	1c 00       	.word	0x001c;	????	
 1b0:	00 00       	.word	0x0000;	????	
 1b2:	00 00       	.word	0x0000;	????	
 1b4:	00 00       	.word	0x0000;	????	
 1b6:	7c c3       	bic.b	#-1,	r12	;r3 As==11
 1b8:	22 00       	.word	0x0022;	????	
 1ba:	42 0e       	.word	0x0e42;	????	
 1bc:	04 8b       	sub	r11,	r4	
 1be:	02 46       	mov	r6,	r2	
 1c0:	0e 06       	.word	0x060e;	????	
 1c2:	44 0e       	.word	0x0e44;	????	
 1c4:	08 40       	mov	r0,	r8	
 1c6:	2e 04       	.word	0x042e;	????	
 1c8:	46 0e       	.word	0x0e46;	????	
 1ca:	04 42       	mov	r2,	r4	
 1cc:	2e 00       	.word	0x002e;	????	
 1ce:	20 00       	.word	0x0020;	????	
 1d0:	00 00       	.word	0x0000;	????	
 1d2:	00 00       	.word	0x0000;	????	
 1d4:	00 00       	.word	0x0000;	????	
 1d6:	9e c3 30 00 	bic	#1,	48(r14)	;r3 As==01, 0x0030(r14)
 1da:	4a 0e       	.word	0x0e4a;	????	
 1dc:	04 40       	mov	r0,	r4	
 1de:	2e 02       	.word	0x022e;	????	
 1e0:	46 0e       	.word	0x0e46;	????	
 1e2:	02 48       	mov	r8,	r2	
 1e4:	0e 04       	.word	0x040e;	????	
 1e6:	44 0e       	.word	0x0e44;	????	
 1e8:	06 44       	mov	r4,	r6	
 1ea:	0e 08       	.word	0x080e;	????	
 1ec:	40 2e       	jc	$-894    	;abs 0xfe6e
 1ee:	06 48       	mov	r8,	r6	
 1f0:	0e 02       	.word	0x020e;	????	
 1f2:	20 00       	.word	0x0020;	????	
 1f4:	00 00       	.word	0x0000;	????	
 1f6:	00 00       	.word	0x0000;	????	
 1f8:	00 00       	.word	0x0000;	????	
 1fa:	ce c3 30 00 	bic.b	#0,	48(r14)	;r3 As==00, 0x0030(r14)
 1fe:	4a 0e       	.word	0x0e4a;	????	
 200:	04 40       	mov	r0,	r4	
 202:	2e 02       	.word	0x022e;	????	
 204:	46 0e       	.word	0x0e46;	????	
 206:	02 48       	mov	r8,	r2	
 208:	0e 04       	.word	0x040e;	????	
 20a:	44 0e       	.word	0x0e44;	????	
 20c:	06 44       	mov	r4,	r6	
 20e:	0e 08       	.word	0x080e;	????	
 210:	40 2e       	jc	$-894    	;abs 0xfe92
 212:	06 48       	mov	r8,	r6	
 214:	0e 02       	.word	0x020e;	????	
 216:	20 00       	.word	0x0020;	????	
 218:	00 00       	.word	0x0000;	????	
 21a:	00 00       	.word	0x0000;	????	
 21c:	00 00       	.word	0x0000;	????	
 21e:	fe c3 30 00 	bic.b	#-1,	48(r14)	;r3 As==11, 0x0030(r14)
 222:	4a 0e       	.word	0x0e4a;	????	
 224:	04 44       	mov	r4,	r4	
 226:	0e 06       	.word	0x060e;	????	
 228:	44 0e       	.word	0x0e44;	????	
 22a:	08 40       	mov	r0,	r8	
 22c:	2e 06       	.word	0x062e;	????	
 22e:	48 0e       	.word	0x0e48;	????	
 230:	02 4c       	mov	r12,	r2	
 232:	0e 04       	.word	0x040e;	????	
 234:	40 2e       	jc	$-894    	;abs 0xfeb6
 236:	02 46       	mov	r6,	r2	
 238:	0e 02       	.word	0x020e;	????	
 23a:	08 00       	.word	0x0008;	????	
 23c:	00 00       	.word	0x0000;	????	
 23e:	00 00       	.word	0x0000;	????	
 240:	00 00       	.word	0x0000;	????	
 242:	2e c4       	bic	@r4,	r14	
 244:	0c 00       	.word	0x000c;	????	
 246:	08 00       	.word	0x0008;	????	
 248:	00 00       	.word	0x0000;	????	
 24a:	00 00       	.word	0x0000;	????	
 24c:	00 00       	.word	0x0000;	????	
 24e:	3e c0 0a 01 	bic	#266,	r14	;#0x010a
 252:	0e 00       	.word	0x000e;	????	
 254:	00 00       	.word	0x0000;	????	
 256:	00 00       	.word	0x0000;	????	
 258:	00 00       	.word	0x0000;	????	
 25a:	3a c4       	bic	@r4+,	r10	
 25c:	1e 00       	.word	0x001e;	????	
 25e:	42 0e       	.word	0x0e42;	????	
 260:	04 8f       	sub	r15,	r4	
 262:	02 00       	.word	0x0002;	????	
 264:	0e 00       	.word	0x000e;	????	
 266:	00 00       	.word	0x0000;	????	
 268:	ff ff ff ff 	and.b	@r15+,	-1(r15)	;0xffff(r15)
 26c:	01 00       	.word	0x0001;	????	
 26e:	01 7e       	subc	r14,	r1	
 270:	00 0c       	.word	0x0c00;	????	
 272:	01 02       	.word	0x0201;	????	
 274:	80 01       	.word	0x0180;	????	
 276:	08 00       	.word	0x0008;	????	
 278:	00 00       	.word	0x0000;	????	
 27a:	64 02       	.word	0x0264;	????	
 27c:	00 00       	.word	0x0000;	????	
 27e:	58 c4 18 00 	bic.b	24(r4),	r8	;0x0018(r4)
 282:	18 00       	.word	0x0018;	????	
 284:	00 00       	.word	0x0000;	????	
 286:	64 02       	.word	0x0264;	????	
 288:	00 00       	.word	0x0000;	????	
 28a:	70 c4       	bic.b	@r4+,	r0	
 28c:	44 00       	.word	0x0044;	????	
 28e:	42 0e       	.word	0x0e42;	????	
 290:	04 8b       	sub	r11,	r4	
 292:	02 42       	mov	r2,	r2	
 294:	0e 06       	.word	0x060e;	????	
 296:	8a 03       	.word	0x038a;	????	
 298:	42 0e       	.word	0x0e42;	????	
 29a:	08 89       	sub	r9,	r8	
 29c:	04 00       	.word	0x0004;	????	
 29e:	08 00       	.word	0x0008;	????	
 2a0:	00 00       	.word	0x0000;	????	
 2a2:	64 02       	.word	0x0264;	????	
 2a4:	00 00       	.word	0x0000;	????	
 2a6:	b4 c4 30 00 	bic	@r4+,	48(r4)	;0x0030(r4)
 2aa:	2c 00       	.word	0x002c;	????	
 2ac:	00 00       	.word	0x0000;	????	
 2ae:	64 02       	.word	0x0264;	????	
 2b0:	00 00       	.word	0x0000;	????	
 2b2:	e4 c4 a6 00 	bic.b	@r4,	166(r4)	;0x00a6(r4)
 2b6:	42 0e       	.word	0x0e42;	????	
 2b8:	04 8b       	sub	r11,	r4	
 2ba:	02 42       	mov	r2,	r2	
 2bc:	0e 06       	.word	0x060e;	????	
 2be:	8a 03       	.word	0x038a;	????	
 2c0:	42 0e       	.word	0x0e42;	????	
 2c2:	08 89       	sub	r9,	r8	
 2c4:	04 42       	mov	r2,	r4	
 2c6:	0e 0a       	.word	0x0a0e;	????	
 2c8:	88 05       	.word	0x0588;	????	
 2ca:	42 0e       	.word	0x0e42;	????	
 2cc:	0c 87       	sub	r7,	r12	
 2ce:	06 42       	mov	r2,	r6	
 2d0:	0e 0e       	.word	0x0e0e;	????	
 2d2:	86 07       	.word	0x0786;	????	
 2d4:	42 0e       	.word	0x0e42;	????	
 2d6:	10 85 08 00 	sub	8(r5),	r0	;0x0008(r5)
 2da:	2a 00       	.word	0x002a;	????	
 2dc:	00 00       	.word	0x0000;	????	
 2de:	64 02       	.word	0x0264;	????	
 2e0:	00 00       	.word	0x0000;	????	
 2e2:	8a c5 90 00 	bic	r5,	144(r10);0x0090(r10)
 2e6:	42 0e       	.word	0x0e42;	????	
 2e8:	04 8b       	sub	r11,	r4	
 2ea:	02 42       	mov	r2,	r2	
 2ec:	0e 06       	.word	0x060e;	????	
 2ee:	8a 03       	.word	0x038a;	????	
 2f0:	42 0e       	.word	0x0e42;	????	
 2f2:	08 89       	sub	r9,	r8	
 2f4:	04 42       	mov	r2,	r4	
 2f6:	0e 0a       	.word	0x0a0e;	????	
 2f8:	88 05       	.word	0x0588;	????	
 2fa:	42 0e       	.word	0x0e42;	????	
 2fc:	0c 87       	sub	r7,	r12	
 2fe:	06 42       	mov	r2,	r6	
 300:	0e 0e       	.word	0x0e0e;	????	
 302:	86 07       	.word	0x0786;	????	
 304:	44 0e       	.word	0x0e44;	????	
 306:	60 00       	.word	0x0060;	????	
 308:	0e 00       	.word	0x000e;	????	
 30a:	00 00       	.word	0x0000;	????	
 30c:	ff ff ff ff 	and.b	@r15+,	-1(r15)	;0xffff(r15)
 310:	01 00       	.word	0x0001;	????	
 312:	01 7e       	subc	r14,	r1	
 314:	00 0c       	.word	0x0c00;	????	
 316:	01 02       	.word	0x0201;	????	
 318:	80 01       	.word	0x0180;	????	
 31a:	22 00       	.word	0x0022;	????	
 31c:	00 00       	.word	0x0000;	????	
 31e:	08 03       	.word	0x0308;	????	
 320:	00 00       	.word	0x0000;	????	
 322:	1a c6 6a 00 	bic	106(r6),r10	;0x006a(r6)
 326:	42 0e       	.word	0x0e42;	????	
 328:	04 8b       	sub	r11,	r4	
 32a:	02 42       	mov	r2,	r2	
 32c:	0e 06       	.word	0x060e;	????	
 32e:	8a 03       	.word	0x038a;	????	
 330:	42 0e       	.word	0x0e42;	????	
 332:	08 89       	sub	r9,	r8	
 334:	04 42       	mov	r2,	r4	
 336:	0e 0a       	.word	0x0a0e;	????	
 338:	88 05       	.word	0x0588;	????	
 33a:	42 0e       	.word	0x0e42;	????	
 33c:	0c 87       	sub	r7,	r12	
 33e:	06 00       	.word	0x0006;	????	
 340:	08 00       	.word	0x0008;	????	
 342:	00 00       	.word	0x0000;	????	
 344:	08 03       	.word	0x0308;	????	
 346:	00 00       	.word	0x0000;	????	
 348:	84 c6 0e 00 	bic	r6,	14(r4)	;0x000e(r4)
 34c:	0e 00       	.word	0x000e;	????	
 34e:	00 00       	.word	0x0000;	????	
 350:	08 03       	.word	0x0308;	????	
 352:	00 00       	.word	0x0000;	????	
 354:	92 c6 14 00 	bic	20(r6),	&0x0e42	;0x0014(r6)
 358:	42 0e 
 35a:	04 8b       	sub	r11,	r4	
 35c:	02 00       	.word	0x0002;	????	
 35e:	1a 00       	.word	0x001a;	????	
 360:	00 00       	.word	0x0000;	????	
 362:	08 03       	.word	0x0308;	????	
 364:	00 00       	.word	0x0000;	????	
 366:	a6 c6 7a 00 	bic	@r6,	122(r6)	;0x007a(r6)
 36a:	42 0e       	.word	0x0e42;	????	
 36c:	04 8b       	sub	r11,	r4	
 36e:	02 42       	mov	r2,	r2	
 370:	0e 06       	.word	0x060e;	????	
 372:	8a 03       	.word	0x038a;	????	
 374:	42 0e       	.word	0x0e42;	????	
 376:	08 89       	sub	r9,	r8	
 378:	04 44       	mov	r4,	r4	
 37a:	0e 28       	jnc	$+30     	;abs 0x398
 37c:	12 00       	.word	0x0012;	????	
 37e:	00 00       	.word	0x0000;	????	
 380:	08 03       	.word	0x0308;	????	
 382:	00 00       	.word	0x0000;	????	
 384:	20 c7       	bic	@r7,	r0	
 386:	3a 00       	.word	0x003a;	????	
 388:	42 0e       	.word	0x0e42;	????	
 38a:	04 8b       	sub	r11,	r4	
 38c:	02 42       	mov	r2,	r2	
 38e:	0e 06       	.word	0x060e;	????	
 390:	8a 03       	.word	0x038a;	????	
 392:	1c 00       	.word	0x001c;	????	
 394:	00 00       	.word	0x0000;	????	
 396:	08 03       	.word	0x0308;	????	
 398:	00 00       	.word	0x0000;	????	
 39a:	5a c7 2a 01 	bic.b	298(r7),r10	;0x012a(r7)
 39e:	42 0e       	.word	0x0e42;	????	
 3a0:	04 8b       	sub	r11,	r4	
 3a2:	02 42       	mov	r2,	r2	
 3a4:	0e 06       	.word	0x060e;	????	
 3a6:	8a 03       	.word	0x038a;	????	
 3a8:	42 0e       	.word	0x0e42;	????	
 3aa:	08 89       	sub	r9,	r8	
 3ac:	04 42       	mov	r2,	r4	
 3ae:	0e 0a       	.word	0x0a0e;	????	
 3b0:	88 05       	.word	0x0588;	????	
 3b2:	0e 00       	.word	0x000e;	????	
 3b4:	00 00       	.word	0x0000;	????	
 3b6:	ff ff ff ff 	and.b	@r15+,	-1(r15)	;0xffff(r15)
 3ba:	01 00       	.word	0x0001;	????	
 3bc:	01 7e       	subc	r14,	r1	
 3be:	00 0c       	.word	0x0c00;	????	
 3c0:	01 02       	.word	0x0201;	????	
 3c2:	80 01       	.word	0x0180;	????	
 3c4:	08 00       	.word	0x0008;	????	
 3c6:	00 00       	.word	0x0000;	????	
 3c8:	b2 03       	.word	0x03b2;	????	
 3ca:	00 00       	.word	0x0000;	????	
 3cc:	84 c8 06 00 	bic	r8,	6(r4)	;0x0006(r4)
 3d0:	08 00       	.word	0x0008;	????	
 3d2:	00 00       	.word	0x0000;	????	
 3d4:	b2 03       	.word	0x03b2;	????	
 3d6:	00 00       	.word	0x0000;	????	
 3d8:	8a c8 06 00 	bic	r8,	6(r10)	;0x0006(r10)
 3dc:	0e 00       	.word	0x000e;	????	
 3de:	00 00       	.word	0x0000;	????	
 3e0:	ff ff ff ff 	and.b	@r15+,	-1(r15)	;0xffff(r15)
 3e4:	01 00       	.word	0x0001;	????	
 3e6:	01 7e       	subc	r14,	r1	
 3e8:	00 0c       	.word	0x0c00;	????	
 3ea:	01 02       	.word	0x0201;	????	
 3ec:	80 01       	.word	0x0180;	????	
 3ee:	08 00       	.word	0x0008;	????	
 3f0:	00 00       	.word	0x0000;	????	
 3f2:	dc 03       	.word	0x03dc;	????	
 3f4:	00 00       	.word	0x0000;	????	
 3f6:	90 c8 2a 01 	bic	298(r8),8(r0)	;0x012a(r8), PC rel. 0x0402
 3fa:	08 00 
 3fc:	00 00       	.word	0x0000;	????	
 3fe:	dc 03       	.word	0x03dc;	????	
 400:	00 00       	.word	0x0000;	????	
 402:	ba c9 10 00 	bic	@r9+,	16(r10)	;0x0010(r10)
 406:	08 00       	.word	0x0008;	????	
 408:	00 00       	.word	0x0000;	????	
 40a:	dc 03       	.word	0x03dc;	????	
 40c:	00 00       	.word	0x0000;	????	
 40e:	ca c9 06 00 	bic.b	r9,	6(r10)	;0x0006(r10)
 412:	08 00       	.word	0x0008;	????	
 414:	00 00       	.word	0x0000;	????	
 416:	dc 03       	.word	0x03dc;	????	
 418:	00 00       	.word	0x0000;	????	
 41a:	d0 c9 0e 00 	bic.b	14(r9),	8(r0)	;0x000e(r9), PC rel. 0x0426
 41e:	08 00 
 420:	00 00       	.word	0x0000;	????	
 422:	dc 03       	.word	0x03dc;	????	
 424:	00 00       	.word	0x0000;	????	
 426:	de c9 06 00 	bic.b	6(r9),	8(r14)	;0x0006(r9), 0x0008(r14)
 42a:	08 00 
 42c:	00 00       	.word	0x0000;	????	
 42e:	dc 03       	.word	0x03dc;	????	
 430:	00 00       	.word	0x0000;	????	
 432:	e4 c9 0e 00 	bic.b	@r9,	14(r4)	;0x000e(r4)
 436:	0e 00       	.word	0x000e;	????	
 438:	00 00       	.word	0x0000;	????	
 43a:	ff ff ff ff 	and.b	@r15+,	-1(r15)	;0xffff(r15)
 43e:	01 00       	.word	0x0001;	????	
 440:	01 7e       	subc	r14,	r1	
 442:	00 0c       	.word	0x0c00;	????	
 444:	01 02       	.word	0x0201;	????	
 446:	80 01       	.word	0x0180;	????	
 448:	1c 00       	.word	0x001c;	????	
 44a:	00 00       	.word	0x0000;	????	
 44c:	36 04       	.word	0x0436;	????	
 44e:	00 00       	.word	0x0000;	????	
 450:	4e ca       	bic.b	r10,	r14	
 452:	6a 00       	.word	0x006a;	????	
 454:	42 0e       	.word	0x0e42;	????	
 456:	04 8b       	sub	r11,	r4	
 458:	02 42       	mov	r2,	r2	
 45a:	0e 06       	.word	0x060e;	????	
 45c:	8a 03       	.word	0x038a;	????	
 45e:	42 0e       	.word	0x0e42;	????	
 460:	08 89       	sub	r9,	r8	
 462:	04 42       	mov	r2,	r4	
 464:	0e 0a       	.word	0x0a0e;	????	
 466:	88 05       	.word	0x0588;	????	
 468:	0e 00       	.word	0x000e;	????	
 46a:	00 00       	.word	0x0000;	????	
 46c:	ff ff ff ff 	and.b	@r15+,	-1(r15)	;0xffff(r15)
 470:	01 00       	.word	0x0001;	????	
 472:	01 7e       	subc	r14,	r1	
 474:	00 0c       	.word	0x0c00;	????	
 476:	01 02       	.word	0x0201;	????	
 478:	80 01       	.word	0x0180;	????	
 47a:	0e 00       	.word	0x000e;	????	
 47c:	00 00       	.word	0x0000;	????	
 47e:	68 04       	.word	0x0468;	????	
 480:	00 00       	.word	0x0000;	????	
 482:	b8 ca 8a 00 	bic	@r10+,	138(r8)	;0x008a(r8)
 486:	42 0e       	.word	0x0e42;	????	
 488:	04 8b       	sub	r11,	r4	
 48a:	02 00       	.word	0x0002;	????	

Disassembly of section .debug_str:

00000000 <.debug_str>:
   0:	73 68       	.word	0x6873;	????	Illegal as 2-op instr
   2:	65 6c       	addc.b	@r12,	r5	
   4:	6c 5f       	add.b	@r15,	r12	
   6:	63 6d       	.word	0x6d63;	????	Illegal as 2-op instr
   8:	64 5f       	add.b	@r15,	r4	
   a:	73 65       	.word	0x6573;	????	Illegal as 2-op instr
   c:	74 70 6f 69 	subc.b	#26991,	r4	;#0x696f
  10:	6e 74       	subc.b	@r4,	r14	
  12:	00 5f       	add	r15,	r0	
  14:	5f 50 31 4f 	add.b	20273(r0),r15	;PC rel. 0x4f47
  18:	55 54 00 73 	add.b	29440(r4),r5	;0x7300(r4)
  1c:	68 65       	addc.b	@r5,	r8	
  1e:	6c 6c       	addc.b	@r12,	r12	
  20:	5f 70 72 6f 	subc.b	28530(r0),r15	;PC rel. 0x6f94
  24:	63 65       	.word	0x6563;	????	Illegal as 2-op instr
  26:	73 73       	.word	0x7373;	????	Illegal as 2-op instr
  28:	00 73       	sbc	r0		
  2a:	68 65       	addc.b	@r5,	r8	
  2c:	6c 6c       	addc.b	@r12,	r12	
  2e:	5f 63       	addc.b	#1,	r15	;r3 As==01
  30:	6d 64       	addc.b	@r4,	r13	
  32:	5f 76 65 72 	subc.b	29285(r6),r15	;0x7265(r6)
  36:	62 6f       	addc.b	@r15,	r2	
  38:	73 65       	.word	0x6573;	????	Illegal as 2-op instr
  3a:	00 73       	sbc	r0		
  3c:	68 65       	addc.b	@r5,	r8	
  3e:	6c 6c       	addc.b	@r12,	r12	
  40:	5f 63       	addc.b	#1,	r15	;r3 As==01
  42:	6d 64       	addc.b	@r4,	r13	
  44:	00 73       	sbc	r0		
  46:	68 65       	addc.b	@r5,	r8	
  48:	6c 6c       	addc.b	@r12,	r12	
  4a:	5f 63       	addc.b	#1,	r15	;r3 As==01
  4c:	6d 64       	addc.b	@r4,	r13	
  4e:	5f 72 75 6e 	subc.b	&0x6e75,r15	
  52:	00 6d       	addc	r13,	r0	
  54:	61 69       	addc.b	@r9,	r1	
  56:	6e 00       	.word	0x006e;	????	
  58:	73 68       	.word	0x6873;	????	Illegal as 2-op instr
  5a:	65 6c       	addc.b	@r12,	r5	
  5c:	6c 5f       	add.b	@r15,	r12	
  5e:	63 6d       	.word	0x6d63;	????	Illegal as 2-op instr
  60:	64 5f       	add.b	@r15,	r4	
  62:	73 68       	.word	0x6873;	????	Illegal as 2-op instr
  64:	6f 77       	subc.b	@r7,	r15	
  66:	00 73       	sbc	r0		
  68:	68 65       	addc.b	@r5,	r8	
  6a:	6c 6c       	addc.b	@r12,	r12	
  6c:	5f 63       	addc.b	#1,	r15	;r3 As==01
  6e:	6d 64       	addc.b	@r4,	r13	
  70:	5f 73       	subc.b	#1,	r15	;r3 As==01
  72:	74 6f       	addc.b	@r15+,	r4	
  74:	70 00       	.word	0x0070;	????	
  76:	73 68       	.word	0x6873;	????	Illegal as 2-op instr
  78:	65 6c       	addc.b	@r12,	r5	
  7a:	6c 5f       	add.b	@r15,	r12	
  7c:	63 6d       	.word	0x6d63;	????	Illegal as 2-op instr
  7e:	64 5f       	add.b	@r15,	r4	
  80:	50 49 44 00 	br	68(r9)		;0x0044(r9)
  84:	5f 5f 50 31 	add.b	12624(r15),r15	;0x3150(r15)
  88:	44 49       	mov.b	r9,	r4	
  8a:	52 00       	.word	0x0052;	????	
  8c:	73 68       	.word	0x6873;	????	Illegal as 2-op instr
  8e:	65 6c       	addc.b	@r12,	r5	
  90:	6c 5f       	add.b	@r15,	r12	
  92:	63 6d       	.word	0x6d63;	????	Illegal as 2-op instr
  94:	64 5f       	add.b	@r15,	r4	
  96:	68 65       	addc.b	@r5,	r8	
  98:	6c 70       	subc.b	@r0,	r12	
  9a:	00 72       	subc	r2,	r0	
  9c:	75 6e       	addc.b	@r14+,	r5	
  9e:	6e 69       	addc.b	@r9,	r14	
  a0:	6e 67       	addc.b	@r7,	r14	
  a2:	00 73       	sbc	r0		
  a4:	68 65       	addc.b	@r5,	r8	
  a6:	6c 6c       	addc.b	@r12,	r12	
  a8:	2e 63       	addc	#2,	r14	;r3 As==10
  aa:	00 73       	sbc	r0		
  ac:	68 65       	addc.b	@r5,	r8	
  ae:	6c 6c       	addc.b	@r12,	r12	
  b0:	5f 63       	addc.b	#1,	r15	;r3 As==01
  b2:	6d 64       	addc.b	@r4,	r13	
  b4:	5f 61 72 67 	addc.b	26482(r1),r15	;0x6772(r1)
  b8:	00 5f       	add	r15,	r0	
  ba:	5f 50 32 4f 	add.b	20274(r0),r15	;PC rel. 0x4fee
  be:	55 54 00 66 	add.b	26112(r4),r5	;0x6600(r4)
  c2:	75 6e       	addc.b	@r14+,	r5	
  c4:	63 00       	.word	0x0063;	????	
  c6:	6c 6f       	addc.b	@r15,	r12	
  c8:	6e 67       	addc.b	@r7,	r14	
  ca:	20 6c       	addc	@r12,	r0	
  cc:	6f 6e       	addc.b	@r14,	r15	
  ce:	67 20       	jnz	$+208    	;abs 0x19e
  d0:	69 6e       	addc.b	@r14,	r9	
  d2:	74 00       	.word	0x0074;	????	
  d4:	5f 5f 44 43 	add.b	17220(r15),r15	;0x4344(r15)
  d8:	4f 43       	clr.b	r15		
  da:	54 4c 00 5f 	mov.b	24320(r12),r4	;0x5f00(r12)
  de:	5f 57 44 54 	add.b	21572(r7),r15	;0x5444(r7)
  e2:	43 54       	.word	0x5443;	????	Illegal as 2-op instr
  e4:	4c 00       	.word	0x004c;	????	
  e6:	47 4e       	mov.b	r14,	r7	
  e8:	55 20       	jnz	$+172    	;abs 0x194
  ea:	43 20       	jnz	$+136    	;abs 0x172
  ec:	34 2e       	jc	$-918    	;abs 0xfd56
  ee:	36 2e       	jc	$-914    	;abs 0xfd5c
  f0:	33 20       	jnz	$+104    	;abs 0x158
  f2:	32 30       	jn	$+102    	;abs 0x158
  f4:	31 32       	jn	$-924    	;abs 0xfd58
  f6:	30 33       	jn	$-414    	;abs 0xff58
  f8:	30 31       	jn	$+610    	;abs 0x35a
  fa:	20 28       	jnc	$+66     	;abs 0x13c
  fc:	6d 73       	subc.b	#2,	r13	;r3 As==10
  fe:	70 67       	addc.b	@r7+,	r0	
 100:	63 63       	.word	0x6363;	????	Illegal as 2-op instr
 102:	20 4c       	br	@r12		
 104:	54 53       	inc.b	r4		
 106:	20 32       	jn	$-958    	;abs 0xfd48
 108:	30 31       	jn	$+610    	;abs 0x36a
 10a:	32 30       	jn	$+102    	;abs 0x170
 10c:	34 30       	jn	$+106    	;abs 0x176
 10e:	36 20       	jnz	$+110    	;abs 0x17c
 110:	75 6e       	addc.b	@r14+,	r5	
 112:	70 61       	addc.b	@r1+,	r0	
 114:	74 63       	addc.b	#-1,	r4	;r3 As==11
 116:	68 65       	addc.b	@r5,	r8	
 118:	64 29       	jnc	$+714    	;abs 0x3e2
 11a:	00 5f       	add	r15,	r0	
 11c:	5f 50 32 44 	add.b	17458(r0),r15	;PC rel. 0x4550
 120:	49 52       	add.b	r2,	r9	
 122:	00 5f       	add	r15,	r0	
 124:	5f 50 31 52 	add.b	21041(r0),r15	;PC rel. 0x5357
 128:	45 4e       	mov.b	r14,	r5	
 12a:	00 73       	sbc	r0		
 12c:	68 65       	addc.b	@r5,	r8	
 12e:	6c 6c       	addc.b	@r12,	r12	
 130:	5f 63       	addc.b	#1,	r15	;r3 As==01
 132:	6d 64       	addc.b	@r4,	r13	
 134:	5f 70 61 75 	subc.b	30049(r0),r15	;PC rel. 0x7697
 138:	73 65       	.word	0x6573;	????	Illegal as 2-op instr
 13a:	00 5f       	add	r15,	r0	
 13c:	5f 50 31 49 	add.b	18737(r0),r15	;PC rel. 0x4a6f
 140:	45 53       	add.b	#0,	r5	;r3 As==00
 142:	00 5f       	add	r15,	r0	
 144:	5f 43       	mov.b	#1,	r15	;r3 As==01
 146:	41 4c       	mov.b	r12,	r1	
 148:	44 43       	clr.b	r4		
 14a:	4f 5f       	rla.b	r15		
 14c:	31 4d       	mov	@r13+,	r1	
 14e:	48 5a       	add.b	r10,	r8	
 150:	00 75       	subc	r5,	r0	
 152:	6e 73       	subc.b	#2,	r14	;r3 As==10
 154:	69 67       	addc.b	@r7,	r9	
 156:	6e 65       	addc.b	@r5,	r14	
 158:	64 20       	jnz	$+202    	;abs 0x222
 15a:	63 68       	.word	0x6863;	????	Illegal as 2-op instr
 15c:	61 72       	subc.b	#4,	r1	;r2 As==10
 15e:	00 73       	sbc	r0		
 160:	68 65       	addc.b	@r5,	r8	
 162:	6c 6c       	addc.b	@r12,	r12	
 164:	5f 63       	addc.b	#1,	r15	;r3 As==01
 166:	6d 64       	addc.b	@r4,	r13	
 168:	5f 6c 6f 61 	addc.b	24943(r12),r15	;0x616f(r12)
 16c:	64 70       	subc.b	@r0,	r4	
 16e:	72 6f       	addc.b	@r15+,	r2	
 170:	67 72       	subc.b	#4,	r7	;r2 As==10
 172:	61 6d       	addc.b	@r13,	r1	
 174:	00 6c       	addc	r12,	r0	
 176:	6f 6e       	addc.b	@r14,	r15	
 178:	67 20       	jnz	$+208    	;abs 0x248
 17a:	6c 6f       	addc.b	@r15,	r12	
 17c:	6e 67       	addc.b	@r7,	r14	
 17e:	20 75       	subc	@r5,	r0	
 180:	6e 73       	subc.b	#2,	r14	;r3 As==10
 182:	69 67       	addc.b	@r7,	r9	
 184:	6e 65       	addc.b	@r5,	r14	
 186:	64 20       	jnz	$+202    	;abs 0x250
 188:	69 6e       	addc.b	@r14,	r9	
 18a:	74 00       	.word	0x0074;	????	
 18c:	50 6f 72 74 	addc.b	29810(r15),r0	;0x7472(r15)
 190:	31 5f       	add	@r15+,	r1	
 192:	49 53       	add.b	#0,	r9	;r3 As==00
 194:	52 00       	.word	0x0052;	????	
 196:	73 68       	.word	0x6873;	????	Illegal as 2-op instr
 198:	65 6c       	addc.b	@r12,	r5	
 19a:	6c 5f       	add.b	@r15,	r12	
 19c:	63 6d       	.word	0x6d63;	????	Illegal as 2-op instr
 19e:	64 5f       	add.b	@r15,	r4	
 1a0:	73 65       	.word	0x6573;	????	Illegal as 2-op instr
 1a2:	74 73       	subc.b	#-1,	r4	;r3 As==11
 1a4:	74 65       	addc.b	@r5+,	r4	
 1a6:	70 69       	addc.b	@r9+,	r0	
 1a8:	6e 74       	subc.b	@r4,	r14	
 1aa:	65 72       	subc.b	#4,	r5	;r2 As==10
 1ac:	76 61       	addc.b	@r1+,	r6	
 1ae:	6c 00       	.word	0x006c;	????	
 1b0:	63 6d       	.word	0x6d63;	????	Illegal as 2-op instr
 1b2:	64 5f       	add.b	@r15,	r4	
 1b4:	6c 69       	addc.b	@r9,	r12	
 1b6:	6e 65       	addc.b	@r5,	r14	
 1b8:	00 64       	addc	r4,	r0	
 1ba:	65 73       	subc.b	#2,	r5	;r3 As==10
 1bc:	63 00       	.word	0x0063;	????	
 1be:	5f 50 49 44 	add.b	17481(r0),r15	;PC rel. 0x4609
 1c2:	5f 74 00 73 	subc.b	29440(r4),r15	;0x7300(r4)
 1c6:	68 65       	addc.b	@r5,	r8	
 1c8:	6c 6c       	addc.b	@r12,	r12	
 1ca:	5f 63       	addc.b	#1,	r15	;r3 As==01
 1cc:	6d 64       	addc.b	@r4,	r13	
 1ce:	5f 61 72 67 	addc.b	26482(r1),r15	;0x6772(r1)
 1d2:	73 00       	.word	0x0073;	????	
 1d4:	73 68       	.word	0x6873;	????	Illegal as 2-op instr
 1d6:	65 6c       	addc.b	@r12,	r5	
 1d8:	6c 5f       	add.b	@r15,	r12	
 1da:	63 6d       	.word	0x6d63;	????	Illegal as 2-op instr
 1dc:	64 5f       	add.b	@r15,	r4	
 1de:	61 72       	subc.b	#4,	r1	;r2 As==10
 1e0:	67 74       	subc.b	@r4,	r7	
 1e2:	00 73       	sbc	r0		
 1e4:	68 6f       	addc.b	@r15,	r8	
 1e6:	72 74       	subc.b	@r4+,	r2	
 1e8:	20 75       	subc	@r5,	r0	
 1ea:	6e 73       	subc.b	#2,	r14	;r3 As==10
 1ec:	69 67       	addc.b	@r7,	r9	
 1ee:	6e 65       	addc.b	@r5,	r14	
 1f0:	64 20       	jnz	$+202    	;abs 0x2ba
 1f2:	69 6e       	addc.b	@r14,	r9	
 1f4:	74 00       	.word	0x0074;	????	
 1f6:	73 68       	.word	0x6873;	????	Illegal as 2-op instr
 1f8:	65 6c       	addc.b	@r12,	r5	
 1fa:	6c 5f       	add.b	@r15,	r12	
 1fc:	63 6d       	.word	0x6d63;	????	Illegal as 2-op instr
 1fe:	64 5f       	add.b	@r15,	r4	
 200:	73 65       	.word	0x6573;	????	Illegal as 2-op instr
 202:	74 72       	subc.b	#8,	r4	;r2 As==11
 204:	65 70       	subc.b	@r0,	r5	
 206:	6f 72       	subc.b	#4,	r15	;r2 As==10
 208:	74 69       	addc.b	@r9+,	r4	
 20a:	6e 74       	subc.b	@r4,	r14	
 20c:	65 72       	subc.b	#4,	r5	;r2 As==10
 20e:	76 61       	addc.b	@r1+,	r6	
 210:	6c 00       	.word	0x006c;	????	
 212:	6d 79       	subc.b	@r9,	r13	
 214:	5f 73       	subc.b	#1,	r15	;r3 As==01
 216:	68 65       	addc.b	@r5,	r8	
 218:	6c 6c       	addc.b	@r12,	r12	
 21a:	5f 63       	addc.b	#1,	r15	;r3 As==01
 21c:	6d 64       	addc.b	@r4,	r13	
 21e:	73 00       	.word	0x0073;	????	
 220:	5f 5f 50 31 	add.b	12624(r15),r15	;0x3150(r15)
 224:	49 46       	mov.b	r6,	r9	
 226:	47 00       	.word	0x0047;	????	
 228:	5f 5f 42 43 	add.b	17218(r15),r15	;0x4342(r15)
 22c:	53 43       	.word	0x4353;	????	Illegal as 2-op instr
 22e:	54 4c 31 00 	mov.b	49(r12),r4	;0x0031(r12)
 232:	5f 5f 50 31 	add.b	12624(r15),r15	;0x3150(r15)
 236:	49 45       	mov.b	r5,	r9	
 238:	00 63       	adc	r0		
 23a:	6f 75       	subc.b	@r5,	r15	
 23c:	6e 74       	subc.b	@r4,	r14	
 23e:	00 73       	sbc	r0		
 240:	68 65       	addc.b	@r5,	r8	
 242:	6c 6c       	addc.b	@r12,	r12	
 244:	5f 63       	addc.b	#1,	r15	;r3 As==01
 246:	6d 64       	addc.b	@r4,	r13	
 248:	5f 6c 6f 61 	addc.b	24943(r12),r15	;0x616f(r12)
 24c:	64 73       	subc.b	#2,	r4	;r3 As==10
 24e:	74 65       	addc.b	@r5+,	r4	
 250:	70 00       	.word	0x0070;	????	
 252:	5f 5f 50 31 	add.b	12624(r15),r15	;0x3150(r15)
 256:	49 4e       	mov.b	r14,	r9	
 258:	00 2f       	jc	$-510    	;abs 0x5a
 25a:	68 6f       	addc.b	@r15,	r8	
 25c:	6d 65       	addc.b	@r5,	r13	
 25e:	2f 61       	addc	@r1,	r15	
 260:	6e 74       	subc.b	@r4,	r14	
 262:	68 6f       	addc.b	@r15,	r8	
 264:	6e 79       	subc.b	@r9,	r14	
 266:	2f 44       	mov	@r4,	r15	
 268:	6f 63       	addc.b	#2,	r15	;r3 As==10
 26a:	75 6d       	addc.b	@r13+,	r5	
 26c:	65 6e       	addc.b	@r14,	r5	
 26e:	74 73       	subc.b	#-1,	r4	;r3 As==11
 270:	2f 61       	addc	@r1,	r15	
 272:	36 00       	.word	0x0036;	????	
 274:	5f 5f 43 41 	add.b	16707(r15),r15	;0x4143(r15)
 278:	4c 42       	mov.b	r2,	r12	
 27a:	43 31       	jn	$+648    	;abs 0x502
 27c:	5f 31       	jn	$+704    	;abs 0x53c
 27e:	4d 48       	mov.b	r8,	r13	
 280:	5a 00       	.word	0x005a;	????	
 282:	73 68       	.word	0x6873;	????	Illegal as 2-op instr
 284:	65 6c       	addc.b	@r12,	r5	
 286:	6c 5f       	add.b	@r15,	r12	
 288:	70 72       	subc.b	#8,	r0	;r2 As==11
 28a:	6f 63       	addc.b	#2,	r15	;r3 As==10
 28c:	65 73       	subc.b	#2,	r5	;r3 As==10
 28e:	73 5f       	.word	0x5f73;	????	Illegal as 2-op instr
 290:	63 6d       	.word	0x6d63;	????	Illegal as 2-op instr
 292:	64 73       	subc.b	#2,	r4	;r3 As==10
 294:	00 73       	sbc	r0		
 296:	68 65       	addc.b	@r5,	r8	
 298:	6c 6c       	addc.b	@r12,	r12	
 29a:	5f 61 72 67 	addc.b	26482(r1),r15	;0x6772(r1)
 29e:	5f 70 61 72 	subc.b	29281(r0),r15	;PC rel. 0x7501
 2a2:	73 65       	.word	0x6573;	????	Illegal as 2-op instr
 2a4:	72 00       	.word	0x0072;	????	
 2a6:	63 6d       	.word	0x6d63;	????	Illegal as 2-op instr
 2a8:	64 5f       	add.b	@r15,	r4	
 2aa:	6c 69       	addc.b	@r9,	r12	
 2ac:	6e 65       	addc.b	@r5,	r14	
 2ae:	5f 6c 65 6e 	addc.b	28261(r12),r15	;0x6e65(r12)
 2b2:	00 73       	sbc	r0		
 2b4:	68 65       	addc.b	@r5,	r8	
 2b6:	6c 6c       	addc.b	@r12,	r12	
 2b8:	5f 73       	subc.b	#1,	r15	;r3 As==01
 2ba:	74 72       	subc.b	#8,	r4	;r2 As==11
 2bc:	5f 63       	addc.b	#1,	r15	;r3 As==01
 2be:	6d 70       	subc.b	@r0,	r13	
 2c0:	00 73       	sbc	r0		
 2c2:	70 6f       	addc.b	@r15+,	r0	
 2c4:	73 00       	.word	0x0073;	????	
 2c6:	63 6d       	.word	0x6d63;	????	Illegal as 2-op instr
 2c8:	64 5f       	add.b	@r15,	r4	
 2ca:	6c 65       	addc.b	@r5,	r12	
 2cc:	6e 00       	.word	0x006e;	????	
 2ce:	73 74       	.word	0x7473;	????	Illegal as 2-op instr
 2d0:	72 32       	jn	$-794    	;abs 0xffb6
 2d2:	00 61       	addc	r1,	r0	
 2d4:	72 67       	addc.b	@r7+,	r2	
 2d6:	63 00       	.word	0x0063;	????	
 2d8:	73 68       	.word	0x6873;	????	Illegal as 2-op instr
 2da:	65 6c       	addc.b	@r12,	r5	
 2dc:	6c 5f       	add.b	@r15,	r12	
 2de:	73 74       	.word	0x7473;	????	Illegal as 2-op instr
 2e0:	72 5f       	add.b	@r15+,	r2	
 2e2:	6c 65       	addc.b	@r5,	r12	
 2e4:	6e 00       	.word	0x006e;	????	
 2e6:	6c 65       	addc.b	@r5,	r12	
 2e8:	6e 31       	jn	$+734    	;abs 0x5c6
 2ea:	00 6c       	addc	r12,	r0	
 2ec:	65 6e       	addc.b	@r14,	r5	
 2ee:	32 00       	.word	0x0032;	????	
 2f0:	2f 68       	addc	@r8,	r15	
 2f2:	6f 6d       	addc.b	@r13,	r15	
 2f4:	65 2f       	jc	$-308    	;abs 0x1c0
 2f6:	61 6e       	addc.b	@r14,	r1	
 2f8:	74 68       	addc.b	@r8+,	r4	
 2fa:	6f 6e       	addc.b	@r14,	r15	
 2fc:	79 2f       	jc	$-268    	;abs 0x1f0
 2fe:	44 6f       	addc.b	r15,	r4	
 300:	77 6e       	addc.b	@r14+,	r7	
 302:	6c 6f       	addc.b	@r15,	r12	
 304:	61 64       	addc.b	@r4,	r1	
 306:	73 2f       	jc	$-280    	;abs 0x1ee
 308:	6c 69       	addc.b	@r9,	r12	
 30a:	62 65       	addc.b	@r5,	r2	
 30c:	6d 62       	addc.b	#4,	r13	;r2 As==10
 30e:	2f 6c       	addc	@r12,	r15	
 310:	69 62       	addc.b	#4,	r9	;r2 As==10
 312:	73 68       	.word	0x6873;	????	Illegal as 2-op instr
 314:	65 6c       	addc.b	@r12,	r5	
 316:	6c 2f       	jc	$-294    	;abs 0x1f0
 318:	73 72       	.word	0x7273;	????	Illegal as 2-op instr
 31a:	63 00       	.word	0x0063;	????	
 31c:	73 68       	.word	0x6873;	????	Illegal as 2-op instr
 31e:	65 6c       	addc.b	@r12,	r5	
 320:	6c 5f       	add.b	@r15,	r12	
 322:	70 61       	addc.b	@r1+,	r0	
 324:	72 73       	subc.b	#-1,	r2	;r3 As==11
 326:	65 5f       	add.b	@r15,	r5	
 328:	69 6e       	addc.b	@r14,	r9	
 32a:	74 00       	.word	0x0074;	????	
 32c:	73 74       	.word	0x7473;	????	Illegal as 2-op instr
 32e:	72 31       	jn	$+742    	;abs 0x614
 330:	00 63       	adc	r0		
 332:	69 6f       	addc.b	@r15,	r9	
 334:	5f 70 72 69 	subc.b	26994(r0),r15	;PC rel. 0x6ca8
 338:	6e 74       	subc.b	@r4,	r14	
 33a:	62 00       	.word	0x0062;	????	
 33c:	62 75       	subc.b	@r5,	r2	
 33e:	66 66       	addc.b	@r6,	r6	
 340:	65 72       	subc.b	#4,	r5	;r2 As==10
 342:	00 63       	adc	r0		
 344:	69 6f       	addc.b	@r15,	r9	
 346:	5f 70 72 69 	subc.b	26994(r0),r15	;PC rel. 0x6cba
 34a:	6e 74       	subc.b	@r4,	r14	
 34c:	66 00       	.word	0x0066;	????	
 34e:	5f 5f 62 75 	add.b	30050(r15),r15	;0x7562(r15)
 352:	69 6c       	addc.b	@r12,	r9	
 354:	74 69       	addc.b	@r9+,	r4	
 356:	6e 5f       	add.b	@r15,	r14	
 358:	76 61       	addc.b	@r1+,	r6	
 35a:	5f 6c 69 73 	addc.b	29545(r12),r15	;0x7369(r12)
 35e:	74 00       	.word	0x0074;	????	
 360:	63 69       	.word	0x6963;	????	Illegal as 2-op instr
 362:	6f 5f       	add.b	@r15,	r15	
 364:	70 72       	subc.b	#8,	r0	;r2 As==11
 366:	69 6e       	addc.b	@r14,	r9	
 368:	74 69       	addc.b	@r9+,	r4	
 36a:	00 5f       	add	r15,	r0	
 36c:	78 74       	subc.b	@r4+,	r8	
 36e:	6f 61       	addc.b	@r1,	r15	
 370:	00 62       	addc	r2,	r0	
 372:	61 64       	addc.b	@r4,	r1	
 374:	5f 66 6d 74 	addc.b	29805(r6),r15	;0x746d(r6)
 378:	00 73       	sbc	r0		
 37a:	69 7a       	subc.b	@r10,	r9	
 37c:	65 00       	.word	0x0065;	????	
 37e:	5f 70 75 74 	subc.b	29813(r0),r15	;PC rel. 0x77f5
 382:	68 00       	.word	0x0068;	????	
 384:	63 6f       	.word	0x6f63;	????	Illegal as 2-op instr
 386:	6e 69       	addc.b	@r9,	r14	
 388:	6f 2e       	jc	$-800    	;abs 0x68
 38a:	63 00       	.word	0x0063;	????	
 38c:	66 6f       	addc.b	@r15,	r6	
 38e:	72 6d       	addc.b	@r13+,	r2	
 390:	61 74       	subc.b	@r4,	r1	
 392:	00 63       	adc	r0		
 394:	69 6f       	addc.b	@r15,	r9	
 396:	5f 70 72 69 	subc.b	26994(r0),r15	;PC rel. 0x6d0a
 39a:	6e 74       	subc.b	@r4,	r14	
 39c:	00 5f       	add	r15,	r0	
 39e:	5f 67 6e 75 	addc.b	30062(r7),r15	;0x756e(r7)
 3a2:	63 5f       	.word	0x5f63;	????	Illegal as 2-op instr
 3a4:	76 61       	addc.b	@r1+,	r6	
 3a6:	5f 6c 69 73 	addc.b	29545(r12),r15	;0x7369(r12)
 3aa:	74 00       	.word	0x0074;	????	
 3ac:	2f 68       	addc	@r8,	r15	
 3ae:	6f 6d       	addc.b	@r13,	r15	
 3b0:	65 2f       	jc	$-308    	;abs 0x27c
 3b2:	61 6e       	addc.b	@r14,	r1	
 3b4:	74 68       	addc.b	@r8+,	r4	
 3b6:	6f 6e       	addc.b	@r14,	r15	
 3b8:	79 2f       	jc	$-268    	;abs 0x2ac
 3ba:	44 6f       	addc.b	r15,	r4	
 3bc:	77 6e       	addc.b	@r14+,	r7	
 3be:	6c 6f       	addc.b	@r15,	r12	
 3c0:	61 64       	addc.b	@r4,	r1	
 3c2:	73 2f       	jc	$-280    	;abs 0x2aa
 3c4:	6c 69       	addc.b	@r9,	r12	
 3c6:	62 65       	addc.b	@r5,	r2	
 3c8:	6d 62       	addc.b	#4,	r13	;r2 As==10
 3ca:	2f 6c       	addc	@r12,	r15	
 3cc:	69 62       	addc.b	#4,	r9	;r2 As==10
 3ce:	63 6f       	.word	0x6f63;	????	Illegal as 2-op instr
 3d0:	6e 69       	addc.b	@r9,	r14	
 3d2:	6f 2f       	jc	$-288    	;abs 0x2b2
 3d4:	73 72       	.word	0x7273;	????	Illegal as 2-op instr
 3d6:	63 00       	.word	0x0063;	????	
 3d8:	63 69       	.word	0x6963;	????	Illegal as 2-op instr
 3da:	6f 5f       	add.b	@r15,	r15	
 3dc:	67 65       	addc.b	@r5,	r7	
 3de:	74 63       	addc.b	#-1,	r4	;r3 As==11
 3e0:	00 63       	adc	r0		
 3e2:	69 6f       	addc.b	@r15,	r9	
 3e4:	5f 70 72 69 	subc.b	26994(r0),r15	;PC rel. 0x6d58
 3e8:	6e 74       	subc.b	@r4,	r14	
 3ea:	63 00       	.word	0x0063;	????	
 3ec:	63 6f       	.word	0x6f63;	????	Illegal as 2-op instr
 3ee:	6e 69       	addc.b	@r9,	r14	
 3f0:	6f 5f       	add.b	@r15,	r15	
 3f2:	73 65       	.word	0x6573;	????	Illegal as 2-op instr
 3f4:	72 69       	addc.b	@r9+,	r2	
 3f6:	61 6c       	addc.b	@r12,	r1	
 3f8:	2e 63       	addc	#2,	r14	;r3 As==10
 3fa:	00 63       	adc	r0		
 3fc:	6c 6b       	addc.b	@r11,	r12	
 3fe:	73 70       	.word	0x7073;	????	Illegal as 2-op instr
 400:	65 65       	addc.b	@r5,	r5	
 402:	64 00       	.word	0x0064;	????	
 404:	73 65       	.word	0x6573;	????	Illegal as 2-op instr
 406:	72 69       	addc.b	@r9+,	r2	
 408:	61 6c       	addc.b	@r12,	r1	
 40a:	5f 72 65 63 	subc.b	&0x6365,r15	
 40e:	76 5f       	add.b	@r15+,	r6	
 410:	62 6c       	addc.b	@r12,	r2	
 412:	6f 63       	addc.b	#2,	r15	;r3 As==10
 414:	6b 69       	addc.b	@r9,	r11	
 416:	6e 67       	addc.b	@r7,	r14	
 418:	00 73       	sbc	r0		
 41a:	65 72       	subc.b	#4,	r5	;r2 As==10
 41c:	69 61       	addc.b	@r1,	r9	
 41e:	6c 5f       	add.b	@r15,	r12	
 420:	75 73       	subc.b	#-1,	r5	;r3 As==11
 422:	63 69       	.word	0x6963;	????	Illegal as 2-op instr
 424:	5f 6d 73 70 	addc.b	28787(r13),r15	;0x7073(r13)
 428:	34 33       	jn	$-406    	;abs 0x292
 42a:	30 2e       	jc	$-926    	;abs 0x8c
 42c:	63 00       	.word	0x0063;	????	
 42e:	5f 5f 55 43 	add.b	17237(r15),r15	;0x4355(r15)
 432:	41 30       	jn	$+132    	;abs 0x4b6
 434:	52 58 42 55 	add.b	21826(r8),r2	;0x5542(r8)
 438:	46 00       	.word	0x0046;	????	
 43a:	5f 5f 55 43 	add.b	17237(r15),r15	;0x4355(r15)
 43e:	41 30       	jn	$+132    	;abs 0x4c2
 440:	43 54       	.word	0x5443;	????	Illegal as 2-op instr
 442:	4c 31       	jn	$+666    	;abs 0x6dc
 444:	00 73       	sbc	r0		
 446:	65 72       	subc.b	#4,	r5	;r2 As==10
 448:	69 61       	addc.b	@r1,	r9	
 44a:	6c 5f       	add.b	@r15,	r12	
 44c:	72 65       	addc.b	@r5+,	r2	
 44e:	63 76       	.word	0x7663;	????	Illegal as 2-op instr
 450:	00 73       	sbc	r0		
 452:	65 72       	subc.b	#4,	r5	;r2 As==10
 454:	69 61       	addc.b	@r1,	r9	
 456:	6c 5f       	add.b	@r15,	r12	
 458:	73 65       	.word	0x6573;	????	Illegal as 2-op instr
 45a:	6e 64       	addc.b	@r4,	r14	
 45c:	00 5f       	add	r15,	r0	
 45e:	5f 50 31 53 	add.b	21297(r0),r15	;PC rel. 0x5791
 462:	45 4c       	mov.b	r12,	r5	
 464:	32 00       	.word	0x0032;	????	
 466:	5f 5f 50 31 	add.b	12624(r15),r15	;0x3150(r15)
 46a:	53 45       	.word	0x4553;	????	Illegal as 2-op instr
 46c:	4c 00       	.word	0x004c;	????	
 46e:	64 61       	addc.b	@r1,	r4	
 470:	74 61       	addc.b	@r1+,	r4	
 472:	00 62       	addc	r2,	r0	
 474:	61 75       	subc.b	@r5,	r1	
 476:	64 72       	subc.b	#4,	r4	;r2 As==10
 478:	61 74       	subc.b	@r4,	r1	
 47a:	65 00       	.word	0x0065;	????	
 47c:	2f 68       	addc	@r8,	r15	
 47e:	6f 6d       	addc.b	@r13,	r15	
 480:	65 2f       	jc	$-308    	;abs 0x34c
 482:	61 6e       	addc.b	@r14,	r1	
 484:	74 68       	addc.b	@r8+,	r4	
 486:	6f 6e       	addc.b	@r14,	r15	
 488:	79 2f       	jc	$-268    	;abs 0x37c
 48a:	44 6f       	addc.b	r15,	r4	
 48c:	77 6e       	addc.b	@r14+,	r7	
 48e:	6c 6f       	addc.b	@r15,	r12	
 490:	61 64       	addc.b	@r4,	r1	
 492:	73 2f       	jc	$-280    	;abs 0x37a
 494:	6c 69       	addc.b	@r9,	r12	
 496:	62 65       	addc.b	@r5,	r2	
 498:	6d 62       	addc.b	#4,	r13	;r2 As==10
 49a:	2f 6c       	addc	@r12,	r15	
 49c:	69 62       	addc.b	#4,	r9	;r2 As==10
 49e:	73 65       	.word	0x6573;	????	Illegal as 2-op instr
 4a0:	72 69       	addc.b	@r9+,	r2	
 4a2:	61 6c       	addc.b	@r12,	r1	
 4a4:	2f 73       	subc	#2,	r15	;r3 As==10
 4a6:	72 63       	addc.b	#-1,	r2	;r3 As==11
 4a8:	00 73       	sbc	r0		
 4aa:	65 72       	subc.b	#4,	r5	;r2 As==10
 4ac:	69 61       	addc.b	@r1,	r9	
 4ae:	6c 5f       	add.b	@r15,	r12	
 4b0:	63 6c       	.word	0x6c63;	????	Illegal as 2-op instr
 4b2:	6b 5f       	add.b	@r15,	r11	
 4b4:	69 6e       	addc.b	@r14,	r9	
 4b6:	69 74       	subc.b	@r4,	r9	
 4b8:	00 5f       	add	r15,	r0	
 4ba:	5f 55 43 41 	add.b	16707(r5),r15	;0x4143(r5)
 4be:	30 54       	add	@r4+,	r0	
 4c0:	58 42 55 46 	mov.b	&0x4655,r8	
 4c4:	00 73       	sbc	r0		
 4c6:	65 72       	subc.b	#4,	r5	;r2 As==10
 4c8:	69 61       	addc.b	@r1,	r9	
 4ca:	6c 5f       	add.b	@r15,	r12	
 4cc:	69 6e       	addc.b	@r14,	r9	
 4ce:	69 74       	subc.b	@r4,	r9	
 4d0:	00 5f       	add	r15,	r0	
 4d2:	5f 55 43 41 	add.b	16707(r5),r15	;0x4143(r5)
 4d6:	30 4d       	br	@r13+		
 4d8:	43 54       	.word	0x5443;	????	Illegal as 2-op instr
 4da:	4c 00       	.word	0x004c;	????	
 4dc:	73 65       	.word	0x6573;	????	Illegal as 2-op instr
 4de:	72 69       	addc.b	@r9+,	r2	
 4e0:	61 6c       	addc.b	@r12,	r1	
 4e2:	5f 73       	subc.b	#1,	r15	;r3 As==01
 4e4:	65 6e       	addc.b	@r14,	r5	
 4e6:	64 5f       	add.b	@r15,	r4	
 4e8:	62 6c       	addc.b	@r12,	r2	
 4ea:	6f 63       	addc.b	#2,	r15	;r3 As==10
 4ec:	6b 69       	addc.b	@r9,	r11	
 4ee:	6e 67       	addc.b	@r7,	r14	
 4f0:	00 5f       	add	r15,	r0	
 4f2:	5f 49 46 47 	mov.b	18246(r9),r15	;0x4746(r9)
 4f6:	32 00       	.word	0x0032;	????	
 4f8:	5f 5f 55 43 	add.b	17237(r15),r15	;0x4355(r15)
 4fc:	41 30       	jn	$+132    	;abs 0x580
 4fe:	42 52       	rla.b	r2		
 500:	30 00       	.word	0x0030;	????	
 502:	5f 5f 55 43 	add.b	17237(r15),r15	;0x4355(r15)
 506:	41 30       	jn	$+132    	;abs 0x58a
 508:	42 52       	rla.b	r2		
 50a:	31 00       	.word	0x0031;	????	
 50c:	73 69       	.word	0x6973;	????	Illegal as 2-op instr
 50e:	7a 65       	addc.b	@r5+,	r10	
 510:	5f 74 00 64 	subc.b	25600(r4),r15	;0x6400(r4)
 514:	73 74       	.word	0x7473;	????	Illegal as 2-op instr
 516:	30 00       	.word	0x0030;	????	
 518:	75 5f       	add.b	@r15+,	r5	
 51a:	63 68       	.word	0x6863;	????	Illegal as 2-op instr
 51c:	61 72       	subc.b	#4,	r1	;r2 As==10
 51e:	00 6d       	addc	r13,	r0	
 520:	65 6d       	addc.b	@r13,	r5	
 522:	73 65       	.word	0x6573;	????	Illegal as 2-op instr
 524:	74 00       	.word	0x0074;	????	
 526:	2f 62       	addc	#4,	r15	;r2 As==10
 528:	75 69       	addc.b	@r9+,	r5	
 52a:	6c 64       	addc.b	@r4,	r12	
 52c:	2f 6d       	addc	@r13,	r15	
 52e:	73 70       	.word	0x7073;	????	Illegal as 2-op instr
 530:	34 33       	jn	$-406    	;abs 0x39a
 532:	30 2d       	jc	$+610    	;abs 0x794
 534:	6c 69       	addc.b	@r9,	r12	
 536:	62 63       	addc.b	#2,	r2	;r3 As==10
 538:	2d 4f       	mov	@r15,	r13	
 53a:	6b 6d       	addc.b	@r13,	r11	
 53c:	30 51       	add	@r1+,	r0	
 53e:	58 2f       	jc	$-334    	;abs 0x3f0
 540:	6d 73       	subc.b	#2,	r13	;r3 As==10
 542:	70 34       	jge	$+226    	;abs 0x624
 544:	33 30       	jn	$+104    	;abs 0x5ac
 546:	2d 6c       	addc	@r12,	r13	
 548:	69 62       	addc.b	#4,	r9	;r2 As==10
 54a:	63 2d       	jc	$+712    	;abs 0x812
 54c:	32 30       	jn	$+102    	;abs 0x5b2
 54e:	31 32       	jn	$-924    	;abs 0x1b2
 550:	30 32       	jn	$-926    	;abs 0x1b2
 552:	32 34       	jge	$+102    	;abs 0x5b8
 554:	2f 73       	subc	#2,	r15	;r3 As==10
 556:	72 63       	addc.b	#-1,	r2	;r3 As==11
 558:	00 2e       	jc	$-1022   	;abs 0x15a
 55a:	2f 73       	subc	#2,	r15	;r3 As==10
 55c:	74 72       	subc.b	#8,	r4	;r2 As==11
 55e:	69 6e       	addc.b	@r14,	r9	
 560:	67 2f       	jc	$-304    	;abs 0x430
 562:	6d 65       	addc.b	@r5,	r13	
 564:	6d 73       	subc.b	#2,	r13	;r3 As==10
 566:	65 74       	subc.b	@r4,	r5	
 568:	2e 63       	addc	#2,	r14	;r3 As==10
 56a:	00 75       	subc	r5,	r0	
 56c:	5f 69 6e 74 	addc.b	29806(r9),r15	;0x746e(r9)
 570:	00 6c       	addc	r12,	r0	
 572:	65 6e       	addc.b	@r14,	r5	
 574:	67 74       	subc.b	@r4,	r7	
 576:	68 00       	.word	0x0068;	????	
 578:	73 69       	.word	0x6973;	????	Illegal as 2-op instr
 57a:	67 6e       	addc.b	@r14,	r7	
 57c:	00 61       	addc	r1,	r0	
 57e:	74 6f       	addc.b	@r15+,	r4	
 580:	69 00       	.word	0x0069;	????	
 582:	2e 2f       	jc	$-418    	;abs 0x3e0
 584:	73 74       	.word	0x7473;	????	Illegal as 2-op instr
 586:	64 6c       	addc.b	@r12,	r4	
 588:	69 62       	addc.b	#4,	r9	;r2 As==10
 58a:	2f 61       	addc	@r1,	r15	
 58c:	74 6f       	addc.b	@r15+,	r4	
 58e:	69 2e       	jc	$-812    	;abs 0x262
 590:	63 00       	.word	0x0063;	????	

Disassembly of section .debug_loc:

00000000 <.debug_loc>:
   0:	52 c1 54 c1 	bic.b	-16044(r1),r2	;0xc154(r1)
   4:	02 00       	.word	0x0002;	????	
   6:	71 02       	.word	0x0271;	????	
   8:	54 c1 5a c1 	bic.b	-16038(r1),r4	;0xc15a(r1)
   c:	02 00       	.word	0x0002;	????	
   e:	71 04       	.word	0x0471;	????	
  10:	5a c1 5e c1 	bic.b	-16034(r1),r10	;0xc15e(r1)
  14:	02 00       	.word	0x0002;	????	
  16:	71 06       	.word	0x0671;	????	
  18:	5e c1 64 c1 	bic.b	-16028(r1),r14	;0xc164(r1)
  1c:	02 00       	.word	0x0002;	????	
  1e:	71 08       	.word	0x0871;	????	
  20:	64 c1       	bic.b	@r1,	r4	
  22:	68 c1       	bic.b	@r1,	r8	
  24:	02 00       	.word	0x0002;	????	
  26:	71 04       	.word	0x0471;	????	
  28:	68 c1       	bic.b	@r1,	r8	
  2a:	6c c1       	bic.b	@r1,	r12	
  2c:	02 00       	.word	0x0002;	????	
  2e:	71 06       	.word	0x0671;	????	
  30:	6c c1       	bic.b	@r1,	r12	
  32:	72 c1       	bic.b	@r1+,	r2	
  34:	02 00       	.word	0x0002;	????	
  36:	71 08       	.word	0x0871;	????	
  38:	72 c1       	bic.b	@r1+,	r2	
  3a:	76 c1       	bic.b	@r1+,	r6	
  3c:	02 00       	.word	0x0002;	????	
  3e:	71 04       	.word	0x0471;	????	
  40:	76 c1       	bic.b	@r1+,	r6	
  42:	7a c1       	bic.b	@r1+,	r10	
  44:	02 00       	.word	0x0002;	????	
  46:	71 06       	.word	0x0671;	????	
  48:	7a c1       	bic.b	@r1+,	r10	
  4a:	80 c1 02 00 	bic	r1,	2(r0)	;PC rel. 0x004e
  4e:	71 08       	.word	0x0871;	????	
  50:	80 c1 84 c1 	bic	r1,	-15996(r0);PC rel. 0xc1d6
  54:	02 00       	.word	0x0002;	????	
  56:	71 04       	.word	0x0471;	????	
  58:	84 c1 88 c1 	bic	r1,	-15992(r4);0xc188(r4)
  5c:	02 00       	.word	0x0002;	????	
  5e:	71 06       	.word	0x0671;	????	
  60:	88 c1 8e c1 	bic	r1,	-15986(r8);0xc18e(r8)
  64:	02 00       	.word	0x0002;	????	
  66:	71 08       	.word	0x0871;	????	
  68:	8e c1 92 c1 	bic	r1,	-15982(r14);0xc192(r14)
  6c:	02 00       	.word	0x0002;	????	
  6e:	71 04       	.word	0x0471;	????	
  70:	92 c1 96 c1 	bic	-15978(r1),&0x0002	;0xc196(r1)
  74:	02 00 
  76:	71 06       	.word	0x0671;	????	
  78:	96 c1 9c c1 	bic	-15972(r1),2(r6)	;0xc19c(r1), 0x0002(r6)
  7c:	02 00 
  7e:	71 08       	.word	0x0871;	????	
  80:	9c c1 a0 c1 	bic	-15968(r1),2(r12)	;0xc1a0(r1), 0x0002(r12)
  84:	02 00 
  86:	71 04       	.word	0x0471;	????	
  88:	a0 c1 a4 c1 	bic	@r1,	-15964(r0);PC rel. 0xc22e
  8c:	02 00       	.word	0x0002;	????	
  8e:	71 06       	.word	0x0671;	????	
  90:	a4 c1 aa c1 	bic	@r1,	-15958(r4);0xc1aa(r4)
  94:	02 00       	.word	0x0002;	????	
  96:	71 08       	.word	0x0871;	????	
  98:	aa c1 ae c1 	bic	@r1,	-15954(r10);0xc1ae(r10)
  9c:	02 00       	.word	0x0002;	????	
  9e:	71 04       	.word	0x0471;	????	
  a0:	ae c1 b2 c1 	bic	@r1,	-15950(r14);0xc1b2(r14)
  a4:	02 00       	.word	0x0002;	????	
  a6:	71 06       	.word	0x0671;	????	
  a8:	b2 c1 b8 c1 	bic	@r1+,	&0xc1b8	
  ac:	02 00       	.word	0x0002;	????	
  ae:	71 08       	.word	0x0871;	????	
  b0:	b8 c1 bc c1 	bic	@r1+,	-15940(r8);0xc1bc(r8)
  b4:	02 00       	.word	0x0002;	????	
  b6:	71 04       	.word	0x0471;	????	
  b8:	bc c1 c0 c1 	bic	@r1+,	-15936(r12);0xc1c0(r12)
  bc:	02 00       	.word	0x0002;	????	
  be:	71 06       	.word	0x0671;	????	
  c0:	c0 c1 c6 c1 	bic.b	r1,	-15930(r0);PC rel. 0xc288
  c4:	02 00       	.word	0x0002;	????	
  c6:	71 08       	.word	0x0871;	????	
  c8:	c6 c1 ca c1 	bic.b	r1,	-15926(r6);0xc1ca(r6)
  cc:	02 00       	.word	0x0002;	????	
  ce:	71 04       	.word	0x0471;	????	
  d0:	ca c1 ce c1 	bic.b	r1,	-15922(r10);0xc1ce(r10)
  d4:	02 00       	.word	0x0002;	????	
  d6:	71 06       	.word	0x0671;	????	
  d8:	ce c1 d4 c1 	bic.b	r1,	-15916(r14);0xc1d4(r14)
  dc:	02 00       	.word	0x0002;	????	
  de:	71 08       	.word	0x0871;	????	
  e0:	d4 c1 da c1 	bic.b	-15910(r1),2(r4)	;0xc1da(r1), 0x0002(r4)
  e4:	02 00 
  e6:	71 04       	.word	0x0471;	????	
  e8:	00 00       	.word	0x0000;	????	
  ea:	00 00       	.word	0x0000;	????	
  ec:	52 c1 61 c1 	bic.b	-16031(r1),r2	;0xc161(r1)
  f0:	01 00       	.word	0x0001;	????	
  f2:	5f 00       	.word	0x005f;	????	
  f4:	00 00       	.word	0x0000;	????	
  f6:	00 da       	bis	r10,	r0	
  f8:	c1 dc c1 02 	bis.b	r12,	705(r1)	;0x02c1(r1)
  fc:	00 71       	subc	r1,	r0	
  fe:	02 dc       	bis	r12,	r2	
 100:	c1 de c1 02 	bis.b	r14,	705(r1)	;0x02c1(r1)
 104:	00 71       	subc	r1,	r0	
 106:	04 de       	bis	r14,	r4	
 108:	c1 00       	.word	0x00c1;	????	
 10a:	c2 02       	.word	0x02c2;	????	
 10c:	00 71       	subc	r1,	r0	
 10e:	06 00       	.word	0x0006;	????	
 110:	c2 04       	.word	0x04c2;	????	
 112:	c2 02       	.word	0x02c2;	????	
 114:	00 71       	subc	r1,	r0	
 116:	08 04       	.word	0x0408;	????	
 118:	c2 0a       	.word	0x0ac2;	????	
 11a:	c2 02       	.word	0x02c2;	????	
 11c:	00 71       	subc	r1,	r0	
 11e:	0a 0a       	.word	0x0a0a;	????	
 120:	c2 1a       	.word	0x1ac2;	????	
 122:	c2 02       	.word	0x02c2;	????	
 124:	00 71       	subc	r1,	r0	
 126:	06 00       	.word	0x0006;	????	
 128:	00 00       	.word	0x0000;	????	
 12a:	00 da       	bis	r10,	r0	
 12c:	c1 e4 c1 01 	xor.b	r4,	449(r1)	;0x01c1(r1)
 130:	00 5f       	add	r15,	r0	
 132:	e4 c1 16 c2 	bic.b	@r1,	-15850(r4);0xc216(r4)
 136:	01 00       	.word	0x0001;	????	
 138:	5a 00       	.word	0x005a;	????	
 13a:	00 00       	.word	0x0000;	????	
 13c:	00 e8       	xor	r8,	r0	
 13e:	c1 f0 c1 02 	and.b	r0,	705(r1)	;0x02c1(r1)
 142:	00 30       	jn	$+2      	;abs 0x144
 144:	9f 0c       	.word	0x0c9f;	????	
 146:	c2 12       	.word	0x12c2;	????	
 148:	c2 01       	.word	0x01c2;	????	
 14a:	00 5b       	add	r11,	r0	
 14c:	00 00       	.word	0x0000;	????	
 14e:	00 00       	.word	0x0000;	????	
 150:	1a c2 1c c2 	bic	&0xc21c,r10	
 154:	02 00       	.word	0x0002;	????	
 156:	71 02       	.word	0x0271;	????	
 158:	1c c2 1e c2 	bic	&0xc21e,r12	
 15c:	02 00       	.word	0x0002;	????	
 15e:	71 04       	.word	0x0471;	????	
 160:	1e c2 2c c2 	bic	&0xc22c,r14	
 164:	02 00       	.word	0x0002;	????	
 166:	71 06       	.word	0x0671;	????	
 168:	2c c2       	bic	#4,	r12	;r2 As==10
 16a:	30 c2       	bic	#8,	r0	;r2 As==11
 16c:	02 00       	.word	0x0002;	????	
 16e:	71 08       	.word	0x0871;	????	
 170:	30 c2       	bic	#8,	r0	;r2 As==11
 172:	34 c2       	bic	#8,	r4	;r2 As==11
 174:	02 00       	.word	0x0002;	????	
 176:	71 0a       	.word	0x0a71;	????	
 178:	34 c2       	bic	#8,	r4	;r2 As==11
 17a:	3c c2       	bic	#8,	r12	;r2 As==11
 17c:	02 00       	.word	0x0002;	????	
 17e:	71 0c       	.word	0x0c71;	????	
 180:	3c c2       	bic	#8,	r12	;r2 As==11
 182:	52 c2 02 00 	bic.b	&0x0002,r2	
 186:	71 06       	.word	0x0671;	????	
 188:	00 00       	.word	0x0000;	????	
 18a:	00 00       	.word	0x0000;	????	
 18c:	1a c2 2a c2 	bic	&0xc22a,r10	
 190:	01 00       	.word	0x0001;	????	
 192:	5f 00       	.word	0x005f;	????	
 194:	00 00       	.word	0x0000;	????	
 196:	00 1e       	.word	0x1e00;	????	
 198:	c2 2a       	jnc	$-634    	;abs 0xff1e
 19a:	c2 02       	.word	0x02c2;	????	
 19c:	00 30       	jn	$+2      	;abs 0x19e
 19e:	9f 3e       	jmp	$-704    	;abs 0xfede
 1a0:	c2 4a c2 01 	mov.b	r10,	&0x01c2	
 1a4:	00 5a       	add	r10,	r0	
 1a6:	00 00       	.word	0x0000;	????	
 1a8:	00 00       	.word	0x0000;	????	
 1aa:	52 c2 54 c2 	bic.b	&0xc254,r2	
 1ae:	02 00       	.word	0x0002;	????	
 1b0:	71 02       	.word	0x0271;	????	
 1b2:	54 c2 56 c2 	bic.b	&0xc256,r4	
 1b6:	02 00       	.word	0x0002;	????	
 1b8:	71 04       	.word	0x0471;	????	
 1ba:	56 c2 58 c2 	bic.b	&0xc258,r6	
 1be:	02 00       	.word	0x0002;	????	
 1c0:	71 06       	.word	0x0671;	????	
 1c2:	58 c2 5e c2 	bic.b	&0xc25e,r8	
 1c6:	02 00       	.word	0x0002;	????	
 1c8:	71 08       	.word	0x0871;	????	
 1ca:	5e c2 64 c2 	bic.b	&0xc264,r14	
 1ce:	02 00       	.word	0x0002;	????	
 1d0:	71 0a       	.word	0x0a71;	????	
 1d2:	64 c2       	bic.b	#4,	r4	;r2 As==10
 1d4:	9a c2 02 00 	bic	&0x0002,2161(r10);0x0871(r10)
 1d8:	71 08 
 1da:	9a c2 9e c2 	bic	&0xc29e,2(r10)	;0x0002(r10)
 1de:	02 00 
 1e0:	71 0a       	.word	0x0a71;	????	
 1e2:	9e c2 a4 c2 	bic	&0xc2a4,2(r14)	;0x0002(r14)
 1e6:	02 00 
 1e8:	71 0c       	.word	0x0c71;	????	
 1ea:	a4 c2 a6 c2 	bic	#4,	-15706(r4);r2 As==10, 0xc2a6(r4)
 1ee:	02 00       	.word	0x0002;	????	
 1f0:	71 08       	.word	0x0871;	????	
 1f2:	a6 c2 aa c2 	bic	#4,	-15702(r6);r2 As==10, 0xc2aa(r6)
 1f6:	02 00       	.word	0x0002;	????	
 1f8:	71 0a       	.word	0x0a71;	????	
 1fa:	aa c2 b0 c2 	bic	#4,	-15696(r10);r2 As==10, 0xc2b0(r10)
 1fe:	02 00       	.word	0x0002;	????	
 200:	71 0c       	.word	0x0c71;	????	
 202:	b0 c2 b2 c2 	bic	#8,	-15694(r0);r2 As==11, PC rel. 0xc4b6
 206:	02 00       	.word	0x0002;	????	
 208:	71 08       	.word	0x0871;	????	
 20a:	b2 c2 b6 c2 	bic	#8,	&0xc2b6	;r2 As==11
 20e:	02 00       	.word	0x0002;	????	
 210:	71 0a       	.word	0x0a71;	????	
 212:	b6 c2 bc c2 	bic	#8,	-15684(r6);r2 As==11, 0xc2bc(r6)
 216:	02 00       	.word	0x0002;	????	
 218:	71 0c       	.word	0x0c71;	????	
 21a:	bc c2 c6 c2 	bic	#8,	-15674(r12);r2 As==11, 0xc2c6(r12)
 21e:	02 00       	.word	0x0002;	????	
 220:	71 08       	.word	0x0871;	????	
 222:	00 00       	.word	0x0000;	????	
 224:	00 00       	.word	0x0000;	????	
 226:	52 c2 61 c2 	bic.b	&0xc261,r2	
 22a:	01 00       	.word	0x0001;	????	
 22c:	5f 61 c2 92 	addc.b	-27966(r1),r15	;0x92c2(r1)
 230:	c2 01       	.word	0x01c2;	????	
 232:	00 5a       	add	r10,	r0	
 234:	00 00       	.word	0x0000;	????	
 236:	00 00       	.word	0x0000;	????	
 238:	c6 c2 c8 c2 	bic.b	r2,	-15672(r6);0xc2c8(r6)
 23c:	02 00       	.word	0x0002;	????	
 23e:	71 02       	.word	0x0271;	????	
 240:	c8 c2 ce c2 	bic.b	r2,	-15666(r8);0xc2ce(r8)
 244:	02 00       	.word	0x0002;	????	
 246:	71 04       	.word	0x0471;	????	
 248:	ce c2 d2 c2 	bic.b	r2,	-15662(r14);0xc2d2(r14)
 24c:	02 00       	.word	0x0002;	????	
 24e:	71 06       	.word	0x0671;	????	
 250:	d2 c2 d8 c2 	bic.b	&0xc2d8,&0x0002	
 254:	02 00 
 256:	71 08       	.word	0x0871;	????	
 258:	d8 c2 e8 c2 	bic.b	&0xc2e8,2(r8)	;0x0002(r8)
 25c:	02 00 
 25e:	71 04       	.word	0x0471;	????	
 260:	00 00       	.word	0x0000;	????	
 262:	00 00       	.word	0x0000;	????	
 264:	c6 c2 d5 c2 	bic.b	r2,	-15659(r6);0xc2d5(r6)
 268:	01 00       	.word	0x0001;	????	
 26a:	5f d5 c2 e6 	bis.b	-6462(r5),r15	;0xe6c2(r5)
 26e:	c2 03       	.word	0x03c2;	????	
 270:	00 7b       	subc	r11,	r0	
 272:	7e 9f       	cmp.b	@r15+,	r14	
 274:	00 00       	.word	0x0000;	????	
 276:	00 00       	.word	0x0000;	????	
 278:	e8 c2 ea c2 	bic.b	#4,	-15638(r8);r2 As==10, 0xc2ea(r8)
 27c:	02 00       	.word	0x0002;	????	
 27e:	71 02       	.word	0x0271;	????	
 280:	ea c2 f0 c2 	bic.b	#4,	-15632(r10);r2 As==10, 0xc2f0(r10)
 284:	02 00       	.word	0x0002;	????	
 286:	71 04       	.word	0x0471;	????	
 288:	f0 c2 f4 c2 	bic.b	#8,	-15628(r0);r2 As==11, PC rel. 0xc57e
 28c:	02 00       	.word	0x0002;	????	
 28e:	71 06       	.word	0x0671;	????	
 290:	f4 c2 fa c2 	bic.b	#8,	-15622(r4);r2 As==11, 0xc2fa(r4)
 294:	02 00       	.word	0x0002;	????	
 296:	71 08       	.word	0x0871;	????	
 298:	fa c2 0a c3 	bic.b	#8,	-15606(r10);r2 As==11, 0xc30a(r10)
 29c:	02 00       	.word	0x0002;	????	
 29e:	71 04       	.word	0x0471;	????	
 2a0:	00 00       	.word	0x0000;	????	
 2a2:	00 00       	.word	0x0000;	????	
 2a4:	e8 c2 f7 c2 	bic.b	#4,	-15625(r8);r2 As==10, 0xc2f7(r8)
 2a8:	01 00       	.word	0x0001;	????	
 2aa:	5f f7 c2 08 	and.b	2242(r7),r15	;0x08c2(r7)
 2ae:	c3 03       	.word	0x03c3;	????	
 2b0:	00 7b       	subc	r11,	r0	
 2b2:	7e 9f       	cmp.b	@r15+,	r14	
 2b4:	00 00       	.word	0x0000;	????	
 2b6:	00 00       	.word	0x0000;	????	
 2b8:	0a c3       	bic	#0,	r10	;r3 As==00
 2ba:	0c c3       	bic	#0,	r12	;r3 As==00
 2bc:	02 00       	.word	0x0002;	????	
 2be:	71 02       	.word	0x0271;	????	
 2c0:	0c c3       	bic	#0,	r12	;r3 As==00
 2c2:	0e c3       	bic	#0,	r14	;r3 As==00
 2c4:	02 00       	.word	0x0002;	????	
 2c6:	71 04       	.word	0x0471;	????	
 2c8:	0e c3       	bic	#0,	r14	;r3 As==00
 2ca:	14 c3       	bic	#1,	r4	;r3 As==01
 2cc:	02 00       	.word	0x0002;	????	
 2ce:	71 06       	.word	0x0671;	????	
 2d0:	14 c3       	bic	#1,	r4	;r3 As==01
 2d2:	1a c3       	bic	#1,	r10	;r3 As==01
 2d4:	02 00       	.word	0x0002;	????	
 2d6:	71 08       	.word	0x0871;	????	
 2d8:	1a c3       	bic	#1,	r10	;r3 As==01
 2da:	1e c3       	bic	#1,	r14	;r3 As==01
 2dc:	02 00       	.word	0x0002;	????	
 2de:	71 0a       	.word	0x0a71;	????	
 2e0:	1e c3       	bic	#1,	r14	;r3 As==01
 2e2:	26 c3       	bic	#2,	r6	;r3 As==10
 2e4:	02 00       	.word	0x0002;	????	
 2e6:	71 0c       	.word	0x0c71;	????	
 2e8:	26 c3       	bic	#2,	r6	;r3 As==10
 2ea:	38 c3       	bic	#-1,	r8	;r3 As==11
 2ec:	02 00       	.word	0x0002;	????	
 2ee:	71 06       	.word	0x0671;	????	
 2f0:	00 00       	.word	0x0000;	????	
 2f2:	00 00       	.word	0x0000;	????	
 2f4:	0a c3       	bic	#0,	r10	;r3 As==00
 2f6:	21 c3       	bic	#2,	r1	;r3 As==10
 2f8:	01 00       	.word	0x0001;	????	
 2fa:	5f 21       	jnz	$+704    	;abs 0x5ba
 2fc:	c3 34       	jge	$+392    	;abs 0x484
 2fe:	c3 03       	.word	0x03c3;	????	
 300:	00 7a       	subc	r10,	r0	
 302:	7e 9f       	cmp.b	@r15+,	r14	
 304:	00 00       	.word	0x0000;	????	
 306:	00 00       	.word	0x0000;	????	
 308:	38 c3       	bic	#-1,	r8	;r3 As==11
 30a:	3a c3       	bic	#-1,	r10	;r3 As==11
 30c:	02 00       	.word	0x0002;	????	
 30e:	71 02       	.word	0x0271;	????	
 310:	3a c3       	bic	#-1,	r10	;r3 As==11
 312:	40 c3       	bic.b	#0,	r0	;r3 As==00
 314:	02 00       	.word	0x0002;	????	
 316:	71 04       	.word	0x0471;	????	
 318:	40 c3       	bic.b	#0,	r0	;r3 As==00
 31a:	44 c3       	bic.b	#0,	r4	;r3 As==00
 31c:	02 00       	.word	0x0002;	????	
 31e:	71 06       	.word	0x0671;	????	
 320:	44 c3       	bic.b	#0,	r4	;r3 As==00
 322:	4a c3       	bic.b	#0,	r10	;r3 As==00
 324:	02 00       	.word	0x0002;	????	
 326:	71 08       	.word	0x0871;	????	
 328:	4a c3       	bic.b	#0,	r10	;r3 As==00
 32a:	5a c3       	bic.b	#1,	r10	;r3 As==01
 32c:	02 00       	.word	0x0002;	????	
 32e:	71 04       	.word	0x0471;	????	
 330:	00 00       	.word	0x0000;	????	
 332:	00 00       	.word	0x0000;	????	
 334:	38 c3       	bic	#-1,	r8	;r3 As==11
 336:	47 c3       	bic.b	#0,	r7	;r3 As==00
 338:	01 00       	.word	0x0001;	????	
 33a:	5f 47 c3 58 	mov.b	22723(r7),r15	;0x58c3(r7)
 33e:	c3 03       	.word	0x03c3;	????	
 340:	00 7b       	subc	r11,	r0	
 342:	7e 9f       	cmp.b	@r15+,	r14	
 344:	00 00       	.word	0x0000;	????	
 346:	00 00       	.word	0x0000;	????	
 348:	5a c3       	bic.b	#1,	r10	;r3 As==01
 34a:	5c c3       	bic.b	#1,	r12	;r3 As==01
 34c:	02 00       	.word	0x0002;	????	
 34e:	71 02       	.word	0x0271;	????	
 350:	5c c3       	bic.b	#1,	r12	;r3 As==01
 352:	62 c3       	bic.b	#2,	r2	;r3 As==10
 354:	02 00       	.word	0x0002;	????	
 356:	71 04       	.word	0x0471;	????	
 358:	62 c3       	bic.b	#2,	r2	;r3 As==10
 35a:	66 c3       	bic.b	#2,	r6	;r3 As==10
 35c:	02 00       	.word	0x0002;	????	
 35e:	71 06       	.word	0x0671;	????	
 360:	66 c3       	bic.b	#2,	r6	;r3 As==10
 362:	6c c3       	bic.b	#2,	r12	;r3 As==10
 364:	02 00       	.word	0x0002;	????	
 366:	71 08       	.word	0x0871;	????	
 368:	6c c3       	bic.b	#2,	r12	;r3 As==10
 36a:	7c c3       	bic.b	#-1,	r12	;r3 As==11
 36c:	02 00       	.word	0x0002;	????	
 36e:	71 04       	.word	0x0471;	????	
 370:	00 00       	.word	0x0000;	????	
 372:	00 00       	.word	0x0000;	????	
 374:	5a c3       	bic.b	#1,	r10	;r3 As==01
 376:	69 c3       	bic.b	#2,	r9	;r3 As==10
 378:	01 00       	.word	0x0001;	????	
 37a:	5f 69 c3 7a 	addc.b	31427(r9),r15	;0x7ac3(r9)
 37e:	c3 03       	.word	0x03c3;	????	
 380:	00 7b       	subc	r11,	r0	
 382:	7e 9f       	cmp.b	@r15+,	r14	
 384:	00 00       	.word	0x0000;	????	
 386:	00 00       	.word	0x0000;	????	
 388:	7c c3       	bic.b	#-1,	r12	;r3 As==11
 38a:	7e c3       	bic.b	#-1,	r14	;r3 As==11
 38c:	02 00       	.word	0x0002;	????	
 38e:	71 02       	.word	0x0271;	????	
 390:	7e c3       	bic.b	#-1,	r14	;r3 As==11
 392:	84 c3 02 00 	bic	#0,	2(r4)	;r3 As==00, 0x0002(r4)
 396:	71 04       	.word	0x0471;	????	
 398:	84 c3 88 c3 	bic	#0,	-15480(r4);r3 As==00, 0xc388(r4)
 39c:	02 00       	.word	0x0002;	????	
 39e:	71 06       	.word	0x0671;	????	
 3a0:	88 c3 8e c3 	bic	#0,	-15474(r8);r3 As==00, 0xc38e(r8)
 3a4:	02 00       	.word	0x0002;	????	
 3a6:	71 08       	.word	0x0871;	????	
 3a8:	8e c3 9e c3 	bic	#0,	-15458(r14);r3 As==00, 0xc39e(r14)
 3ac:	02 00       	.word	0x0002;	????	
 3ae:	71 04       	.word	0x0471;	????	
 3b0:	00 00       	.word	0x0000;	????	
 3b2:	00 00       	.word	0x0000;	????	
 3b4:	7c c3       	bic.b	#-1,	r12	;r3 As==11
 3b6:	8b c3 01 00 	bic	#0,	1(r11)	;r3 As==00, 0x0001(r11)
 3ba:	5f 8b c3 9c 	sub.b	-25405(r11),r15	;0x9cc3(r11)
 3be:	c3 03       	.word	0x03c3;	????	
 3c0:	00 7b       	subc	r11,	r0	
 3c2:	7e 9f       	cmp.b	@r15+,	r14	
 3c4:	00 00       	.word	0x0000;	????	
 3c6:	00 00       	.word	0x0000;	????	
 3c8:	9e c3 a8 c3 	bic	#1,	-15448(r14);r3 As==01, 0xc3a8(r14)
 3cc:	02 00       	.word	0x0002;	????	
 3ce:	71 02       	.word	0x0271;	????	
 3d0:	a8 c3 ae c3 	bic	#2,	-15442(r8);r3 As==10, 0xc3ae(r8)
 3d4:	02 00       	.word	0x0002;	????	
 3d6:	71 04       	.word	0x0471;	????	
 3d8:	ae c3 b6 c3 	bic	#2,	-15434(r14);r3 As==10, 0xc3b6(r14)
 3dc:	02 00       	.word	0x0002;	????	
 3de:	71 02       	.word	0x0271;	????	
 3e0:	b6 c3 ba c3 	bic	#-1,	-15430(r6);r3 As==11, 0xc3ba(r6)
 3e4:	02 00       	.word	0x0002;	????	
 3e6:	71 04       	.word	0x0471;	????	
 3e8:	ba c3 be c3 	bic	#-1,	-15426(r10);r3 As==11, 0xc3be(r10)
 3ec:	02 00       	.word	0x0002;	????	
 3ee:	71 06       	.word	0x0671;	????	
 3f0:	be c3 c6 c3 	bic	#-1,	-15418(r14);r3 As==11, 0xc3c6(r14)
 3f4:	02 00       	.word	0x0002;	????	
 3f6:	71 08       	.word	0x0871;	????	
 3f8:	c6 c3 ce c3 	bic.b	#0,	-15410(r6);r3 As==00, 0xc3ce(r6)
 3fc:	02 00       	.word	0x0002;	????	
 3fe:	71 02       	.word	0x0271;	????	
 400:	00 00       	.word	0x0000;	????	
 402:	00 00       	.word	0x0000;	????	
 404:	9e c3 ab c3 	bic	#1,	-15445(r14);r3 As==01, 0xc3ab(r14)
 408:	01 00       	.word	0x0001;	????	
 40a:	5f b2 c3 c1 	bit.b	&0xc1c3,r15	
 40e:	c3 01       	.word	0x01c3;	????	
 410:	00 5f       	add	r15,	r0	
 412:	00 00       	.word	0x0000;	????	
 414:	00 00       	.word	0x0000;	????	
 416:	ce c3 d8 c3 	bic.b	#0,	-15400(r14);r3 As==00, 0xc3d8(r14)
 41a:	02 00       	.word	0x0002;	????	
 41c:	71 02       	.word	0x0271;	????	
 41e:	d8 c3 de c3 	bic.b	#1,	-15394(r8);r3 As==01, 0xc3de(r8)
 422:	02 00       	.word	0x0002;	????	
 424:	71 04       	.word	0x0471;	????	
 426:	de c3 e6 c3 	bic.b	#1,	-15386(r14);r3 As==01, 0xc3e6(r14)
 42a:	02 00       	.word	0x0002;	????	
 42c:	71 02       	.word	0x0271;	????	
 42e:	e6 c3 ea c3 	bic.b	#2,	-15382(r6);r3 As==10, 0xc3ea(r6)
 432:	02 00       	.word	0x0002;	????	
 434:	71 04       	.word	0x0471;	????	
 436:	ea c3 ee c3 	bic.b	#2,	-15378(r10);r3 As==10, 0xc3ee(r10)
 43a:	02 00       	.word	0x0002;	????	
 43c:	71 06       	.word	0x0671;	????	
 43e:	ee c3 f6 c3 	bic.b	#2,	-15370(r14);r3 As==10, 0xc3f6(r14)
 442:	02 00       	.word	0x0002;	????	
 444:	71 08       	.word	0x0871;	????	
 446:	f6 c3 fe c3 	bic.b	#-1,	-15362(r6);r3 As==11, 0xc3fe(r6)
 44a:	02 00       	.word	0x0002;	????	
 44c:	71 02       	.word	0x0271;	????	
 44e:	00 00       	.word	0x0000;	????	
 450:	00 00       	.word	0x0000;	????	
 452:	ce c3 db c3 	bic.b	#0,	-15397(r14);r3 As==00, 0xc3db(r14)
 456:	01 00       	.word	0x0001;	????	
 458:	5f e2 c3 f1 	xor.b	&0xf1c3,r15	
 45c:	c3 01       	.word	0x01c3;	????	
 45e:	00 5f       	add	r15,	r0	
 460:	00 00       	.word	0x0000;	????	
 462:	00 00       	.word	0x0000;	????	
 464:	fe c3 08 c4 	bic.b	#-1,	-15352(r14);r3 As==11, 0xc408(r14)
 468:	02 00       	.word	0x0002;	????	
 46a:	71 02       	.word	0x0271;	????	
 46c:	08 c4       	bic	r4,	r8	
 46e:	0c c4       	bic	r4,	r12	
 470:	02 00       	.word	0x0002;	????	
 472:	71 04       	.word	0x0471;	????	
 474:	0c c4       	bic	r4,	r12	
 476:	10 c4 02 00 	bic	2(r4),	r0	;0x0002(r4)
 47a:	71 06       	.word	0x0671;	????	
 47c:	10 c4 18 c4 	bic	-15336(r4),r0	;0xc418(r4)
 480:	02 00       	.word	0x0002;	????	
 482:	71 08       	.word	0x0871;	????	
 484:	18 c4 24 c4 	bic	-15324(r4),r8	;0xc424(r4)
 488:	02 00       	.word	0x0002;	????	
 48a:	71 02       	.word	0x0271;	????	
 48c:	24 c4       	bic	@r4,	r4	
 48e:	2a c4       	bic	@r4,	r10	
 490:	02 00       	.word	0x0002;	????	
 492:	71 04       	.word	0x0471;	????	
 494:	2a c4       	bic	@r4,	r10	
 496:	2e c4       	bic	@r4,	r14	
 498:	02 00       	.word	0x0002;	????	
 49a:	71 02       	.word	0x0271;	????	
 49c:	00 00       	.word	0x0000;	????	
 49e:	00 00       	.word	0x0000;	????	
 4a0:	fe c3 13 c4 	bic.b	#-1,	-15341(r14);r3 As==11, 0xc413(r14)
 4a4:	01 00       	.word	0x0001;	????	
 4a6:	5f 20       	jnz	$+192    	;abs 0x566
 4a8:	c4 27       	jz	$-118    	;abs 0x432
 4aa:	c4 01       	.word	0x01c4;	????	
 4ac:	00 5f       	add	r15,	r0	
 4ae:	00 00       	.word	0x0000;	????	
 4b0:	00 00       	.word	0x0000;	????	
 4b2:	2e c4       	bic	@r4,	r14	
 4b4:	34 c4       	bic	@r4+,	r4	
 4b6:	01 00       	.word	0x0001;	????	
 4b8:	5f 34       	jge	$+192    	;abs 0x578
 4ba:	c4 37       	jge	$-118    	;abs 0x444
 4bc:	c4 01       	.word	0x01c4;	????	
 4be:	00 5e       	add	r14,	r0	
 4c0:	00 00       	.word	0x0000;	????	
 4c2:	00 00       	.word	0x0000;	????	
 4c4:	a6 c0 c8 c0 	bic	@r0,	-16184(r6);0xc0c8(r6)
 4c8:	02 00       	.word	0x0002;	????	
 4ca:	30 9f       	cmp	@r15+,	r0	
 4cc:	d2 c0 ea c0 	bic.b	-16150(r0),&0x0001	;PC rel. 0xc5b8
 4d0:	01 00 
 4d2:	5b f0 c0 fe 	and.b	-320(r0),r11	;PC rel. 0x0394
 4d6:	c0 01       	.word	0x01c0;	????	
 4d8:	00 5b       	add	r11,	r0	
 4da:	00 00       	.word	0x0000;	????	
 4dc:	00 00       	.word	0x0000;	????	
 4de:	c0 c0 d9 c0 	bic.b	r0,	-16167(r0);PC rel. 0xc5b9
 4e2:	01 00       	.word	0x0001;	????	
 4e4:	5f ea c0 f3 	xor.b	-3136(r10),r15	;0xf3c0(r10)
 4e8:	c0 01       	.word	0x01c0;	????	
 4ea:	00 5f       	add	r15,	r0	
 4ec:	f8 c0 02 c1 	bic.b	#-16126,1(r8)	;#0xc102, 0x0001(r8)
 4f0:	01 00 
 4f2:	5f 00       	.word	0x005f;	????	
 4f4:	00 00       	.word	0x0000;	????	
 4f6:	00 3a       	jl	$-1022   	;abs 0xf8
 4f8:	c4 3c       	jmp	$+394    	;abs 0x682
 4fa:	c4 02       	.word	0x02c4;	????	
 4fc:	00 71       	subc	r1,	r0	
 4fe:	00 3c       	jmp	$+2      	;abs 0x500
 500:	c4 58 c4 02 	add.b	r8,	708(r4)	;0x02c4(r4)
 504:	00 71       	subc	r1,	r0	
 506:	02 00       	.word	0x0002;	????	
 508:	00 00       	.word	0x0000;	????	
 50a:	00 00       	.word	0x0000;	????	
 50c:	00 04       	.word	0x0400;	????	
 50e:	00 01       	.word	0x0100;	????	
 510:	00 5f       	add	r15,	r0	
 512:	04 00       	.word	0x0004;	????	
 514:	18 00       	.word	0x0018;	????	
 516:	01 00       	.word	0x0001;	????	
 518:	5e 00       	.word	0x005e;	????	
 51a:	00 00       	.word	0x0000;	????	
 51c:	00 02       	.word	0x0200;	????	
 51e:	00 06       	.word	0x0600;	????	
 520:	00 02       	.word	0x0200;	????	
 522:	00 30       	jn	$+2      	;abs 0x524
 524:	9f 06       	.word	0x069f;	????	
 526:	00 08       	.word	0x0800;	????	
 528:	00 01       	.word	0x0100;	????	
 52a:	00 5c       	add	r12,	r0	
 52c:	08 00       	.word	0x0008;	????	
 52e:	0c 00       	.word	0x000c;	????	
 530:	01 00       	.word	0x0001;	????	
 532:	5f 0c       	.word	0x0c5f;	????	
 534:	00 18       	.word	0x1800;	????	
 536:	00 01       	.word	0x0100;	????	
 538:	00 5c       	add	r12,	r0	
 53a:	00 00       	.word	0x0000;	????	
 53c:	00 00       	.word	0x0000;	????	
 53e:	18 00       	.word	0x0018;	????	
 540:	1a 00       	.word	0x001a;	????	
 542:	02 00       	.word	0x0002;	????	
 544:	71 02       	.word	0x0271;	????	
 546:	1a 00       	.word	0x001a;	????	
 548:	1c 00       	.word	0x001c;	????	
 54a:	02 00       	.word	0x0002;	????	
 54c:	71 04       	.word	0x0471;	????	
 54e:	1c 00       	.word	0x001c;	????	
 550:	1e 00       	.word	0x001e;	????	
 552:	02 00       	.word	0x0002;	????	
 554:	71 06       	.word	0x0671;	????	
 556:	1e 00       	.word	0x001e;	????	
 558:	5c 00       	.word	0x005c;	????	
 55a:	02 00       	.word	0x0002;	????	
 55c:	71 08       	.word	0x0871;	????	
 55e:	00 00       	.word	0x0000;	????	
 560:	00 00       	.word	0x0000;	????	
 562:	18 00       	.word	0x0018;	????	
 564:	4c 00       	.word	0x004c;	????	
 566:	01 00       	.word	0x0001;	????	
 568:	5f 4e 00 50 	mov.b	20480(r14),r15	;0x5000(r14)
 56c:	00 01       	.word	0x0100;	????	
 56e:	00 5f       	add	r15,	r0	
 570:	52 00       	.word	0x0052;	????	
 572:	54 00       	.word	0x0054;	????	
 574:	01 00       	.word	0x0001;	????	
 576:	5f 00       	.word	0x005f;	????	
 578:	00 00       	.word	0x0000;	????	
 57a:	00 26       	jz	$-1022   	;abs 0x17c
 57c:	00 40       	br	r0		
 57e:	00 01       	.word	0x0100;	????	
 580:	00 5b       	add	r11,	r0	
 582:	00 00       	.word	0x0000;	????	
 584:	00 00       	.word	0x0000;	????	
 586:	5c 00       	.word	0x005c;	????	
 588:	60 00       	.word	0x0060;	????	
 58a:	01 00       	.word	0x0001;	????	
 58c:	5f 00       	.word	0x005f;	????	
 58e:	00 00       	.word	0x0000;	????	
 590:	00 5c       	add	r12,	r0	
 592:	00 60       	rlc	r0		
 594:	00 02       	.word	0x0200;	????	
 596:	00 30       	jn	$+2      	;abs 0x598
 598:	9f 60 00 70 	addc	28672(r0),256(r15);PC rel. 0x759a, 0x0100(r15)
 59c:	00 01 
 59e:	00 5d       	add	r13,	r0	
 5a0:	82 00       	.word	0x0082;	????	
 5a2:	8c 00       	.word	0x008c;	????	
 5a4:	01 00       	.word	0x0001;	????	
 5a6:	5d 00       	.word	0x005d;	????	
 5a8:	00 00       	.word	0x0000;	????	
 5aa:	00 5c       	add	r12,	r0	
 5ac:	00 60       	rlc	r0		
 5ae:	00 02       	.word	0x0200;	????	
 5b0:	00 30       	jn	$+2      	;abs 0x5b2
 5b2:	9f 00       	.word	0x009f;	????	
 5b4:	00 00       	.word	0x0000;	????	
 5b6:	00 60       	rlc	r0		
 5b8:	00 82       	sub	r2,	r0	
 5ba:	00 01       	.word	0x0100;	????	
 5bc:	00 5c       	add	r12,	r0	
 5be:	84 00       	.word	0x0084;	????	
 5c0:	88 00       	.word	0x0088;	????	
 5c2:	02 00       	.word	0x0002;	????	
 5c4:	7f 00       	.word	0x007f;	????	
 5c6:	88 00       	.word	0x0088;	????	
 5c8:	8c 00       	.word	0x008c;	????	
 5ca:	01 00       	.word	0x0001;	????	
 5cc:	5c 00       	.word	0x005c;	????	
 5ce:	00 00       	.word	0x0000;	????	
 5d0:	00 8c       	sub	r12,	r0	
 5d2:	00 8e       	sub	r14,	r0	
 5d4:	00 02       	.word	0x0200;	????	
 5d6:	00 71       	subc	r1,	r0	
 5d8:	02 8e       	sub	r14,	r2	
 5da:	00 90       	cmp	r0,	r0	
 5dc:	00 02       	.word	0x0200;	????	
 5de:	00 71       	subc	r1,	r0	
 5e0:	04 90       	cmp	r0,	r4	
 5e2:	00 92       	cmp	r2,	r0	
 5e4:	00 02       	.word	0x0200;	????	
 5e6:	00 71       	subc	r1,	r0	
 5e8:	06 92       	cmp	r2,	r6	
 5ea:	00 94       	cmp	r4,	r0	
 5ec:	00 02       	.word	0x0200;	????	
 5ee:	00 71       	subc	r1,	r0	
 5f0:	08 94       	cmp	r4,	r8	
 5f2:	00 96       	cmp	r6,	r0	
 5f4:	00 02       	.word	0x0200;	????	
 5f6:	00 71       	subc	r1,	r0	
 5f8:	0a 96       	cmp	r6,	r10	
 5fa:	00 98       	cmp	r8,	r0	
 5fc:	00 02       	.word	0x0200;	????	
 5fe:	00 71       	subc	r1,	r0	
 600:	0c 98       	cmp	r8,	r12	
 602:	00 9a       	cmp	r10,	r0	
 604:	00 02       	.word	0x0200;	????	
 606:	00 71       	subc	r1,	r0	
 608:	0e 9a       	cmp	r10,	r14	
 60a:	00 32       	jn	$-1022   	;abs 0x20c
 60c:	01 02       	.word	0x0201;	????	
 60e:	00 71       	subc	r1,	r0	
 610:	10 00       	.word	0x0010;	????	
 612:	00 00       	.word	0x0000;	????	
 614:	00 8c       	sub	r12,	r0	
 616:	00 1a       	.word	0x1a00;	????	
 618:	01 01       	.word	0x0101;	????	
 61a:	00 5f       	add	r15,	r0	
 61c:	1c 01       	.word	0x011c;	????	
 61e:	1e 01       	.word	0x011e;	????	
 620:	01 00       	.word	0x0001;	????	
 622:	5f 20       	jnz	$+192    	;abs 0x6e2
 624:	01 22       	jnz	$-1020   	;abs 0x228
 626:	01 01       	.word	0x0101;	????	
 628:	00 5f       	add	r15,	r0	
 62a:	00 00       	.word	0x0000;	????	
 62c:	00 00       	.word	0x0000;	????	
 62e:	9a 00       	.word	0x009a;	????	
 630:	a6 00       	.word	0x00a6;	????	
 632:	02 00       	.word	0x0002;	????	
 634:	30 9f       	cmp	@r15+,	r0	
 636:	a6 00       	.word	0x00a6;	????	
 638:	30 01       	.word	0x0130;	????	
 63a:	01 00       	.word	0x0001;	????	
 63c:	5b 00       	.word	0x005b;	????	
 63e:	00 00       	.word	0x0000;	????	
 640:	00 da       	bis	r10,	r0	
 642:	00 0c       	.word	0x0c00;	????	
 644:	01 01       	.word	0x0101;	????	
 646:	00 59       	add	r9,	r0	
 648:	00 00       	.word	0x0000;	????	
 64a:	00 00       	.word	0x0000;	????	
 64c:	9a 00       	.word	0x009a;	????	
 64e:	a6 00       	.word	0x00a6;	????	
 650:	02 00       	.word	0x0002;	????	
 652:	30 9f       	cmp	@r15+,	r0	
 654:	a6 00       	.word	0x00a6;	????	
 656:	da 00       	.word	0x00da;	????	
 658:	01 00       	.word	0x0001;	????	
 65a:	5c 0e       	.word	0x0e5c;	????	
 65c:	01 32       	jn	$-1020   	;abs 0x260
 65e:	01 01       	.word	0x0101;	????	
 660:	00 5c       	add	r12,	r0	
 662:	00 00       	.word	0x0000;	????	
 664:	00 00       	.word	0x0000;	????	
 666:	9a 00       	.word	0x009a;	????	
 668:	a6 00       	.word	0x00a6;	????	
 66a:	02 00       	.word	0x0002;	????	
 66c:	30 9f       	cmp	@r15+,	r0	
 66e:	a6 00       	.word	0x00a6;	????	
 670:	2e 01       	.word	0x012e;	????	
 672:	01 00       	.word	0x0001;	????	
 674:	5a 00       	.word	0x005a;	????	
 676:	00 00       	.word	0x0000;	????	
 678:	00 32       	jn	$-1022   	;abs 0x27a
 67a:	01 34       	jge	$+4      	;abs 0x67e
 67c:	01 02       	.word	0x0201;	????	
 67e:	00 71       	subc	r1,	r0	
 680:	02 34       	jge	$+6      	;abs 0x686
 682:	01 36       	jge	$-1020   	;abs 0x286
 684:	01 02       	.word	0x0201;	????	
 686:	00 71       	subc	r1,	r0	
 688:	04 36       	jge	$-1014   	;abs 0x292
 68a:	01 38       	jl	$+4      	;abs 0x68e
 68c:	01 02       	.word	0x0201;	????	
 68e:	00 71       	subc	r1,	r0	
 690:	06 38       	jl	$+14     	;abs 0x69e
 692:	01 3a       	jl	$-1020   	;abs 0x296
 694:	01 02       	.word	0x0201;	????	
 696:	00 71       	subc	r1,	r0	
 698:	08 3a       	jl	$-1006   	;abs 0x2aa
 69a:	01 3c       	jmp	$+4      	;abs 0x69e
 69c:	01 02       	.word	0x0201;	????	
 69e:	00 71       	subc	r1,	r0	
 6a0:	0a 3c       	jmp	$+22     	;abs 0x6b6
 6a2:	01 3e       	jmp	$-1020   	;abs 0x2a6
 6a4:	01 02       	.word	0x0201;	????	
 6a6:	00 71       	subc	r1,	r0	
 6a8:	0c 3e       	jmp	$-998    	;abs 0x2c2
 6aa:	01 42       	mov	r2,	r1	
 6ac:	01 02       	.word	0x0201;	????	
 6ae:	00 71       	subc	r1,	r0	
 6b0:	0e 42       	mov	r2,	r14	
 6b2:	01 c2       	bic	r2,	r1	
 6b4:	01 03       	.word	0x0301;	????	
 6b6:	00 71       	subc	r1,	r0	
 6b8:	e0 00       	.word	0x00e0;	????	
 6ba:	00 00       	.word	0x0000;	????	
 6bc:	00 00       	.word	0x0000;	????	
 6be:	32 01       	.word	0x0132;	????	
 6c0:	4c 01       	.word	0x014c;	????	
 6c2:	01 00       	.word	0x0001;	????	
 6c4:	5f 4c 01 c0 	mov.b	-16383(r12),r15	;0xc001(r12)
 6c8:	01 01       	.word	0x0101;	????	
 6ca:	00 5b       	add	r11,	r0	
 6cc:	00 00       	.word	0x0000;	????	
 6ce:	00 00       	.word	0x0000;	????	
 6d0:	32 01       	.word	0x0132;	????	
 6d2:	4c 01       	.word	0x014c;	????	
 6d4:	01 00       	.word	0x0001;	????	
 6d6:	5e 4c 01 ba 	mov.b	-17919(r12),r14	;0xba01(r12)
 6da:	01 01       	.word	0x0101;	????	
 6dc:	00 58       	add	r8,	r0	
 6de:	00 00       	.word	0x0000;	????	
 6e0:	00 00       	.word	0x0000;	????	
 6e2:	46 01       	.word	0x0146;	????	
 6e4:	4c 01       	.word	0x014c;	????	
 6e6:	02 00       	.word	0x0002;	????	
 6e8:	30 9f       	cmp	@r15+,	r0	
 6ea:	4c 01       	.word	0x014c;	????	
 6ec:	be 01       	.word	0x01be;	????	
 6ee:	01 00       	.word	0x0001;	????	
 6f0:	5a 00       	.word	0x005a;	????	
 6f2:	00 00       	.word	0x0000;	????	
 6f4:	00 7c       	subc	r12,	r0	
 6f6:	01 94       	cmp	r4,	r1	
 6f8:	01 01       	.word	0x0101;	????	
 6fa:	00 5f       	add	r15,	r0	
 6fc:	a6 01       	.word	0x01a6;	????	
 6fe:	aa 01       	.word	0x01aa;	????	
 700:	01 00       	.word	0x0001;	????	
 702:	5f ac 01 b0 	dadd.b	-20479(r12),r15	;0xb001(r12)
 706:	01 01       	.word	0x0101;	????	
 708:	00 5f       	add	r15,	r0	
 70a:	00 00       	.word	0x0000;	????	
 70c:	00 00       	.word	0x0000;	????	
 70e:	5e 01       	.word	0x015e;	????	
 710:	66 01       	.word	0x0166;	????	
 712:	01 00       	.word	0x0001;	????	
 714:	5f 66 01 69 	addc.b	26881(r6),r15	;0x6901(r6)
 718:	01 01       	.word	0x0101;	????	
 71a:	00 5d       	add	r13,	r0	
 71c:	00 00       	.word	0x0000;	????	
 71e:	00 00       	.word	0x0000;	????	
 720:	54 01       	.word	0x0154;	????	
 722:	5a 01       	.word	0x015a;	????	
 724:	01 00       	.word	0x0001;	????	
 726:	5f 5a 01 9a 	add.b	-26111(r10),r15	;0x9a01(r10)
 72a:	01 01       	.word	0x0101;	????	
 72c:	00 57       	add	r7,	r0	
 72e:	a6 01       	.word	0x01a6;	????	
 730:	b0 01       	.word	0x01b0;	????	
 732:	01 00       	.word	0x0001;	????	
 734:	57 00       	.word	0x0057;	????	
 736:	00 00       	.word	0x0000;	????	
 738:	00 00       	.word	0x0000;	????	
 73a:	00 02       	.word	0x0200;	????	
 73c:	00 02       	.word	0x0200;	????	
 73e:	00 71       	subc	r1,	r0	
 740:	02 02       	.word	0x0202;	????	
 742:	00 04       	.word	0x0400;	????	
 744:	00 02       	.word	0x0200;	????	
 746:	00 71       	subc	r1,	r0	
 748:	04 04       	.word	0x0404;	????	
 74a:	00 06       	.word	0x0600;	????	
 74c:	00 02       	.word	0x0200;	????	
 74e:	00 71       	subc	r1,	r0	
 750:	06 06       	.word	0x0606;	????	
 752:	00 08       	.word	0x0800;	????	
 754:	00 02       	.word	0x0200;	????	
 756:	00 71       	subc	r1,	r0	
 758:	08 08       	.word	0x0808;	????	
 75a:	00 0a       	.word	0x0a00;	????	
 75c:	00 02       	.word	0x0200;	????	
 75e:	00 71       	subc	r1,	r0	
 760:	0a 0a       	.word	0x0a0a;	????	
 762:	00 6a       	addc	r10,	r0	
 764:	00 02       	.word	0x0200;	????	
 766:	00 71       	subc	r1,	r0	
 768:	0c 00       	.word	0x000c;	????	
 76a:	00 00       	.word	0x0000;	????	
 76c:	00 00       	.word	0x0000;	????	
 76e:	00 14       	.word	0x1400;	????	
 770:	00 06       	.word	0x0600;	????	
 772:	00 5e       	add	r14,	r0	
 774:	93 02       	.word	0x0293;	????	
 776:	5f 93       	cmp.b	#1,	r15	;r3 As==01
 778:	02 14       	.word	0x1402;	????	
 77a:	00 66       	addc	r6,	r0	
 77c:	00 06       	.word	0x0600;	????	
 77e:	00 5a       	add	r10,	r0	
 780:	93 02       	.word	0x0293;	????	
 782:	5b 93       	cmp.b	#1,	r11	;r3 As==01
 784:	02 00       	.word	0x0002;	????	
 786:	00 00       	.word	0x0000;	????	
 788:	00 00       	.word	0x0000;	????	
 78a:	00 14       	.word	0x1400;	????	
 78c:	00 01       	.word	0x0100;	????	
 78e:	00 5d       	add	r13,	r0	
 790:	14 00       	.word	0x0014;	????	
 792:	60 00       	.word	0x0060;	????	
 794:	01 00       	.word	0x0001;	????	
 796:	57 00       	.word	0x0057;	????	
 798:	00 00       	.word	0x0000;	????	
 79a:	00 2c       	jc	$+2      	;abs 0x79c
 79c:	00 32       	jn	$-1022   	;abs 0x39e
 79e:	00 03       	.word	0x0300;	????	
 7a0:	00 08       	.word	0x0800;	????	
 7a2:	30 9f       	cmp	@r15+,	r0	
 7a4:	32 00       	.word	0x0032;	????	
 7a6:	47 00       	.word	0x0047;	????	
 7a8:	01 00       	.word	0x0001;	????	
 7aa:	5f 00       	.word	0x005f;	????	
 7ac:	00 00       	.word	0x0000;	????	
 7ae:	00 2c       	jc	$+2      	;abs 0x7b0
 7b0:	00 47       	br	r7		
 7b2:	00 02       	.word	0x0200;	????	
 7b4:	00 77       	subc	r7,	r0	
 7b6:	7c 47       	mov.b	@r7+,	r12	
 7b8:	00 4c       	br	r12		
 7ba:	00 06       	.word	0x0600;	????	
 7bc:	00 58       	add	r8,	r0	
 7be:	93 02       	.word	0x0293;	????	
 7c0:	59 93       	cmp.b	#1,	r9	;r3 As==01
 7c2:	02 00       	.word	0x0002;	????	
 7c4:	00 00       	.word	0x0000;	????	
 7c6:	00 6a       	addc	r10,	r0	
 7c8:	00 6e       	addc	r14,	r0	
 7ca:	00 01       	.word	0x0100;	????	
 7cc:	00 5f       	add	r15,	r0	
 7ce:	00 00       	.word	0x0000;	????	
 7d0:	00 00       	.word	0x0000;	????	
 7d2:	78 00       	.word	0x0078;	????	
 7d4:	7a 00       	.word	0x007a;	????	
 7d6:	02 00       	.word	0x0002;	????	
 7d8:	71 02       	.word	0x0271;	????	
 7da:	7a 00       	.word	0x007a;	????	
 7dc:	8c 00       	.word	0x008c;	????	
 7de:	02 00       	.word	0x0002;	????	
 7e0:	71 04       	.word	0x0471;	????	
 7e2:	00 00       	.word	0x0000;	????	
 7e4:	00 00       	.word	0x0000;	????	
 7e6:	78 00       	.word	0x0078;	????	
 7e8:	7e 00       	.word	0x007e;	????	
 7ea:	01 00       	.word	0x0001;	????	
 7ec:	5f 00       	.word	0x005f;	????	
 7ee:	00 00       	.word	0x0000;	????	
 7f0:	00 7c       	subc	r12,	r0	
 7f2:	00 7e       	subc	r14,	r0	
 7f4:	00 02       	.word	0x0200;	????	
 7f6:	00 30       	jn	$+2      	;abs 0x7f8
 7f8:	9f 00       	.word	0x009f;	????	
 7fa:	00 00       	.word	0x0000;	????	
 7fc:	00 8c       	sub	r12,	r0	
 7fe:	00 8e       	sub	r14,	r0	
 800:	00 02       	.word	0x0200;	????	
 802:	00 71       	subc	r1,	r0	
 804:	02 8e       	sub	r14,	r2	
 806:	00 90       	cmp	r0,	r0	
 808:	00 02       	.word	0x0200;	????	
 80a:	00 71       	subc	r1,	r0	
 80c:	04 90       	cmp	r0,	r4	
 80e:	00 92       	cmp	r2,	r0	
 810:	00 02       	.word	0x0200;	????	
 812:	00 71       	subc	r1,	r0	
 814:	06 92       	cmp	r2,	r6	
 816:	00 96       	cmp	r6,	r0	
 818:	00 02       	.word	0x0200;	????	
 81a:	00 71       	subc	r1,	r0	
 81c:	08 96       	cmp	r6,	r8	
 81e:	00 06       	.word	0x0600;	????	
 820:	01 02       	.word	0x0201;	????	
 822:	00 71       	subc	r1,	r0	
 824:	28 00       	.word	0x0028;	????	
 826:	00 00       	.word	0x0000;	????	
 828:	00 8c       	sub	r12,	r0	
 82a:	00 9c       	cmp	r12,	r0	
 82c:	00 01       	.word	0x0100;	????	
 82e:	00 5f       	add	r15,	r0	
 830:	9c 00       	.word	0x009c;	????	
 832:	d0 00       	.word	0x00d0;	????	
 834:	01 00       	.word	0x0001;	????	
 836:	5b d0 00 d8 	bis.b	-10240(r0),r11	;PC rel. 0xe038
 83a:	00 01       	.word	0x0100;	????	
 83c:	00 5f       	add	r15,	r0	
 83e:	d8 00       	.word	0x00d8;	????	
 840:	e0 00       	.word	0x00e0;	????	
 842:	01 00       	.word	0x0001;	????	
 844:	5b e0 00 e2 	xor.b	-7680(r0),r11	;PC rel. 0xea46
 848:	00 01       	.word	0x0100;	????	
 84a:	00 5f       	add	r15,	r0	
 84c:	00 00       	.word	0x0000;	????	
 84e:	00 00       	.word	0x0000;	????	
 850:	d2 00       	.word	0x00d2;	????	
 852:	d8 00       	.word	0x00d8;	????	
 854:	01 00       	.word	0x0001;	????	
 856:	5a 00       	.word	0x005a;	????	
 858:	00 00       	.word	0x0000;	????	
 85a:	00 dc       	bis	r12,	r0	
 85c:	00 e2       	xor	r2,	r0	
 85e:	00 03       	.word	0x0300;	????	
 860:	00 7a       	subc	r10,	r0	
 862:	01 9f       	cmp	r15,	r1	
 864:	00 00       	.word	0x0000;	????	
 866:	00 00       	.word	0x0000;	????	
 868:	06 01       	.word	0x0106;	????	
 86a:	08 01       	.word	0x0108;	????	
 86c:	02 00       	.word	0x0002;	????	
 86e:	71 02       	.word	0x0271;	????	
 870:	08 01       	.word	0x0108;	????	
 872:	0a 01       	.word	0x010a;	????	
 874:	02 00       	.word	0x0002;	????	
 876:	71 04       	.word	0x0471;	????	
 878:	0a 01       	.word	0x010a;	????	
 87a:	40 01       	.word	0x0140;	????	
 87c:	02 00       	.word	0x0002;	????	
 87e:	71 06       	.word	0x0671;	????	
 880:	00 00       	.word	0x0000;	????	
 882:	00 00       	.word	0x0000;	????	
 884:	06 01       	.word	0x0106;	????	
 886:	10 01       	.word	0x0110;	????	
 888:	01 00       	.word	0x0001;	????	
 88a:	5f 10 01 3c 	rrc.b	15361(r15)	;0x3c01(r15)
 88e:	01 01       	.word	0x0101;	????	
 890:	00 5a       	add	r10,	r0	
 892:	00 00       	.word	0x0000;	????	
 894:	00 00       	.word	0x0000;	????	
 896:	06 01       	.word	0x0106;	????	
 898:	10 01       	.word	0x0110;	????	
 89a:	01 00       	.word	0x0001;	????	
 89c:	5e 00       	.word	0x005e;	????	
 89e:	00 00       	.word	0x0000;	????	
 8a0:	00 10       	rrc	r0		
 8a2:	01 34       	jge	$+4      	;abs 0x8a6
 8a4:	01 01       	.word	0x0101;	????	
 8a6:	00 5b       	add	r11,	r0	
 8a8:	36 01       	.word	0x0136;	????	
 8aa:	3e 01       	.word	0x013e;	????	
 8ac:	01 00       	.word	0x0001;	????	
 8ae:	5b 00       	.word	0x005b;	????	
 8b0:	00 00       	.word	0x0000;	????	
 8b2:	00 40       	br	r0		
 8b4:	01 42       	mov	r2,	r1	
 8b6:	01 02       	.word	0x0201;	????	
 8b8:	00 71       	subc	r1,	r0	
 8ba:	02 42       	mov	r2,	r2	
 8bc:	01 44       	mov	r4,	r1	
 8be:	01 02       	.word	0x0201;	????	
 8c0:	00 71       	subc	r1,	r0	
 8c2:	04 44       	mov	r4,	r4	
 8c4:	01 46       	mov	r6,	r1	
 8c6:	01 02       	.word	0x0201;	????	
 8c8:	00 71       	subc	r1,	r0	
 8ca:	06 46       	mov	r6,	r6	
 8cc:	01 48       	mov	r8,	r1	
 8ce:	01 02       	.word	0x0201;	????	
 8d0:	00 71       	subc	r1,	r0	
 8d2:	08 48       	mov	r8,	r8	
 8d4:	01 6a       	addc	r10,	r1	
 8d6:	02 02       	.word	0x0202;	????	
 8d8:	00 71       	subc	r1,	r0	
 8da:	0a 00       	.word	0x000a;	????	
 8dc:	00 00       	.word	0x0000;	????	
 8de:	00 40       	br	r0		
 8e0:	01 52       	add	r2,	r1	
 8e2:	01 02       	.word	0x0201;	????	
 8e4:	00 91       	cmp	r1,	r0	
 8e6:	00 52       	add	r2,	r0	
 8e8:	01 5e       	add	r14,	r1	
 8ea:	01 03       	.word	0x0301;	????	
 8ec:	00 7a       	subc	r10,	r0	
 8ee:	01 9f       	cmp	r15,	r1	
 8f0:	5e 01       	.word	0x015e;	????	
 8f2:	54 02       	.word	0x0254;	????	
 8f4:	01 00       	.word	0x0001;	????	
 8f6:	5a 54 02 56 	add.b	22018(r4),r10	;0x5602(r4)
 8fa:	02 03       	.word	0x0302;	????	
 8fc:	00 7a       	subc	r10,	r0	
 8fe:	01 9f       	cmp	r15,	r1	
 900:	56 02       	.word	0x0256;	????	
 902:	5c 02       	.word	0x025c;	????	
 904:	01 00       	.word	0x0001;	????	
 906:	5a 5c 02 60 	add.b	24578(r12),r10	;0x6002(r12)
 90a:	02 03       	.word	0x0302;	????	
 90c:	00 7a       	subc	r10,	r0	
 90e:	01 9f       	cmp	r15,	r1	
 910:	00 00       	.word	0x0000;	????	
 912:	00 00       	.word	0x0000;	????	
 914:	52 01       	.word	0x0152;	????	
 916:	5c 01       	.word	0x015c;	????	
 918:	01 00       	.word	0x0001;	????	
 91a:	5f 5c 01 5e 	add.b	24065(r12),r15	;0x5e01(r12)
 91e:	01 02       	.word	0x0201;	????	
 920:	00 7a       	subc	r10,	r0	
 922:	01 5e       	add	r14,	r1	
 924:	01 a5       	dadd	r5,	r1	
 926:	01 02       	.word	0x0201;	????	
 928:	00 7a       	subc	r10,	r0	
 92a:	7f a8       	dadd.b	@r8+,	r15	
 92c:	01 ae       	dadd	r14,	r1	
 92e:	01 01       	.word	0x0101;	????	
 930:	00 5f       	add	r15,	r0	
 932:	ae 01       	.word	0x01ae;	????	
 934:	b1 01       	.word	0x01b1;	????	
 936:	02 00       	.word	0x0002;	????	
 938:	7a 7f       	subc.b	@r15+,	r10	
 93a:	b6 01       	.word	0x01b6;	????	
 93c:	ce 01       	.word	0x01ce;	????	
 93e:	01 00       	.word	0x0001;	????	
 940:	5f ce 01 d1 	bic.b	-12031(r14),r15	;0xd101(r14)
 944:	01 02       	.word	0x0201;	????	
 946:	00 7a       	subc	r10,	r0	
 948:	7f e0 01 08 	xor.b	#2049,	r15	;#0x0801
 94c:	02 01       	.word	0x0102;	????	
 94e:	00 5f       	add	r15,	r0	
 950:	08 02       	.word	0x0208;	????	
 952:	0b 02       	.word	0x020b;	????	
 954:	02 00       	.word	0x0002;	????	
 956:	7a 7f       	subc.b	@r15+,	r10	
 958:	1c 02       	.word	0x021c;	????	
 95a:	24 02       	.word	0x0224;	????	
 95c:	01 00       	.word	0x0001;	????	
 95e:	5f 24       	jz	$+192    	;abs 0xa1e
 960:	02 33       	jn	$-506    	;abs 0x766
 962:	02 02       	.word	0x0202;	????	
 964:	00 7a       	subc	r10,	r0	
 966:	7f 54       	add.b	@r4+,	r15	
 968:	02 59       	add	r9,	r2	
 96a:	02 01       	.word	0x0102;	????	
 96c:	00 5f       	add	r15,	r0	
 96e:	5c 02       	.word	0x025c;	????	
 970:	60 02       	.word	0x0260;	????	
 972:	02 00       	.word	0x0002;	????	
 974:	7a 00       	.word	0x007a;	????	
 976:	60 02       	.word	0x0260;	????	
 978:	6a 02       	.word	0x026a;	????	
 97a:	01 00       	.word	0x0001;	????	
 97c:	5f 00       	.word	0x005f;	????	
 97e:	00 00       	.word	0x0000;	????	
 980:	00 bc       	bit	r12,	r0	
 982:	01 ca       	bic	r10,	r1	
 984:	01 02       	.word	0x0201;	????	
 986:	00 79       	subc	r9,	r0	
 988:	7e ca       	bic.b	@r10+,	r14	
 98a:	01 e0       	xor	r0,	r1	
 98c:	01 01       	.word	0x0101;	????	
 98e:	00 5b       	add	r11,	r0	
 990:	22 02       	.word	0x0222;	????	
 992:	33 02       	.word	0x0233;	????	
 994:	02 00       	.word	0x0002;	????	
 996:	79 7e       	subc.b	@r14+,	r9	
 998:	33 02       	.word	0x0233;	????	
 99a:	54 02       	.word	0x0254;	????	
 99c:	01 00       	.word	0x0001;	????	
 99e:	5b 00       	.word	0x005b;	????	
 9a0:	00 00       	.word	0x0000;	????	
 9a2:	00 ea       	xor	r10,	r0	
 9a4:	01 04       	.word	0x0401;	????	
 9a6:	02 08       	.word	0x0802;	????	
 9a8:	00 78       	subc	r8,	r0	
 9aa:	7c 93       	cmp.b	#-1,	r12	;r3 As==11
 9ac:	02 78       	subc	r8,	r2	
 9ae:	7e 93       	cmp.b	#-1,	r14	;r3 As==11
 9b0:	02 04       	.word	0x0402;	????	
 9b2:	02 0b       	.word	0x0b02;	????	
 9b4:	02 07       	.word	0x0702;	????	
 9b6:	00 5c       	add	r12,	r0	
 9b8:	93 02       	.word	0x0293;	????	
 9ba:	78 7e       	subc.b	@r14+,	r8	
 9bc:	93 02       	.word	0x0293;	????	
 9be:	0b 02       	.word	0x020b;	????	
 9c0:	1a 02       	.word	0x021a;	????	
 9c2:	06 00       	.word	0x0006;	????	
 9c4:	59 93       	cmp.b	#1,	r9	;r3 As==01
 9c6:	02 5b       	add	r11,	r2	
 9c8:	93 02       	.word	0x0293;	????	
 9ca:	00 00       	.word	0x0000;	????	
 9cc:	00 00       	.word	0x0000;	????	
 9ce:	50 01       	.word	0x0150;	????	
 9d0:	a0 01       	.word	0x01a0;	????	
 9d2:	01 00       	.word	0x0001;	????	
 9d4:	5b a0 01 a8 	dadd.b	-22527(r0),r11	;PC rel. 0xb1d7
 9d8:	01 01       	.word	0x0101;	????	
 9da:	00 59       	add	r9,	r0	
 9dc:	a8 01       	.word	0x01a8;	????	
 9de:	ac 01       	.word	0x01ac;	????	
 9e0:	01 00       	.word	0x0001;	????	
 9e2:	5b ac 01 b6 	dadd.b	-18943(r12),r11	;0xb601(r12)
 9e6:	01 01       	.word	0x0101;	????	
 9e8:	00 59       	add	r9,	r0	
 9ea:	b6 01       	.word	0x01b6;	????	
 9ec:	ba 01       	.word	0x01ba;	????	
 9ee:	01 00       	.word	0x0001;	????	
 9f0:	5b ba 01 e0 	bit.b	-8191(r10),r11	;0xe001(r10)
 9f4:	01 01       	.word	0x0101;	????	
 9f6:	00 59       	add	r9,	r0	
 9f8:	e0 01       	.word	0x01e0;	????	
 9fa:	e4 01       	.word	0x01e4;	????	
 9fc:	01 00       	.word	0x0001;	????	
 9fe:	5b e4 01 1c 	xor.b	7169(r4),r11	;0x1c01(r4)
 a02:	02 01       	.word	0x0102;	????	
 a04:	00 58       	add	r8,	r0	
 a06:	1c 02       	.word	0x021c;	????	
 a08:	20 02       	.word	0x0220;	????	
 a0a:	01 00       	.word	0x0001;	????	
 a0c:	5b 20       	jnz	$+184    	;abs 0xac4
 a0e:	02 54       	add	r4,	r2	
 a10:	02 01       	.word	0x0102;	????	
 a12:	00 59       	add	r9,	r0	
 a14:	54 02       	.word	0x0254;	????	
 a16:	68 02       	.word	0x0268;	????	
 a18:	01 00       	.word	0x0001;	????	
 a1a:	5b 00       	.word	0x005b;	????	
 a1c:	00 00       	.word	0x0000;	????	
 a1e:	00 00       	.word	0x0000;	????	
 a20:	00 03       	.word	0x0300;	????	
 a22:	00 01       	.word	0x0100;	????	
 a24:	00 5f       	add	r15,	r0	
 a26:	00 00       	.word	0x0000;	????	
 a28:	00 00       	.word	0x0000;	????	
 a2a:	2a 01       	.word	0x012a;	????	
 a2c:	37 01       	.word	0x0137;	????	
 a2e:	01 00       	.word	0x0001;	????	
 a30:	5f 00       	.word	0x005f;	????	
 a32:	00 00       	.word	0x0000;	????	
 a34:	00 00       	.word	0x0000;	????	
 a36:	00 02       	.word	0x0200;	????	
 a38:	00 02       	.word	0x0200;	????	
 a3a:	00 71       	subc	r1,	r0	
 a3c:	02 02       	.word	0x0202;	????	
 a3e:	00 04       	.word	0x0400;	????	
 a40:	00 02       	.word	0x0200;	????	
 a42:	00 71       	subc	r1,	r0	
 a44:	04 04       	.word	0x0404;	????	
 a46:	00 06       	.word	0x0600;	????	
 a48:	00 02       	.word	0x0200;	????	
 a4a:	00 71       	subc	r1,	r0	
 a4c:	06 06       	.word	0x0606;	????	
 a4e:	00 08       	.word	0x0800;	????	
 a50:	00 02       	.word	0x0200;	????	
 a52:	00 71       	subc	r1,	r0	
 a54:	08 08       	.word	0x0808;	????	
 a56:	00 6a       	addc	r10,	r0	
 a58:	00 02       	.word	0x0200;	????	
 a5a:	00 71       	subc	r1,	r0	
 a5c:	0a 00       	.word	0x000a;	????	
 a5e:	00 00       	.word	0x0000;	????	
 a60:	00 00       	.word	0x0000;	????	
 a62:	00 22       	jnz	$-1022   	;abs 0x664
 a64:	00 01       	.word	0x0100;	????	
 a66:	00 5e       	add	r14,	r0	
 a68:	00 00       	.word	0x0000;	????	
 a6a:	00 00       	.word	0x0000;	????	
 a6c:	00 00       	.word	0x0000;	????	
 a6e:	5a 00       	.word	0x005a;	????	
 a70:	01 00       	.word	0x0001;	????	
 a72:	5d 00       	.word	0x005d;	????	
 a74:	00 00       	.word	0x0000;	????	
 a76:	00 2e       	jc	$-1022   	;abs 0x678
 a78:	00 32       	jn	$-1022   	;abs 0x67a
 a7a:	00 05       	.word	0x0500;	????	
 a7c:	00 7f       	subc	r15,	r0	
 a7e:	00 31       	jn	$+514    	;abs 0xc80
 a80:	1a 9f 32 00 	cmp	50(r15),r10	;0x0032(r15)
 a84:	3c 00       	.word	0x003c;	????	
 a86:	02 00       	.word	0x0002;	????	
 a88:	31 9f       	cmp	@r15+,	r1	
 a8a:	3c 00       	.word	0x003c;	????	
 a8c:	3e 00       	.word	0x003e;	????	
 a8e:	02 00       	.word	0x0002;	????	
 a90:	30 9f       	cmp	@r15+,	r0	
 a92:	3e 00       	.word	0x003e;	????	
 a94:	40 00       	.word	0x0040;	????	
 a96:	05 00       	.word	0x0005;	????	
 a98:	7f 00       	.word	0x007f;	????	
 a9a:	31 1a       	.word	0x1a31;	????	
 a9c:	9f 46 00 4a 	mov	18944(r6),256(r15);0x4a00(r6), 0x0100(r15)
 aa0:	00 01 
 aa2:	00 5c       	add	r12,	r0	
 aa4:	4a 00       	.word	0x004a;	????	
 aa6:	58 00       	.word	0x0058;	????	
 aa8:	01 00       	.word	0x0001;	????	
 aaa:	58 58 00 5a 	add.b	23040(r8),r8	;0x5a00(r8)
 aae:	00 05       	.word	0x0500;	????	
 ab0:	00 7d       	subc	r13,	r0	
 ab2:	00 31       	jn	$+514    	;abs 0xcb4
 ab4:	1a 9f 5a 00 	cmp	90(r15),r10	;0x005a(r15)
 ab8:	5c 00       	.word	0x005c;	????	
 aba:	01 00       	.word	0x0001;	????	
 abc:	5d 5c 00 60 	add.b	24576(r12),r13	;0x6000(r12)
 ac0:	00 02       	.word	0x0200;	????	
 ac2:	00 31       	jn	$+514    	;abs 0xcc4
 ac4:	9f 00       	.word	0x009f;	????	
 ac6:	00 00       	.word	0x0000;	????	
 ac8:	00 24       	jz	$+2      	;abs 0xaca
 aca:	00 60       	rlc	r0		
 acc:	00 01       	.word	0x0100;	????	
 ace:	00 5b       	add	r11,	r0	
 ad0:	00 00       	.word	0x0000;	????	
 ad2:	00 00       	.word	0x0000;	????	
 ad4:	08 00       	.word	0x0008;	????	
 ad6:	12 00       	.word	0x0012;	????	
 ad8:	01 00       	.word	0x0001;	????	
 ada:	5f 12 00 20 	push.b	8192(r15)	;0x2000(r15)
 ade:	00 01       	.word	0x0100;	????	
 ae0:	00 5c       	add	r12,	r0	
 ae2:	20 00       	.word	0x0020;	????	
 ae4:	3c 00       	.word	0x003c;	????	
 ae6:	01 00       	.word	0x0001;	????	
 ae8:	5f 3c       	jmp	$+192    	;abs 0xba8
 aea:	00 3e       	jmp	$-1022   	;abs 0x6ec
 aec:	00 01       	.word	0x0100;	????	
 aee:	00 59       	add	r9,	r0	
 af0:	3e 00       	.word	0x003e;	????	
 af2:	40 00       	.word	0x0040;	????	
 af4:	01 00       	.word	0x0001;	????	
 af6:	5f 40 00 4a 	mov.b	18944(r0),r15	;PC rel. 0x54f8
 afa:	00 01       	.word	0x0100;	????	
 afc:	00 59       	add	r9,	r0	
 afe:	4a 00       	.word	0x004a;	????	
 b00:	5c 00       	.word	0x005c;	????	
 b02:	01 00       	.word	0x0001;	????	
 b04:	5a 5c 00 60 	add.b	24576(r12),r10	;0x6000(r12)
 b08:	00 01       	.word	0x0100;	????	
 b0a:	00 5c       	add	r12,	r0	
 b0c:	00 00       	.word	0x0000;	????	
 b0e:	00 00       	.word	0x0000;	????	
 b10:	00 00       	.word	0x0000;	????	
 b12:	02 00       	.word	0x0002;	????	
 b14:	02 00       	.word	0x0002;	????	
 b16:	71 02       	.word	0x0271;	????	
 b18:	02 00       	.word	0x0002;	????	
 b1a:	8a 00       	.word	0x008a;	????	
 b1c:	02 00       	.word	0x0002;	????	
 b1e:	71 04       	.word	0x0471;	????	
 b20:	00 00       	.word	0x0000;	????	
 b22:	00 00       	.word	0x0000;	????	
 b24:	00 00       	.word	0x0000;	????	
 b26:	06 00       	.word	0x0006;	????	
 b28:	01 00       	.word	0x0001;	????	
 b2a:	5f 06       	.word	0x065f;	????	
 b2c:	00 56       	add	r6,	r0	
 b2e:	00 01       	.word	0x0100;	????	
 b30:	00 5e       	add	r14,	r0	
 b32:	56 00       	.word	0x0056;	????	
 b34:	60 00       	.word	0x0060;	????	
 b36:	03 00       	.word	0x0003;	????	
 b38:	7e 7f       	subc.b	@r15+,	r14	
 b3a:	9f 60 00 8a 	addc	-30208(r0),256(r15);PC rel. 0x953c, 0x0100(r15)
 b3e:	00 01 
 b40:	00 5e       	add	r14,	r0	
 b42:	00 00       	.word	0x0000;	????	
 b44:	00 00       	.word	0x0000;	????	
 b46:	04 00       	.word	0x0004;	????	
 b48:	34 00       	.word	0x0034;	????	
 b4a:	02 00       	.word	0x0002;	????	
 b4c:	30 9f       	cmp	@r15+,	r0	
 b4e:	34 00       	.word	0x0034;	????	
 b50:	3a 00       	.word	0x003a;	????	
 b52:	02 00       	.word	0x0002;	????	
 b54:	31 9f       	cmp	@r15+,	r1	
 b56:	3a 00       	.word	0x003a;	????	
 b58:	44 00       	.word	0x0044;	????	
 b5a:	02 00       	.word	0x0002;	????	
 b5c:	30 9f       	cmp	@r15+,	r0	
 b5e:	44 00       	.word	0x0044;	????	
 b60:	88 00       	.word	0x0088;	????	
 b62:	01 00       	.word	0x0001;	????	
 b64:	5b 00       	.word	0x005b;	????	
 b66:	00 00       	.word	0x0000;	????	
 b68:	00 04       	.word	0x0400;	????	
 b6a:	00 54       	add	r4,	r0	
 b6c:	00 02       	.word	0x0200;	????	
 b6e:	00 30       	jn	$+2      	;abs 0xb70
 b70:	9f 54 00 60 	add	24576(r4),256(r15);0x6000(r4), 0x0100(r15)
 b74:	00 01 
 b76:	00 5d       	add	r13,	r0	
 b78:	60 00       	.word	0x0060;	????	
 b7a:	70 00       	.word	0x0070;	????	
 b7c:	01 00       	.word	0x0001;	????	
 b7e:	5f 78 00 7a 	subc.b	31232(r8),r15	;0x7a00(r8)
 b82:	00 01       	.word	0x0100;	????	
 b84:	00 5d       	add	r13,	r0	
 b86:	7a 00       	.word	0x007a;	????	
 b88:	80 00       	.word	0x0080;	????	
 b8a:	01 00       	.word	0x0001;	????	
 b8c:	5f 80 00 82 	sub.b	-32256(r0),r15	;PC rel. 0x8d8e
 b90:	00 04       	.word	0x0400;	????	
 b92:	00 7f       	subc	r15,	r0	
 b94:	00 20       	jnz	$+2      	;abs 0xb96
 b96:	9f 82 00 84 	sub	&0x8400,256(r15);0x0100(r15)
 b9a:	00 01 
 b9c:	00 5f       	add	r15,	r0	
 b9e:	84 00       	.word	0x0084;	????	
 ba0:	86 00       	.word	0x0086;	????	
 ba2:	02 00       	.word	0x0002;	????	
 ba4:	30 9f       	cmp	@r15+,	r0	
 ba6:	00 00       	.word	0x0000;	????	
	...

Disassembly of section .debug_ranges:

00000000 <.debug_ranges>:
   0:	52 c1 58 c4 	bic.b	-15272(r1),r2	;0xc458(r1)
   4:	3e c0 48 c1 	bic	#-16056,r14	;#0xc148
   8:	00 00       	.word	0x0000;	????	
	...
