
a5.elf:     file format elf32-msp430


Disassembly of section .text:

0000c000 <__watchdog_support>:
    c000:	55 42 20 01 	mov.b	&0x0120,r5	
    c004:	35 d0 08 5a 	bis	#23048,	r5	;#0x5a08
    c008:	82 45 04 02 	mov	r5,	&0x0204	

0000c00c <__init_stack>:
    c00c:	31 40 00 04 	mov	#1024,	r1	;#0x0400

0000c010 <__do_copy_data>:
    c010:	3f 40 00 00 	mov	#0,	r15	;#0x0000
    c014:	0f 93       	tst	r15		
    c016:	08 24       	jz	$+18     	;abs 0xc028
    c018:	92 42 04 02 	mov	&0x0204,&0x0120	
    c01c:	20 01 
    c01e:	2f 83       	decd	r15		
    c020:	9f 4f 70 c1 	mov	-16016(r15),512(r15);0xc170(r15), 0x0200(r15)
    c024:	00 02 
    c026:	f8 23       	jnz	$-14     	;abs 0xc018

0000c028 <__do_clear_bss>:
    c028:	3f 40 04 00 	mov	#4,	r15	;#0x0004
    c02c:	0f 93       	tst	r15		
    c02e:	07 24       	jz	$+16     	;abs 0xc03e
    c030:	92 42 04 02 	mov	&0x0204,&0x0120	
    c034:	20 01 
    c036:	1f 83       	dec	r15		
    c038:	cf 43 00 02 	mov.b	#0,	512(r15);r3 As==00, 0x0200(r15)
    c03c:	f9 23       	jnz	$-12     	;abs 0xc030

0000c03e <main>:
    c03e:	3e 40 02 02 	mov	#514,	r14	;#0x0202
    c042:	3f 40 00 40 	mov	#16384,	r15	;#0x4000
    c046:	b0 12 d4 c0 	call	#0xc0d4	
    c04a:	b2 40 80 5a 	mov	#23168,	&0x0120	;#0x5a80
    c04e:	20 01 
    c050:	5f 42 ff 10 	mov.b	&0x10ff,r15	
    c054:	c2 4f 57 00 	mov.b	r15,	&0x0057	
    c058:	5f 42 fe 10 	mov.b	&0x10fe,r15	
    c05c:	c2 4f 56 00 	mov.b	r15,	&0x0056	
    c060:	e2 42 22 00 	mov.b	#4,	&0x0022	;r2 As==10
    c064:	5f 42 26 00 	mov.b	&0x0026,r15	
    c068:	6f d2       	bis.b	#4,	r15	;r2 As==10
    c06a:	c2 4f 26 00 	mov.b	r15,	&0x0026	
    c06e:	e2 42 21 00 	mov.b	#4,	&0x0021	;r2 As==10
    c072:	5f 42 21 00 	mov.b	&0x0021,r15	
    c076:	7f d2       	bis.b	#8,	r15	;r2 As==11
    c078:	c2 4f 21 00 	mov.b	r15,	&0x0021	
    c07c:	5f 42 25 00 	mov.b	&0x0025,r15	
    c080:	7f d2       	bis.b	#8,	r15	;r2 As==11
    c082:	c2 4f 25 00 	mov.b	r15,	&0x0025	
    c086:	5f 42 24 00 	mov.b	&0x0024,r15	
    c08a:	7f d2       	bis.b	#8,	r15	;r2 As==11
    c08c:	c2 4f 24 00 	mov.b	r15,	&0x0024	
    c090:	5f 42 23 00 	mov.b	&0x0023,r15	
    c094:	7f f0 f7 ff 	and.b	#-9,	r15	;#0xfff7
    c098:	c2 4f 23 00 	mov.b	r15,	&0x0023	
    c09c:	b2 40 10 00 	mov	#16,	&0x0162	;#0x0010
    c0a0:	62 01 
    c0a2:	b2 40 10 02 	mov	#528,	&0x0160	;#0x0210
    c0a6:	60 01 
    c0a8:	b2 40 ff 03 	mov	#1023,	&0x0172	;#0x03ff
    c0ac:	72 01 
    c0ae:	b2 40 e0 00 	mov	#224,	&0x0164	;#0x00e0
    c0b2:	64 01 
    c0b4:	82 43 74 01 	mov	#0,	&0x0174	;r3 As==00
    c0b8:	32 d2       	eint			
    c0ba:	ff 3f       	jmp	$+0      	;abs 0xc0ba

0000c0bc <__stop_progExec__>:
    c0bc:	32 d0 f0 00 	bis	#240,	r2	;#0x00f0
    c0c0:	fd 3f       	jmp	$-4      	;abs 0xc0bc

0000c0c2 <__ctors_end>:
    c0c2:	30 40 6e c1 	br	#0xc16e	

0000c0c6 <Timer0_A0_ISR>:
    c0c6:	0f 12       	push	r15		
    c0c8:	1f 42 02 02 	mov	&0x0202,r15	
    c0cc:	82 4f 74 01 	mov	r15,	&0x0174	
    c0d0:	3f 41       	pop	r15		
    c0d2:	00 13       	reti			

0000c0d4 <initialize_dtc>:
    c0d4:	21 82       	sub	#4,	r1	;r2 As==10
    c0d6:	81 4f 00 00 	mov	r15,	0(r1)	;0x0000(r1)
    c0da:	81 4e 02 00 	mov	r14,	2(r1)	;0x0002(r1)
    c0de:	1f 42 b0 01 	mov	&0x01b0,r15	
    c0e2:	3f f0 fd ff 	and	#-3,	r15	;#0xfffd
    c0e6:	82 4f b0 01 	mov	r15,	&0x01b0	
    c0ea:	b2 40 10 00 	mov	#16,	&0x01b0	;#0x0010
    c0ee:	b0 01 
    c0f0:	03 43       	nop			
    c0f2:	1f 42 b2 01 	mov	&0x01b2,r15	
    c0f6:	1f f3       	and	#1,	r15	;r3 As==01
    c0f8:	4f 4f       	mov.b	r15,	r15	
    c0fa:	4f 93       	tst.b	r15		
    c0fc:	fa 23       	jnz	$-10     	;abs 0xc0f2
    c0fe:	e2 42 48 00 	mov.b	#4,	&0x0048	;r2 As==10
    c102:	d2 43 49 00 	mov.b	#1,	&0x0049	;r3 As==01
    c106:	1f 41 02 00 	mov	2(r1),	r15	;0x0002(r1)
    c10a:	82 4f bc 01 	mov	r15,	&0x01bc	
    c10e:	1f 42 b0 01 	mov	&0x01b0,r15	
    c112:	3f d0 a0 18 	bis	#6304,	r15	;#0x18a0
    c116:	82 4f b0 01 	mov	r15,	&0x01b0	
    c11a:	2f 41       	mov	@r1,	r15	
    c11c:	3f d0 fc 00 	bis	#252,	r15	;#0x00fc
    c120:	82 4f b2 01 	mov	r15,	&0x01b2	
    c124:	2f 41       	mov	@r1,	r15	
    c126:	8f 10       	swpb	r15		
    c128:	4f 4f       	mov.b	r15,	r15	
    c12a:	12 c3       	clrc			
    c12c:	0f 10       	rrc	r15		
    c12e:	12 c3       	clrc			
    c130:	0f 10       	rrc	r15		
    c132:	12 c3       	clrc			
    c134:	0f 10       	rrc	r15		
    c136:	12 c3       	clrc			
    c138:	0f 10       	rrc	r15		
    c13a:	0e 4f       	mov	r15,	r14	
    c13c:	1f 43       	mov	#1,	r15	;r3 As==01
    c13e:	4e 4e       	mov.b	r14,	r14	
    c140:	7e f0 0f 00 	and.b	#15,	r14	;#0x000f
    c144:	4e 93       	tst.b	r14		
    c146:	04 24       	jz	$+10     	;abs 0xc150
    c148:	0f 5f       	rla	r15		
    c14a:	7e 53       	add.b	#-1,	r14	;r3 As==11
    c14c:	4e 93       	tst.b	r14		
    c14e:	fc 23       	jnz	$-6      	;abs 0xc148
    c150:	4f 4f       	mov.b	r15,	r15	
    c152:	c2 4f 4a 00 	mov.b	r15,	&0x004a	
    c156:	1f 42 b0 01 	mov	&0x01b0,r15	
    c15a:	2f d3       	bis	#2,	r15	;r3 As==10
    c15c:	82 4f b0 01 	mov	r15,	&0x01b0	
    c160:	1f 42 b0 01 	mov	&0x01b0,r15	
    c164:	1f d3       	bis	#1,	r15	;r3 As==01
    c166:	82 4f b0 01 	mov	r15,	&0x01b0	
    c16a:	21 52       	add	#4,	r1	;r2 As==10
    c16c:	30 41       	ret			

0000c16e <_unexpected_>:
    c16e:	00 13       	reti			

Disassembly of section .bss:

00000200 <__bss_start>:
	...

00000202 <number>:
	...

Disassembly of section .noinit:

00000204 <__wdt_clear_value>:
	...

Disassembly of section .vectors:

0000ffe0 <__ivtbl_16>:
    ffe0:	c2 c0 c2 c0 	bic.b	r0,	&0xc0c2	
    ffe4:	c2 c0 c2 c0 	bic.b	r0,	&0xc0c2	
    ffe8:	c2 c0 c2 c0 	bic.b	r0,	&0xc0c2	
    ffec:	c2 c0 c2 c0 	bic.b	r0,	&0xc0c2	
    fff0:	c2 c0 c6 c0 	bic.b	r0,	&0xc0c6	
    fff4:	c2 c0 c2 c0 	bic.b	r0,	&0xc0c2	
    fff8:	c2 c0 c2 c0 	bic.b	r0,	&0xc0c2	
    fffc:	c2 c0 00 c0 	bic.b	r0,	&0xc000	

Disassembly of section .debug_aranges:

00000000 <.debug_aranges>:
   0:	14 00       	.word	0x0014;	????	
   2:	00 00       	.word	0x0000;	????	
   4:	02 00       	.word	0x0002;	????	
   6:	00 00       	.word	0x0000;	????	
   8:	00 00       	.word	0x0000;	????	
   a:	02 00       	.word	0x0002;	????	
   c:	c6 c0 0e 00 	bic.b	r0,	14(r6)	;0x000e(r6)
  10:	3e c0 7e 00 	bic	#126,	r14	;#0x007e
  14:	00 00       	.word	0x0000;	????	
  16:	00 00       	.word	0x0000;	????	
  18:	10 00       	.word	0x0010;	????	
  1a:	00 00       	.word	0x0000;	????	
  1c:	02 00       	.word	0x0002;	????	
  1e:	af 01       	.word	0x01af;	????	
  20:	00 00       	.word	0x0000;	????	
  22:	02 00       	.word	0x0002;	????	
  24:	d4 c0 9a 00 	bic.b	154(r0),0(r4)	;PC rel. 0x00c0, 0x0000(r4)
  28:	00 00 
  2a:	00 00       	.word	0x0000;	????	
  2c:	10 00       	.word	0x0010;	????	
  2e:	00 00       	.word	0x0000;	????	
  30:	02 00       	.word	0x0002;	????	
  32:	87 02       	.word	0x0287;	????	
  34:	00 00       	.word	0x0000;	????	
  36:	02 00       	.word	0x0002;	????	
  38:	00 c0       	bic	r0,	r0	
  3a:	0c 00       	.word	0x000c;	????	
  3c:	00 00       	.word	0x0000;	????	
  3e:	00 00       	.word	0x0000;	????	
  40:	10 00       	.word	0x0010;	????	
  42:	00 00       	.word	0x0000;	????	
  44:	02 00       	.word	0x0002;	????	
  46:	55 03       	.word	0x0355;	????	
  48:	00 00       	.word	0x0000;	????	
  4a:	02 00       	.word	0x0002;	????	
  4c:	0c c0       	bic	r0,	r12	
  4e:	04 00       	.word	0x0004;	????	
  50:	00 00       	.word	0x0000;	????	
  52:	00 00       	.word	0x0000;	????	
  54:	10 00       	.word	0x0010;	????	
  56:	00 00       	.word	0x0000;	????	
  58:	02 00       	.word	0x0002;	????	
  5a:	23 04       	.word	0x0423;	????	
  5c:	00 00       	.word	0x0000;	????	
  5e:	02 00       	.word	0x0002;	????	
  60:	10 c0 18 00 	bic	24(r0),	r0	;PC rel. 0x007a
  64:	00 00       	.word	0x0000;	????	
  66:	00 00       	.word	0x0000;	????	
  68:	10 00       	.word	0x0010;	????	
  6a:	00 00       	.word	0x0000;	????	
  6c:	02 00       	.word	0x0002;	????	
  6e:	f1 04       	.word	0x04f1;	????	
  70:	00 00       	.word	0x0000;	????	
  72:	02 00       	.word	0x0002;	????	
  74:	28 c0       	bic	@r0,	r8	
  76:	16 00       	.word	0x0016;	????	
  78:	00 00       	.word	0x0000;	????	
  7a:	00 00       	.word	0x0000;	????	
  7c:	10 00       	.word	0x0010;	????	
  7e:	00 00       	.word	0x0000;	????	
  80:	02 00       	.word	0x0002;	????	
  82:	bf 05       	.word	0x05bf;	????	
  84:	00 00       	.word	0x0000;	????	
  86:	02 00       	.word	0x0002;	????	
  88:	bc c0 06 00 	bic	#6,	0(r12)	;#0x0006, 0x0000(r12)
  8c:	00 00 
  8e:	00 00       	.word	0x0000;	????	
  90:	10 00       	.word	0x0010;	????	
  92:	00 00       	.word	0x0000;	????	
  94:	02 00       	.word	0x0002;	????	
  96:	8d 06       	.word	0x068d;	????	
  98:	00 00       	.word	0x0000;	????	
  9a:	02 00       	.word	0x0002;	????	
  9c:	6e c1       	bic.b	@r1,	r14	
  9e:	02 00       	.word	0x0002;	????	
  a0:	00 00       	.word	0x0000;	????	
	...

Disassembly of section .debug_info:

00000000 <.debug_info>:
   0:	ab 01       	.word	0x01ab;	????	
   2:	00 00       	.word	0x0000;	????	
   4:	02 00       	.word	0x0002;	????	
   6:	00 00       	.word	0x0000;	????	
   8:	00 00       	.word	0x0000;	????	
   a:	02 01       	.word	0x0102;	????	
   c:	3d 00       	.word	0x003d;	????	
   e:	00 00       	.word	0x0000;	????	
  10:	01 18       	.word	0x1801;	????	
  12:	00 00       	.word	0x0000;	????	
  14:	00 d9       	bis	r9,	r0	
	...
  22:	00 00       	.word	0x0000;	????	
  24:	00 02       	.word	0x0200;	????	
  26:	02 07       	.word	0x0702;	????	
  28:	51 01       	.word	0x0151;	????	
  2a:	00 00       	.word	0x0000;	????	
  2c:	03 01       	.word	0x0103;	????	
  2e:	be 00       	.word	0x00be;	????	
  30:	00 00       	.word	0x0000;	????	
  32:	01 0c       	.word	0x0c01;	????	
  34:	01 40       	mov	r0,	r1	
  36:	00 00       	.word	0x0000;	????	
  38:	00 3e       	jmp	$-1022   	;abs 0xfc3a
  3a:	c0 bc c0 02 	bit.b	r12,	704(r0)	;PC rel. 0x02fc
  3e:	71 00       	.word	0x0071;	????	
  40:	04 02       	.word	0x0204;	????	
  42:	05 69       	addc	r9,	r5	
  44:	6e 74       	subc.b	@r4,	r14	
  46:	00 05       	.word	0x0500;	????	
  48:	01 00       	.word	0x0001;	????	
  4a:	00 00       	.word	0x0000;	????	
  4c:	00 01       	.word	0x0100;	????	
  4e:	2f 01       	.word	0x012f;	????	
  50:	c6 c0 d4 c0 	bic.b	r0,	-16172(r6);0xc0d4(r6)
  54:	00 00       	.word	0x0000;	????	
  56:	00 00       	.word	0x0000;	????	
  58:	06 b7       	bit	r7,	r6	
  5a:	00 00       	.word	0x0000;	????	
  5c:	00 02       	.word	0x0200;	????	
  5e:	22 01       	.word	0x0122;	????	
  60:	b5 00       	.word	0x00b5;	????	
  62:	00 00       	.word	0x0000;	????	
  64:	6a 00       	.word	0x006a;	????	
  66:	00 00       	.word	0x0000;	????	
  68:	01 01       	.word	0x0101;	????	
  6a:	07 6f       	addc	r15,	r7	
  6c:	00 00       	.word	0x0000;	????	
  6e:	00 02       	.word	0x0200;	????	
  70:	01 08       	.word	0x0801;	????	
  72:	a7 00       	.word	0x00a7;	????	
  74:	00 00       	.word	0x0000;	????	
  76:	06 10       	rrc	r6		
  78:	00 00       	.word	0x0000;	????	
  7a:	00 02       	.word	0x0200;	????	
  7c:	24 01       	.word	0x0124;	????	
  7e:	0e 00       	.word	0x000e;	????	
  80:	00 00       	.word	0x0000;	????	
  82:	6a 00       	.word	0x006a;	????	
  84:	00 00       	.word	0x0000;	????	
  86:	01 01       	.word	0x0101;	????	
  88:	06 3b       	jl	$-498    	;abs 0xfe96
  8a:	01 00       	.word	0x0001;	????	
  8c:	00 02       	.word	0x0200;	????	
  8e:	d8 01       	.word	0x01d8;	????	
  90:	39 01       	.word	0x0139;	????	
  92:	00 00       	.word	0x0000;	????	
  94:	6a 00       	.word	0x006a;	????	
  96:	00 00       	.word	0x0000;	????	
  98:	01 01       	.word	0x0101;	????	
  9a:	06 29       	jnc	$+526    	;abs 0x2a8
  9c:	00 00       	.word	0x0000;	????	
  9e:	00 02       	.word	0x0200;	????	
  a0:	da 01       	.word	0x01da;	????	
  a2:	27 00       	.word	0x0027;	????	
  a4:	00 00       	.word	0x0000;	????	
  a6:	6a 00       	.word	0x006a;	????	
  a8:	00 00       	.word	0x0000;	????	
  aa:	01 01       	.word	0x0101;	????	
  ac:	06 d3       	bis	#0,	r6	;r3 As==00
  ae:	00 00       	.word	0x0000;	????	
  b0:	00 02       	.word	0x0200;	????	
  b2:	dc 01       	.word	0x01dc;	????	
  b4:	d1 00       	.word	0x00d1;	????	
  b6:	00 00       	.word	0x0000;	????	
  b8:	6a 00       	.word	0x006a;	????	
  ba:	00 00       	.word	0x0000;	????	
  bc:	01 01       	.word	0x0101;	????	
  be:	06 33       	jn	$-498    	;abs 0xfecc
  c0:	01 00       	.word	0x0001;	????	
  c2:	00 02       	.word	0x0200;	????	
  c4:	de 01       	.word	0x01de;	????	
  c6:	31 01       	.word	0x0131;	????	
  c8:	00 00       	.word	0x0000;	????	
  ca:	6a 00       	.word	0x006a;	????	
  cc:	00 00       	.word	0x0000;	????	
  ce:	01 01       	.word	0x0101;	????	
  d0:	06 7e       	subc	r14,	r6	
  d2:	00 00       	.word	0x0000;	????	
  d4:	00 02       	.word	0x0200;	????	
  d6:	e0 01       	.word	0x01e0;	????	
  d8:	7c 00       	.word	0x007c;	????	
  da:	00 00       	.word	0x0000;	????	
  dc:	6a 00       	.word	0x006a;	????	
  de:	00 00       	.word	0x0000;	????	
  e0:	01 01       	.word	0x0101;	????	
  e2:	06 60       	addc	r0,	r6	
  e4:	01 00       	.word	0x0001;	????	
  e6:	00 02       	.word	0x0200;	????	
  e8:	e2 01       	.word	0x01e2;	????	
  ea:	5e 01       	.word	0x015e;	????	
  ec:	00 00       	.word	0x0000;	????	
  ee:	6a 00       	.word	0x006a;	????	
  f0:	00 00       	.word	0x0000;	????	
  f2:	01 01       	.word	0x0101;	????	
  f4:	06 31       	jn	$+526    	;abs 0x302
  f6:	00 00       	.word	0x0000;	????	
  f8:	00 02       	.word	0x0200;	????	
  fa:	15 02       	.word	0x0215;	????	
  fc:	2f 00       	.word	0x002f;	????	
  fe:	00 00       	.word	0x0000;	????	
 100:	06 01       	.word	0x0106;	????	
 102:	00 00       	.word	0x0000;	????	
 104:	01 01       	.word	0x0101;	????	
 106:	07 25       	jz	$+528    	;abs 0x316
 108:	00 00       	.word	0x0000;	????	
 10a:	00 06       	.word	0x0600;	????	
 10c:	85 00       	.word	0x0085;	????	
 10e:	00 00       	.word	0x0000;	????	
 110:	02 17       	.word	0x1702;	????	
 112:	02 83       	sub	#0,	r2	;r3 As==00
 114:	00 00       	.word	0x0000;	????	
 116:	00 06       	.word	0x0600;	????	
 118:	01 00       	.word	0x0001;	????	
 11a:	00 01       	.word	0x0100;	????	
 11c:	01 06       	.word	0x0601;	????	
 11e:	90 00       	.word	0x0090;	????	
 120:	00 00       	.word	0x0000;	????	
 122:	02 19       	.word	0x1902;	????	
 124:	02 8e       	sub	r14,	r2	
 126:	00 00       	.word	0x0000;	????	
 128:	00 06       	.word	0x0600;	????	
 12a:	01 00       	.word	0x0001;	????	
 12c:	00 01       	.word	0x0100;	????	
 12e:	01 06       	.word	0x0601;	????	
 130:	1f 00       	.word	0x001f;	????	
 132:	00 00       	.word	0x0000;	????	
 134:	02 1f       	.word	0x1f02;	????	
 136:	02 1d       	.word	0x1d02;	????	
 138:	00 00       	.word	0x0000;	????	
 13a:	00 06       	.word	0x0600;	????	
 13c:	01 00       	.word	0x0001;	????	
 13e:	00 01       	.word	0x0100;	????	
 140:	01 06       	.word	0x0601;	????	
 142:	74 00       	.word	0x0074;	????	
 144:	00 00       	.word	0x0000;	????	
 146:	02 21       	jnz	$+518    	;abs 0x34c
 148:	02 72       	subc	r2,	r2	
 14a:	00 00       	.word	0x0000;	????	
 14c:	00 06       	.word	0x0600;	????	
 14e:	01 00       	.word	0x0001;	????	
 150:	00 01       	.word	0x0100;	????	
 152:	01 06       	.word	0x0601;	????	
 154:	43 01       	.word	0x0143;	????	
 156:	00 00       	.word	0x0000;	????	
 158:	02 86       	sub	r6,	r2	
 15a:	03 41       	.word	0x4103;	????	Illegal as 2-op instr
 15c:	01 00       	.word	0x0001;	????	
 15e:	00 06       	.word	0x0600;	????	
 160:	01 00       	.word	0x0001;	????	
 162:	00 01       	.word	0x0100;	????	
 164:	01 06       	.word	0x0601;	????	
 166:	c5 00       	.word	0x00c5;	????	
 168:	00 00       	.word	0x0000;	????	
 16a:	02 c2       	bic	r2,	r2	
 16c:	03 c3       	.word	0xc303;	????	Illegal as 2-op instr
 16e:	00 00       	.word	0x0000;	????	
 170:	00 77       	subc	r7,	r0	
 172:	01 00       	.word	0x0001;	????	
 174:	00 01       	.word	0x0100;	????	
 176:	01 08       	.word	0x0801;	????	
 178:	6a 00       	.word	0x006a;	????	
 17a:	00 00       	.word	0x0000;	????	
 17c:	06 9b       	cmp	r11,	r6	
 17e:	00 00       	.word	0x0000;	????	
 180:	00 02       	.word	0x0200;	????	
 182:	c4 03       	.word	0x03c4;	????	
 184:	99 00       	.word	0x0099;	????	
 186:	00 00       	.word	0x0000;	????	
 188:	77 01       	.word	0x0177;	????	
 18a:	00 00       	.word	0x0000;	????	
 18c:	01 01       	.word	0x0101;	????	
 18e:	09 38       	jl	$+20     	;abs 0x1a2
 190:	00 00       	.word	0x0000;	????	
 192:	00 01       	.word	0x0100;	????	
 194:	09 40       	mov	r0,	r9	
 196:	00 00       	.word	0x0000;	????	
 198:	00 01       	.word	0x0100;	????	
 19a:	03 03       	.word	0x0303;	????	
 19c:	00 02       	.word	0x0200;	????	
 19e:	09 4a       	mov	r10,	r9	
 1a0:	01 00       	.word	0x0001;	????	
 1a2:	00 01       	.word	0x0100;	????	
 1a4:	0a 25       	jz	$+534    	;abs 0x3ba
 1a6:	00 00       	.word	0x0000;	????	
 1a8:	00 01       	.word	0x0100;	????	
 1aa:	03 03       	.word	0x0303;	????	
 1ac:	02 02       	.word	0x0202;	????	
 1ae:	00 d4       	bis	r4,	r0	
 1b0:	00 00       	.word	0x0000;	????	
 1b2:	00 02       	.word	0x0200;	????	
 1b4:	00 8b       	sub	r11,	r0	
 1b6:	00 00       	.word	0x0000;	????	
 1b8:	00 02       	.word	0x0200;	????	
 1ba:	01 3d       	jmp	$+516    	;abs 0x3be
 1bc:	00 00       	.word	0x0000;	????	
 1be:	00 01       	.word	0x0100;	????	
 1c0:	b1 01       	.word	0x01b1;	????	
 1c2:	00 00       	.word	0x0000;	????	
 1c4:	d9 00       	.word	0x00d9;	????	
 1c6:	00 00       	.word	0x0000;	????	
 1c8:	d4 c0 6e c1 	bic.b	-16018(r0),157(r4)	;PC rel. 0xc338, 0x009d(r4)
 1cc:	9d 00 
 1ce:	00 00       	.word	0x0000;	????	
 1d0:	02 02       	.word	0x0202;	????	
 1d2:	07 51       	add	r1,	r7	
 1d4:	01 00       	.word	0x0001;	????	
 1d6:	00 03       	.word	0x0300;	????	
 1d8:	01 c1       	bic	r1,	r1	
 1da:	01 00       	.word	0x0001;	????	
 1dc:	00 01       	.word	0x0100;	????	
 1de:	03 01       	.word	0x0103;	????	
 1e0:	d4 c0 6e c1 	bic.b	-16018(r0),20(r4)	;PC rel. 0xc350, 0x0014(r4)
 1e4:	14 00 
 1e6:	00 00       	.word	0x0000;	????	
 1e8:	5a 00       	.word	0x005a;	????	
 1ea:	00 00       	.word	0x0000;	????	
 1ec:	04 a9       	dadd	r9,	r4	
 1ee:	01 00       	.word	0x0001;	????	
 1f0:	00 01       	.word	0x0100;	????	
 1f2:	03 21       	jnz	$+520    	;abs 0x3fa
 1f4:	00 00       	.word	0x0000;	????	
 1f6:	00 02       	.word	0x0200;	????	
 1f8:	91 7a 04 96 	subc	-27132(r10),1(r1)	;0x9604(r10), 0x0001(r1)
 1fc:	01 00 
 1fe:	00 01       	.word	0x0100;	????	
 200:	03 5a       	.word	0x5a03;	????	Illegal as 2-op instr
 202:	00 00       	.word	0x0000;	????	
 204:	00 02       	.word	0x0200;	????	
 206:	91 7c 00 05 	subc	1280(r12),8450(r1);0x0500(r12), 0x2102(r1)
 20a:	02 21 
 20c:	00 00       	.word	0x0000;	????	
 20e:	00 06       	.word	0x0600;	????	
 210:	80 01       	.word	0x0180;	????	
 212:	00 00       	.word	0x0000;	????	
 214:	02 ac       	dadd	r12,	r2	
 216:	7e 01       	.word	0x017e;	????	
 218:	00 00       	.word	0x0000;	????	
 21a:	71 00       	.word	0x0071;	????	
 21c:	00 00       	.word	0x0000;	????	
 21e:	01 01       	.word	0x0101;	????	
 220:	07 76       	subc	r6,	r7	
 222:	00 00       	.word	0x0000;	????	
 224:	00 02       	.word	0x0200;	????	
 226:	01 08       	.word	0x0801;	????	
 228:	a7 00       	.word	0x00a7;	????	
 22a:	00 00       	.word	0x0000;	????	
 22c:	06 74       	subc	r4,	r6	
 22e:	01 00       	.word	0x0001;	????	
 230:	00 02       	.word	0x0200;	????	
 232:	ae 72 01 00 	subc	#4,	1(r14)	;r2 As==10, 0x0001(r14)
 236:	00 71       	subc	r1,	r0	
 238:	00 00       	.word	0x0000;	????	
 23a:	00 01       	.word	0x0100;	????	
 23c:	01 06       	.word	0x0601;	????	
 23e:	a0 01       	.word	0x01a0;	????	
 240:	00 00       	.word	0x0000;	????	
 242:	02 b0       	bit	r0,	r2	
 244:	9e 01       	.word	0x019e;	????	
 246:	00 00       	.word	0x0000;	????	
 248:	71 00       	.word	0x0071;	????	
 24a:	00 00       	.word	0x0000;	????	
 24c:	01 01       	.word	0x0101;	????	
 24e:	06 8c       	sub	r12,	r6	
 250:	01 00       	.word	0x0001;	????	
 252:	00 02       	.word	0x0200;	????	
 254:	b3 8a       	sub	@r10+,	#1	;r3 As==01
 256:	01 00       	.word	0x0001;	????	
 258:	00 b0       	bit	r0,	r0	
 25a:	00 00       	.word	0x0000;	????	
 25c:	00 01       	.word	0x0100;	????	
 25e:	01 07       	.word	0x0701;	????	
 260:	21 00       	.word	0x0021;	????	
 262:	00 00       	.word	0x0000;	????	
 264:	06 68       	addc	r8,	r6	
 266:	01 00       	.word	0x0001;	????	
 268:	00 02       	.word	0x0200;	????	
 26a:	b5 66 01 00 	addc	@r6+,	1(r5)	;0x0001(r5)
 26e:	00 b0       	bit	r0,	r0	
 270:	00 00       	.word	0x0000;	????	
 272:	00 01       	.word	0x0100;	????	
 274:	01 06       	.word	0x0601;	????	
 276:	b9 01       	.word	0x01b9;	????	
 278:	00 00       	.word	0x0000;	????	
 27a:	02 b9       	bit	r9,	r2	
 27c:	b7 01       	.word	0x01b7;	????	
 27e:	00 00       	.word	0x0000;	????	
 280:	b0 00       	.word	0x00b0;	????	
 282:	00 00       	.word	0x0000;	????	
 284:	01 01       	.word	0x0101;	????	
 286:	00 ca       	bic	r10,	r0	
 288:	00 00       	.word	0x0000;	????	
 28a:	00 02       	.word	0x0200;	????	
 28c:	00 f4       	and	r4,	r0	
 28e:	00 00       	.word	0x0000;	????	
 290:	00 02       	.word	0x0200;	????	
 292:	01 29       	jnc	$+516    	;abs 0x496
 294:	01 00       	.word	0x0001;	????	
 296:	00 00       	.word	0x0000;	????	
 298:	c0 0c       	.word	0x0cc0;	????	
 29a:	c0 2f       	jc	$-126    	;abs 0x21c
 29c:	62 75       	subc.b	@r5,	r2	
 29e:	69 6c       	addc.b	@r12,	r9	
 2a0:	64 2f       	jc	$-310    	;abs 0x16a
 2a2:	67 63       	addc.b	#2,	r7	;r3 As==10
 2a4:	63 2d       	jc	$+712    	;abs 0x56c
 2a6:	6d 73       	subc.b	#2,	r13	;r3 As==10
 2a8:	70 34       	jge	$+226    	;abs 0x38a
 2aa:	33 30       	jn	$+104    	;abs 0x312
 2ac:	2d 67       	addc	@r7,	r13	
 2ae:	52 42 52 52 	mov.b	&0x5252,r2	
 2b2:	6f 2f       	jc	$-288    	;abs 0x192
 2b4:	67 63       	addc.b	#2,	r7	;r3 As==10
 2b6:	63 2d       	jc	$+712    	;abs 0x57e
 2b8:	6d 73       	subc.b	#2,	r13	;r3 As==10
 2ba:	70 34       	jge	$+226    	;abs 0x39c
 2bc:	33 30       	jn	$+104    	;abs 0x324
 2be:	2d 34       	jge	$+92     	;abs 0x31a
 2c0:	2e 36       	jge	$-930    	;abs 0xff1e
 2c2:	2e 33       	jn	$-418    	;abs 0x120
 2c4:	7e 6d       	addc.b	@r13+,	r14	
 2c6:	73 70       	.word	0x7073;	????	Illegal as 2-op instr
 2c8:	67 63       	addc.b	#2,	r7	;r3 As==10
 2ca:	63 2d       	jc	$+712    	;abs 0x592
 2cc:	32 30       	jn	$+102    	;abs 0x332
 2ce:	31 32       	jn	$-924    	;abs 0xff32
 2d0:	30 34       	jge	$+98     	;abs 0x332
 2d2:	30 36       	jge	$-926    	;abs 0xff34
 2d4:	2f 2e       	jc	$-928    	;abs 0xff34
 2d6:	2f 67       	addc	@r7,	r15	
 2d8:	63 63       	.word	0x6363;	????	Illegal as 2-op instr
 2da:	2d 34       	jge	$+92     	;abs 0x336
 2dc:	2e 36       	jge	$-930    	;abs 0xff3a
 2de:	2e 33       	jn	$-418    	;abs 0x13c
 2e0:	2f 67       	addc	@r7,	r15	
 2e2:	63 63       	.word	0x6363;	????	Illegal as 2-op instr
 2e4:	2f 63       	addc	#2,	r15	;r3 As==10
 2e6:	6f 6e       	addc.b	@r14,	r15	
 2e8:	66 69       	addc.b	@r9,	r6	
 2ea:	67 2f       	jc	$-304    	;abs 0x1ba
 2ec:	6d 73       	subc.b	#2,	r13	;r3 As==10
 2ee:	70 34       	jge	$+226    	;abs 0x3d0
 2f0:	33 30       	jn	$+104    	;abs 0x358
 2f2:	2f 63       	addc	#2,	r15	;r3 As==10
 2f4:	72 74       	subc.b	@r4+,	r2	
 2f6:	30 2e       	jc	$-926    	;abs 0xff58
 2f8:	53 00       	.word	0x0053;	????	
 2fa:	2f 62       	addc	#4,	r15	;r2 As==10
 2fc:	75 69       	addc.b	@r9+,	r5	
 2fe:	6c 64       	addc.b	@r4,	r12	
 300:	2f 67       	addc	@r7,	r15	
 302:	63 63       	.word	0x6363;	????	Illegal as 2-op instr
 304:	2d 6d       	addc	@r13,	r13	
 306:	73 70       	.word	0x7073;	????	Illegal as 2-op instr
 308:	34 33       	jn	$-406    	;abs 0x172
 30a:	30 2d       	jc	$+610    	;abs 0x56c
 30c:	67 52       	add.b	#4,	r7	;r2 As==10
 30e:	42 52       	rla.b	r2		
 310:	52 6f 2f 67 	addc.b	26415(r15),r2	;0x672f(r15)
 314:	63 63       	.word	0x6363;	????	Illegal as 2-op instr
 316:	2d 6d       	addc	@r13,	r13	
 318:	73 70       	.word	0x7073;	????	Illegal as 2-op instr
 31a:	34 33       	jn	$-406    	;abs 0x184
 31c:	30 2d       	jc	$+610    	;abs 0x57e
 31e:	34 2e       	jc	$-918    	;abs 0xff88
 320:	36 2e       	jc	$-914    	;abs 0xff8e
 322:	33 7e       	.word	0x7e33;	????	Illegal as 2-op instr
 324:	6d 73       	subc.b	#2,	r13	;r3 As==10
 326:	70 67       	addc.b	@r7+,	r0	
 328:	63 63       	.word	0x6363;	????	Illegal as 2-op instr
 32a:	2d 32       	jn	$-932    	;abs 0xff86
 32c:	30 31       	jn	$+610    	;abs 0x58e
 32e:	32 30       	jn	$+102    	;abs 0x394
 330:	34 30       	jn	$+106    	;abs 0x39a
 332:	36 2f       	jc	$-402    	;abs 0x1a0
 334:	62 75       	subc.b	@r5,	r2	
 336:	69 6c       	addc.b	@r12,	r9	
 338:	64 2d       	jc	$+714    	;abs 0x602
 33a:	72 65       	addc.b	@r5+,	r2	
 33c:	73 75       	.word	0x7573;	????	Illegal as 2-op instr
 33e:	6c 74       	subc.b	@r4,	r12	
 340:	2f 67       	addc	@r7,	r15	
 342:	63 63       	.word	0x6363;	????	Illegal as 2-op instr
 344:	00 47       	br	r7		
 346:	4e 55       	add.b	r5,	r14	
 348:	20 41       	br	@r1		
 34a:	53 20       	jnz	$+168    	;abs 0x3f2
 34c:	32 2e       	jc	$-922    	;abs 0xffb2
 34e:	32 31       	jn	$+614    	;abs 0x5b4
 350:	2e 31       	jn	$+606    	;abs 0x5ae
 352:	00 01       	.word	0x0100;	????	
 354:	80 ca 00 00 	bic	r10,	0(r0)	;PC rel. 0x0356
 358:	00 02       	.word	0x0200;	????	
 35a:	00 08       	.word	0x0800;	????	
 35c:	01 00       	.word	0x0001;	????	
 35e:	00 02       	.word	0x0200;	????	
 360:	01 b8       	bit	r8,	r1	
 362:	01 00       	.word	0x0001;	????	
 364:	00 0c       	.word	0x0c00;	????	
 366:	c0 10       	.word	0x10c0;	????	
 368:	c0 2f       	jc	$-126    	;abs 0x2ea
 36a:	62 75       	subc.b	@r5,	r2	
 36c:	69 6c       	addc.b	@r12,	r9	
 36e:	64 2f       	jc	$-310    	;abs 0x238
 370:	67 63       	addc.b	#2,	r7	;r3 As==10
 372:	63 2d       	jc	$+712    	;abs 0x63a
 374:	6d 73       	subc.b	#2,	r13	;r3 As==10
 376:	70 34       	jge	$+226    	;abs 0x458
 378:	33 30       	jn	$+104    	;abs 0x3e0
 37a:	2d 67       	addc	@r7,	r13	
 37c:	52 42 52 52 	mov.b	&0x5252,r2	
 380:	6f 2f       	jc	$-288    	;abs 0x260
 382:	67 63       	addc.b	#2,	r7	;r3 As==10
 384:	63 2d       	jc	$+712    	;abs 0x64c
 386:	6d 73       	subc.b	#2,	r13	;r3 As==10
 388:	70 34       	jge	$+226    	;abs 0x46a
 38a:	33 30       	jn	$+104    	;abs 0x3f2
 38c:	2d 34       	jge	$+92     	;abs 0x3e8
 38e:	2e 36       	jge	$-930    	;abs 0xffec
 390:	2e 33       	jn	$-418    	;abs 0x1ee
 392:	7e 6d       	addc.b	@r13+,	r14	
 394:	73 70       	.word	0x7073;	????	Illegal as 2-op instr
 396:	67 63       	addc.b	#2,	r7	;r3 As==10
 398:	63 2d       	jc	$+712    	;abs 0x660
 39a:	32 30       	jn	$+102    	;abs 0x400
 39c:	31 32       	jn	$-924    	;abs 0x0
 39e:	30 34       	jge	$+98     	;abs 0x400
 3a0:	30 36       	jge	$-926    	;abs 0x2
 3a2:	2f 2e       	jc	$-928    	;abs 0x2
 3a4:	2f 67       	addc	@r7,	r15	
 3a6:	63 63       	.word	0x6363;	????	Illegal as 2-op instr
 3a8:	2d 34       	jge	$+92     	;abs 0x404
 3aa:	2e 36       	jge	$-930    	;abs 0x8
 3ac:	2e 33       	jn	$-418    	;abs 0x20a
 3ae:	2f 67       	addc	@r7,	r15	
 3b0:	63 63       	.word	0x6363;	????	Illegal as 2-op instr
 3b2:	2f 63       	addc	#2,	r15	;r3 As==10
 3b4:	6f 6e       	addc.b	@r14,	r15	
 3b6:	66 69       	addc.b	@r9,	r6	
 3b8:	67 2f       	jc	$-304    	;abs 0x288
 3ba:	6d 73       	subc.b	#2,	r13	;r3 As==10
 3bc:	70 34       	jge	$+226    	;abs 0x49e
 3be:	33 30       	jn	$+104    	;abs 0x426
 3c0:	2f 63       	addc	#2,	r15	;r3 As==10
 3c2:	72 74       	subc.b	@r4+,	r2	
 3c4:	30 2e       	jc	$-926    	;abs 0x26
 3c6:	53 00       	.word	0x0053;	????	
 3c8:	2f 62       	addc	#4,	r15	;r2 As==10
 3ca:	75 69       	addc.b	@r9+,	r5	
 3cc:	6c 64       	addc.b	@r4,	r12	
 3ce:	2f 67       	addc	@r7,	r15	
 3d0:	63 63       	.word	0x6363;	????	Illegal as 2-op instr
 3d2:	2d 6d       	addc	@r13,	r13	
 3d4:	73 70       	.word	0x7073;	????	Illegal as 2-op instr
 3d6:	34 33       	jn	$-406    	;abs 0x240
 3d8:	30 2d       	jc	$+610    	;abs 0x63a
 3da:	67 52       	add.b	#4,	r7	;r2 As==10
 3dc:	42 52       	rla.b	r2		
 3de:	52 6f 2f 67 	addc.b	26415(r15),r2	;0x672f(r15)
 3e2:	63 63       	.word	0x6363;	????	Illegal as 2-op instr
 3e4:	2d 6d       	addc	@r13,	r13	
 3e6:	73 70       	.word	0x7073;	????	Illegal as 2-op instr
 3e8:	34 33       	jn	$-406    	;abs 0x252
 3ea:	30 2d       	jc	$+610    	;abs 0x64c
 3ec:	34 2e       	jc	$-918    	;abs 0x56
 3ee:	36 2e       	jc	$-914    	;abs 0x5c
 3f0:	33 7e       	.word	0x7e33;	????	Illegal as 2-op instr
 3f2:	6d 73       	subc.b	#2,	r13	;r3 As==10
 3f4:	70 67       	addc.b	@r7+,	r0	
 3f6:	63 63       	.word	0x6363;	????	Illegal as 2-op instr
 3f8:	2d 32       	jn	$-932    	;abs 0x54
 3fa:	30 31       	jn	$+610    	;abs 0x65c
 3fc:	32 30       	jn	$+102    	;abs 0x462
 3fe:	34 30       	jn	$+106    	;abs 0x468
 400:	36 2f       	jc	$-402    	;abs 0x26e
 402:	62 75       	subc.b	@r5,	r2	
 404:	69 6c       	addc.b	@r12,	r9	
 406:	64 2d       	jc	$+714    	;abs 0x6d0
 408:	72 65       	addc.b	@r5+,	r2	
 40a:	73 75       	.word	0x7573;	????	Illegal as 2-op instr
 40c:	6c 74       	subc.b	@r4,	r12	
 40e:	2f 67       	addc	@r7,	r15	
 410:	63 63       	.word	0x6363;	????	Illegal as 2-op instr
 412:	00 47       	br	r7		
 414:	4e 55       	add.b	r5,	r14	
 416:	20 41       	br	@r1		
 418:	53 20       	jnz	$+168    	;abs 0x4c0
 41a:	32 2e       	jc	$-922    	;abs 0x80
 41c:	32 31       	jn	$+614    	;abs 0x682
 41e:	2e 31       	jn	$+606    	;abs 0x67c
 420:	00 01       	.word	0x0100;	????	
 422:	80 ca 00 00 	bic	r10,	0(r0)	;PC rel. 0x0424
 426:	00 02       	.word	0x0200;	????	
 428:	00 1c       	.word	0x1c00;	????	
 42a:	01 00       	.word	0x0001;	????	
 42c:	00 02       	.word	0x0200;	????	
 42e:	01 45       	mov	r5,	r1	
 430:	02 00       	.word	0x0002;	????	
 432:	00 10       	rrc	r0		
 434:	c0 28       	jnc	$+386    	;abs 0x5b6
 436:	c0 2f       	jc	$-126    	;abs 0x3b8
 438:	62 75       	subc.b	@r5,	r2	
 43a:	69 6c       	addc.b	@r12,	r9	
 43c:	64 2f       	jc	$-310    	;abs 0x306
 43e:	67 63       	addc.b	#2,	r7	;r3 As==10
 440:	63 2d       	jc	$+712    	;abs 0x708
 442:	6d 73       	subc.b	#2,	r13	;r3 As==10
 444:	70 34       	jge	$+226    	;abs 0x526
 446:	33 30       	jn	$+104    	;abs 0x4ae
 448:	2d 67       	addc	@r7,	r13	
 44a:	52 42 52 52 	mov.b	&0x5252,r2	
 44e:	6f 2f       	jc	$-288    	;abs 0x32e
 450:	67 63       	addc.b	#2,	r7	;r3 As==10
 452:	63 2d       	jc	$+712    	;abs 0x71a
 454:	6d 73       	subc.b	#2,	r13	;r3 As==10
 456:	70 34       	jge	$+226    	;abs 0x538
 458:	33 30       	jn	$+104    	;abs 0x4c0
 45a:	2d 34       	jge	$+92     	;abs 0x4b6
 45c:	2e 36       	jge	$-930    	;abs 0xba
 45e:	2e 33       	jn	$-418    	;abs 0x2bc
 460:	7e 6d       	addc.b	@r13+,	r14	
 462:	73 70       	.word	0x7073;	????	Illegal as 2-op instr
 464:	67 63       	addc.b	#2,	r7	;r3 As==10
 466:	63 2d       	jc	$+712    	;abs 0x72e
 468:	32 30       	jn	$+102    	;abs 0x4ce
 46a:	31 32       	jn	$-924    	;abs 0xce
 46c:	30 34       	jge	$+98     	;abs 0x4ce
 46e:	30 36       	jge	$-926    	;abs 0xd0
 470:	2f 2e       	jc	$-928    	;abs 0xd0
 472:	2f 67       	addc	@r7,	r15	
 474:	63 63       	.word	0x6363;	????	Illegal as 2-op instr
 476:	2d 34       	jge	$+92     	;abs 0x4d2
 478:	2e 36       	jge	$-930    	;abs 0xd6
 47a:	2e 33       	jn	$-418    	;abs 0x2d8
 47c:	2f 67       	addc	@r7,	r15	
 47e:	63 63       	.word	0x6363;	????	Illegal as 2-op instr
 480:	2f 63       	addc	#2,	r15	;r3 As==10
 482:	6f 6e       	addc.b	@r14,	r15	
 484:	66 69       	addc.b	@r9,	r6	
 486:	67 2f       	jc	$-304    	;abs 0x356
 488:	6d 73       	subc.b	#2,	r13	;r3 As==10
 48a:	70 34       	jge	$+226    	;abs 0x56c
 48c:	33 30       	jn	$+104    	;abs 0x4f4
 48e:	2f 63       	addc	#2,	r15	;r3 As==10
 490:	72 74       	subc.b	@r4+,	r2	
 492:	30 2e       	jc	$-926    	;abs 0xf4
 494:	53 00       	.word	0x0053;	????	
 496:	2f 62       	addc	#4,	r15	;r2 As==10
 498:	75 69       	addc.b	@r9+,	r5	
 49a:	6c 64       	addc.b	@r4,	r12	
 49c:	2f 67       	addc	@r7,	r15	
 49e:	63 63       	.word	0x6363;	????	Illegal as 2-op instr
 4a0:	2d 6d       	addc	@r13,	r13	
 4a2:	73 70       	.word	0x7073;	????	Illegal as 2-op instr
 4a4:	34 33       	jn	$-406    	;abs 0x30e
 4a6:	30 2d       	jc	$+610    	;abs 0x708
 4a8:	67 52       	add.b	#4,	r7	;r2 As==10
 4aa:	42 52       	rla.b	r2		
 4ac:	52 6f 2f 67 	addc.b	26415(r15),r2	;0x672f(r15)
 4b0:	63 63       	.word	0x6363;	????	Illegal as 2-op instr
 4b2:	2d 6d       	addc	@r13,	r13	
 4b4:	73 70       	.word	0x7073;	????	Illegal as 2-op instr
 4b6:	34 33       	jn	$-406    	;abs 0x320
 4b8:	30 2d       	jc	$+610    	;abs 0x71a
 4ba:	34 2e       	jc	$-918    	;abs 0x124
 4bc:	36 2e       	jc	$-914    	;abs 0x12a
 4be:	33 7e       	.word	0x7e33;	????	Illegal as 2-op instr
 4c0:	6d 73       	subc.b	#2,	r13	;r3 As==10
 4c2:	70 67       	addc.b	@r7+,	r0	
 4c4:	63 63       	.word	0x6363;	????	Illegal as 2-op instr
 4c6:	2d 32       	jn	$-932    	;abs 0x122
 4c8:	30 31       	jn	$+610    	;abs 0x72a
 4ca:	32 30       	jn	$+102    	;abs 0x530
 4cc:	34 30       	jn	$+106    	;abs 0x536
 4ce:	36 2f       	jc	$-402    	;abs 0x33c
 4d0:	62 75       	subc.b	@r5,	r2	
 4d2:	69 6c       	addc.b	@r12,	r9	
 4d4:	64 2d       	jc	$+714    	;abs 0x79e
 4d6:	72 65       	addc.b	@r5+,	r2	
 4d8:	73 75       	.word	0x7573;	????	Illegal as 2-op instr
 4da:	6c 74       	subc.b	@r4,	r12	
 4dc:	2f 67       	addc	@r7,	r15	
 4de:	63 63       	.word	0x6363;	????	Illegal as 2-op instr
 4e0:	00 47       	br	r7		
 4e2:	4e 55       	add.b	r5,	r14	
 4e4:	20 41       	br	@r1		
 4e6:	53 20       	jnz	$+168    	;abs 0x58e
 4e8:	32 2e       	jc	$-922    	;abs 0x14e
 4ea:	32 31       	jn	$+614    	;abs 0x750
 4ec:	2e 31       	jn	$+606    	;abs 0x74a
 4ee:	00 01       	.word	0x0100;	????	
 4f0:	80 ca 00 00 	bic	r10,	0(r0)	;PC rel. 0x04f2
 4f4:	00 02       	.word	0x0200;	????	
 4f6:	00 30       	jn	$+2      	;abs 0x4f8
 4f8:	01 00       	.word	0x0001;	????	
 4fa:	00 02       	.word	0x0200;	????	
 4fc:	01 d8       	bis	r8,	r1	
 4fe:	02 00       	.word	0x0002;	????	
 500:	00 28       	jnc	$+2      	;abs 0x502
 502:	c0 3e       	jmp	$-638    	;abs 0x284
 504:	c0 2f       	jc	$-126    	;abs 0x486
 506:	62 75       	subc.b	@r5,	r2	
 508:	69 6c       	addc.b	@r12,	r9	
 50a:	64 2f       	jc	$-310    	;abs 0x3d4
 50c:	67 63       	addc.b	#2,	r7	;r3 As==10
 50e:	63 2d       	jc	$+712    	;abs 0x7d6
 510:	6d 73       	subc.b	#2,	r13	;r3 As==10
 512:	70 34       	jge	$+226    	;abs 0x5f4
 514:	33 30       	jn	$+104    	;abs 0x57c
 516:	2d 67       	addc	@r7,	r13	
 518:	52 42 52 52 	mov.b	&0x5252,r2	
 51c:	6f 2f       	jc	$-288    	;abs 0x3fc
 51e:	67 63       	addc.b	#2,	r7	;r3 As==10
 520:	63 2d       	jc	$+712    	;abs 0x7e8
 522:	6d 73       	subc.b	#2,	r13	;r3 As==10
 524:	70 34       	jge	$+226    	;abs 0x606
 526:	33 30       	jn	$+104    	;abs 0x58e
 528:	2d 34       	jge	$+92     	;abs 0x584
 52a:	2e 36       	jge	$-930    	;abs 0x188
 52c:	2e 33       	jn	$-418    	;abs 0x38a
 52e:	7e 6d       	addc.b	@r13+,	r14	
 530:	73 70       	.word	0x7073;	????	Illegal as 2-op instr
 532:	67 63       	addc.b	#2,	r7	;r3 As==10
 534:	63 2d       	jc	$+712    	;abs 0x7fc
 536:	32 30       	jn	$+102    	;abs 0x59c
 538:	31 32       	jn	$-924    	;abs 0x19c
 53a:	30 34       	jge	$+98     	;abs 0x59c
 53c:	30 36       	jge	$-926    	;abs 0x19e
 53e:	2f 2e       	jc	$-928    	;abs 0x19e
 540:	2f 67       	addc	@r7,	r15	
 542:	63 63       	.word	0x6363;	????	Illegal as 2-op instr
 544:	2d 34       	jge	$+92     	;abs 0x5a0
 546:	2e 36       	jge	$-930    	;abs 0x1a4
 548:	2e 33       	jn	$-418    	;abs 0x3a6
 54a:	2f 67       	addc	@r7,	r15	
 54c:	63 63       	.word	0x6363;	????	Illegal as 2-op instr
 54e:	2f 63       	addc	#2,	r15	;r3 As==10
 550:	6f 6e       	addc.b	@r14,	r15	
 552:	66 69       	addc.b	@r9,	r6	
 554:	67 2f       	jc	$-304    	;abs 0x424
 556:	6d 73       	subc.b	#2,	r13	;r3 As==10
 558:	70 34       	jge	$+226    	;abs 0x63a
 55a:	33 30       	jn	$+104    	;abs 0x5c2
 55c:	2f 63       	addc	#2,	r15	;r3 As==10
 55e:	72 74       	subc.b	@r4+,	r2	
 560:	30 2e       	jc	$-926    	;abs 0x1c2
 562:	53 00       	.word	0x0053;	????	
 564:	2f 62       	addc	#4,	r15	;r2 As==10
 566:	75 69       	addc.b	@r9+,	r5	
 568:	6c 64       	addc.b	@r4,	r12	
 56a:	2f 67       	addc	@r7,	r15	
 56c:	63 63       	.word	0x6363;	????	Illegal as 2-op instr
 56e:	2d 6d       	addc	@r13,	r13	
 570:	73 70       	.word	0x7073;	????	Illegal as 2-op instr
 572:	34 33       	jn	$-406    	;abs 0x3dc
 574:	30 2d       	jc	$+610    	;abs 0x7d6
 576:	67 52       	add.b	#4,	r7	;r2 As==10
 578:	42 52       	rla.b	r2		
 57a:	52 6f 2f 67 	addc.b	26415(r15),r2	;0x672f(r15)
 57e:	63 63       	.word	0x6363;	????	Illegal as 2-op instr
 580:	2d 6d       	addc	@r13,	r13	
 582:	73 70       	.word	0x7073;	????	Illegal as 2-op instr
 584:	34 33       	jn	$-406    	;abs 0x3ee
 586:	30 2d       	jc	$+610    	;abs 0x7e8
 588:	34 2e       	jc	$-918    	;abs 0x1f2
 58a:	36 2e       	jc	$-914    	;abs 0x1f8
 58c:	33 7e       	.word	0x7e33;	????	Illegal as 2-op instr
 58e:	6d 73       	subc.b	#2,	r13	;r3 As==10
 590:	70 67       	addc.b	@r7+,	r0	
 592:	63 63       	.word	0x6363;	????	Illegal as 2-op instr
 594:	2d 32       	jn	$-932    	;abs 0x1f0
 596:	30 31       	jn	$+610    	;abs 0x7f8
 598:	32 30       	jn	$+102    	;abs 0x5fe
 59a:	34 30       	jn	$+106    	;abs 0x604
 59c:	36 2f       	jc	$-402    	;abs 0x40a
 59e:	62 75       	subc.b	@r5,	r2	
 5a0:	69 6c       	addc.b	@r12,	r9	
 5a2:	64 2d       	jc	$+714    	;abs 0x86c
 5a4:	72 65       	addc.b	@r5+,	r2	
 5a6:	73 75       	.word	0x7573;	????	Illegal as 2-op instr
 5a8:	6c 74       	subc.b	@r4,	r12	
 5aa:	2f 67       	addc	@r7,	r15	
 5ac:	63 63       	.word	0x6363;	????	Illegal as 2-op instr
 5ae:	00 47       	br	r7		
 5b0:	4e 55       	add.b	r5,	r14	
 5b2:	20 41       	br	@r1		
 5b4:	53 20       	jnz	$+168    	;abs 0x65c
 5b6:	32 2e       	jc	$-922    	;abs 0x21c
 5b8:	32 31       	jn	$+614    	;abs 0x81e
 5ba:	2e 31       	jn	$+606    	;abs 0x818
 5bc:	00 01       	.word	0x0100;	????	
 5be:	80 ca 00 00 	bic	r10,	0(r0)	;PC rel. 0x05c0
 5c2:	00 02       	.word	0x0200;	????	
 5c4:	00 44       	br	r4		
 5c6:	01 00       	.word	0x0001;	????	
 5c8:	00 02       	.word	0x0200;	????	
 5ca:	01 6b       	addc	r11,	r1	
 5cc:	03 00       	.word	0x0003;	????	
 5ce:	00 bc       	bit	r12,	r0	
 5d0:	c0 c2 c0 2f 	bic.b	r2,	12224(r0);PC rel. 0x3592
 5d4:	62 75       	subc.b	@r5,	r2	
 5d6:	69 6c       	addc.b	@r12,	r9	
 5d8:	64 2f       	jc	$-310    	;abs 0x4a2
 5da:	67 63       	addc.b	#2,	r7	;r3 As==10
 5dc:	63 2d       	jc	$+712    	;abs 0x8a4
 5de:	6d 73       	subc.b	#2,	r13	;r3 As==10
 5e0:	70 34       	jge	$+226    	;abs 0x6c2
 5e2:	33 30       	jn	$+104    	;abs 0x64a
 5e4:	2d 67       	addc	@r7,	r13	
 5e6:	52 42 52 52 	mov.b	&0x5252,r2	
 5ea:	6f 2f       	jc	$-288    	;abs 0x4ca
 5ec:	67 63       	addc.b	#2,	r7	;r3 As==10
 5ee:	63 2d       	jc	$+712    	;abs 0x8b6
 5f0:	6d 73       	subc.b	#2,	r13	;r3 As==10
 5f2:	70 34       	jge	$+226    	;abs 0x6d4
 5f4:	33 30       	jn	$+104    	;abs 0x65c
 5f6:	2d 34       	jge	$+92     	;abs 0x652
 5f8:	2e 36       	jge	$-930    	;abs 0x256
 5fa:	2e 33       	jn	$-418    	;abs 0x458
 5fc:	7e 6d       	addc.b	@r13+,	r14	
 5fe:	73 70       	.word	0x7073;	????	Illegal as 2-op instr
 600:	67 63       	addc.b	#2,	r7	;r3 As==10
 602:	63 2d       	jc	$+712    	;abs 0x8ca
 604:	32 30       	jn	$+102    	;abs 0x66a
 606:	31 32       	jn	$-924    	;abs 0x26a
 608:	30 34       	jge	$+98     	;abs 0x66a
 60a:	30 36       	jge	$-926    	;abs 0x26c
 60c:	2f 2e       	jc	$-928    	;abs 0x26c
 60e:	2f 67       	addc	@r7,	r15	
 610:	63 63       	.word	0x6363;	????	Illegal as 2-op instr
 612:	2d 34       	jge	$+92     	;abs 0x66e
 614:	2e 36       	jge	$-930    	;abs 0x272
 616:	2e 33       	jn	$-418    	;abs 0x474
 618:	2f 67       	addc	@r7,	r15	
 61a:	63 63       	.word	0x6363;	????	Illegal as 2-op instr
 61c:	2f 63       	addc	#2,	r15	;r3 As==10
 61e:	6f 6e       	addc.b	@r14,	r15	
 620:	66 69       	addc.b	@r9,	r6	
 622:	67 2f       	jc	$-304    	;abs 0x4f2
 624:	6d 73       	subc.b	#2,	r13	;r3 As==10
 626:	70 34       	jge	$+226    	;abs 0x708
 628:	33 30       	jn	$+104    	;abs 0x690
 62a:	2f 63       	addc	#2,	r15	;r3 As==10
 62c:	72 74       	subc.b	@r4+,	r2	
 62e:	30 2e       	jc	$-926    	;abs 0x290
 630:	53 00       	.word	0x0053;	????	
 632:	2f 62       	addc	#4,	r15	;r2 As==10
 634:	75 69       	addc.b	@r9+,	r5	
 636:	6c 64       	addc.b	@r4,	r12	
 638:	2f 67       	addc	@r7,	r15	
 63a:	63 63       	.word	0x6363;	????	Illegal as 2-op instr
 63c:	2d 6d       	addc	@r13,	r13	
 63e:	73 70       	.word	0x7073;	????	Illegal as 2-op instr
 640:	34 33       	jn	$-406    	;abs 0x4aa
 642:	30 2d       	jc	$+610    	;abs 0x8a4
 644:	67 52       	add.b	#4,	r7	;r2 As==10
 646:	42 52       	rla.b	r2		
 648:	52 6f 2f 67 	addc.b	26415(r15),r2	;0x672f(r15)
 64c:	63 63       	.word	0x6363;	????	Illegal as 2-op instr
 64e:	2d 6d       	addc	@r13,	r13	
 650:	73 70       	.word	0x7073;	????	Illegal as 2-op instr
 652:	34 33       	jn	$-406    	;abs 0x4bc
 654:	30 2d       	jc	$+610    	;abs 0x8b6
 656:	34 2e       	jc	$-918    	;abs 0x2c0
 658:	36 2e       	jc	$-914    	;abs 0x2c6
 65a:	33 7e       	.word	0x7e33;	????	Illegal as 2-op instr
 65c:	6d 73       	subc.b	#2,	r13	;r3 As==10
 65e:	70 67       	addc.b	@r7+,	r0	
 660:	63 63       	.word	0x6363;	????	Illegal as 2-op instr
 662:	2d 32       	jn	$-932    	;abs 0x2be
 664:	30 31       	jn	$+610    	;abs 0x8c6
 666:	32 30       	jn	$+102    	;abs 0x6cc
 668:	34 30       	jn	$+106    	;abs 0x6d2
 66a:	36 2f       	jc	$-402    	;abs 0x4d8
 66c:	62 75       	subc.b	@r5,	r2	
 66e:	69 6c       	addc.b	@r12,	r9	
 670:	64 2d       	jc	$+714    	;abs 0x93a
 672:	72 65       	addc.b	@r5+,	r2	
 674:	73 75       	.word	0x7573;	????	Illegal as 2-op instr
 676:	6c 74       	subc.b	@r4,	r12	
 678:	2f 67       	addc	@r7,	r15	
 67a:	63 63       	.word	0x6363;	????	Illegal as 2-op instr
 67c:	00 47       	br	r7		
 67e:	4e 55       	add.b	r5,	r14	
 680:	20 41       	br	@r1		
 682:	53 20       	jnz	$+168    	;abs 0x72a
 684:	32 2e       	jc	$-922    	;abs 0x2ea
 686:	32 31       	jn	$+614    	;abs 0x8ec
 688:	2e 31       	jn	$+606    	;abs 0x8e6
 68a:	00 01       	.word	0x0100;	????	
 68c:	80 ca 00 00 	bic	r10,	0(r0)	;PC rel. 0x068e
 690:	00 02       	.word	0x0200;	????	
 692:	00 58       	add	r8,	r0	
 694:	01 00       	.word	0x0001;	????	
 696:	00 02       	.word	0x0200;	????	
 698:	01 f9       	and	r9,	r1	
 69a:	03 00       	.word	0x0003;	????	
 69c:	00 6e       	addc	r14,	r0	
 69e:	c1 70 c1 2f 	subc.b	r0,	12225(r1);0x2fc1(r1)
 6a2:	62 75       	subc.b	@r5,	r2	
 6a4:	69 6c       	addc.b	@r12,	r9	
 6a6:	64 2f       	jc	$-310    	;abs 0x570
 6a8:	67 63       	addc.b	#2,	r7	;r3 As==10
 6aa:	63 2d       	jc	$+712    	;abs 0x972
 6ac:	6d 73       	subc.b	#2,	r13	;r3 As==10
 6ae:	70 34       	jge	$+226    	;abs 0x790
 6b0:	33 30       	jn	$+104    	;abs 0x718
 6b2:	2d 67       	addc	@r7,	r13	
 6b4:	52 42 52 52 	mov.b	&0x5252,r2	
 6b8:	6f 2f       	jc	$-288    	;abs 0x598
 6ba:	67 63       	addc.b	#2,	r7	;r3 As==10
 6bc:	63 2d       	jc	$+712    	;abs 0x984
 6be:	6d 73       	subc.b	#2,	r13	;r3 As==10
 6c0:	70 34       	jge	$+226    	;abs 0x7a2
 6c2:	33 30       	jn	$+104    	;abs 0x72a
 6c4:	2d 34       	jge	$+92     	;abs 0x720
 6c6:	2e 36       	jge	$-930    	;abs 0x324
 6c8:	2e 33       	jn	$-418    	;abs 0x526
 6ca:	7e 6d       	addc.b	@r13+,	r14	
 6cc:	73 70       	.word	0x7073;	????	Illegal as 2-op instr
 6ce:	67 63       	addc.b	#2,	r7	;r3 As==10
 6d0:	63 2d       	jc	$+712    	;abs 0x998
 6d2:	32 30       	jn	$+102    	;abs 0x738
 6d4:	31 32       	jn	$-924    	;abs 0x338
 6d6:	30 34       	jge	$+98     	;abs 0x738
 6d8:	30 36       	jge	$-926    	;abs 0x33a
 6da:	2f 2e       	jc	$-928    	;abs 0x33a
 6dc:	2f 67       	addc	@r7,	r15	
 6de:	63 63       	.word	0x6363;	????	Illegal as 2-op instr
 6e0:	2d 34       	jge	$+92     	;abs 0x73c
 6e2:	2e 36       	jge	$-930    	;abs 0x340
 6e4:	2e 33       	jn	$-418    	;abs 0x542
 6e6:	2f 67       	addc	@r7,	r15	
 6e8:	63 63       	.word	0x6363;	????	Illegal as 2-op instr
 6ea:	2f 63       	addc	#2,	r15	;r3 As==10
 6ec:	6f 6e       	addc.b	@r14,	r15	
 6ee:	66 69       	addc.b	@r9,	r6	
 6f0:	67 2f       	jc	$-304    	;abs 0x5c0
 6f2:	6d 73       	subc.b	#2,	r13	;r3 As==10
 6f4:	70 34       	jge	$+226    	;abs 0x7d6
 6f6:	33 30       	jn	$+104    	;abs 0x75e
 6f8:	2f 63       	addc	#2,	r15	;r3 As==10
 6fa:	72 74       	subc.b	@r4+,	r2	
 6fc:	30 2e       	jc	$-926    	;abs 0x35e
 6fe:	53 00       	.word	0x0053;	????	
 700:	2f 62       	addc	#4,	r15	;r2 As==10
 702:	75 69       	addc.b	@r9+,	r5	
 704:	6c 64       	addc.b	@r4,	r12	
 706:	2f 67       	addc	@r7,	r15	
 708:	63 63       	.word	0x6363;	????	Illegal as 2-op instr
 70a:	2d 6d       	addc	@r13,	r13	
 70c:	73 70       	.word	0x7073;	????	Illegal as 2-op instr
 70e:	34 33       	jn	$-406    	;abs 0x578
 710:	30 2d       	jc	$+610    	;abs 0x972
 712:	67 52       	add.b	#4,	r7	;r2 As==10
 714:	42 52       	rla.b	r2		
 716:	52 6f 2f 67 	addc.b	26415(r15),r2	;0x672f(r15)
 71a:	63 63       	.word	0x6363;	????	Illegal as 2-op instr
 71c:	2d 6d       	addc	@r13,	r13	
 71e:	73 70       	.word	0x7073;	????	Illegal as 2-op instr
 720:	34 33       	jn	$-406    	;abs 0x58a
 722:	30 2d       	jc	$+610    	;abs 0x984
 724:	34 2e       	jc	$-918    	;abs 0x38e
 726:	36 2e       	jc	$-914    	;abs 0x394
 728:	33 7e       	.word	0x7e33;	????	Illegal as 2-op instr
 72a:	6d 73       	subc.b	#2,	r13	;r3 As==10
 72c:	70 67       	addc.b	@r7+,	r0	
 72e:	63 63       	.word	0x6363;	????	Illegal as 2-op instr
 730:	2d 32       	jn	$-932    	;abs 0x38c
 732:	30 31       	jn	$+610    	;abs 0x994
 734:	32 30       	jn	$+102    	;abs 0x79a
 736:	34 30       	jn	$+106    	;abs 0x7a0
 738:	36 2f       	jc	$-402    	;abs 0x5a6
 73a:	62 75       	subc.b	@r5,	r2	
 73c:	69 6c       	addc.b	@r12,	r9	
 73e:	64 2d       	jc	$+714    	;abs 0xa08
 740:	72 65       	addc.b	@r5+,	r2	
 742:	73 75       	.word	0x7573;	????	Illegal as 2-op instr
 744:	6c 74       	subc.b	@r4,	r12	
 746:	2f 67       	addc	@r7,	r15	
 748:	63 63       	.word	0x6363;	????	Illegal as 2-op instr
 74a:	00 47       	br	r7		
 74c:	4e 55       	add.b	r5,	r14	
 74e:	20 41       	br	@r1		
 750:	53 20       	jnz	$+168    	;abs 0x7f8
 752:	32 2e       	jc	$-922    	;abs 0x3b8
 754:	32 31       	jn	$+614    	;abs 0x9ba
 756:	2e 31       	jn	$+606    	;abs 0x9b4
 758:	00 01       	.word	0x0100;	????	
 75a:	80 00       	Address 0x000000000000075a is out of bounds.
Address 0x000000000000075c is out of bounds.
and.b	@r15+,	-1(r15)	;0xffff(r15)

Disassembly of section .debug_abbrev:

00000000 <.debug_abbrev>:
   0:	01 11       	rra	r1		
   2:	01 25       	jz	$+516    	;abs 0x206
   4:	0e 13       	reti			;return from interupt
   6:	0b 03       	.word	0x030b;	????	
   8:	0e 1b       	.word	0x1b0e;	????	
   a:	0e 11       	rra	r14		
   c:	01 52       	add	r2,	r1	
   e:	01 55       	add	r5,	r1	
  10:	06 10       	rrc	r6		
  12:	06 00       	.word	0x0006;	????	
  14:	00 02       	.word	0x0200;	????	
  16:	24 00       	.word	0x0024;	????	
  18:	0b 0b       	.word	0x0b0b;	????	
  1a:	3e 0b       	.word	0x0b3e;	????	
  1c:	03 0e       	.word	0x0e03;	????	
  1e:	00 00       	.word	0x0000;	????	
  20:	03 2e       	jc	$-1016   	;abs 0xfc28
  22:	00 3f       	jmp	$-510    	;abs 0xfe24
  24:	0c 03       	.word	0x030c;	????	
  26:	0e 3a       	jl	$-994    	;abs 0xfc44
  28:	0b 3b       	jl	$-488    	;abs 0xfe40
  2a:	0b 27       	jz	$-488    	;abs 0xfe42
  2c:	0c 49       	mov	r9,	r12	
  2e:	13 11       	rra	#1		;r3 As==01
  30:	01 12       	push	r1		
  32:	01 40       	mov	r0,	r1	
  34:	0a 00       	.word	0x000a;	????	
  36:	00 04       	.word	0x0400;	????	
  38:	24 00       	.word	0x0024;	????	
  3a:	0b 0b       	.word	0x0b0b;	????	
  3c:	3e 0b       	.word	0x0b3e;	????	
  3e:	03 08       	.word	0x0803;	????	
  40:	00 00       	.word	0x0000;	????	
  42:	05 2e       	jc	$-1012   	;abs 0xfc4e
  44:	00 3f       	jmp	$-510    	;abs 0xfe46
  46:	0c 03       	.word	0x030c;	????	
  48:	0e 3a       	jl	$-994    	;abs 0xfc66
  4a:	0b 3b       	jl	$-488    	;abs 0xfe62
  4c:	0b 27       	jz	$-488    	;abs 0xfe64
  4e:	0c 11       	rra	r12		
  50:	01 12       	push	r1		
  52:	01 40       	mov	r0,	r1	
  54:	06 00       	.word	0x0006;	????	
  56:	00 06       	.word	0x0600;	????	
  58:	34 00       	.word	0x0034;	????	
  5a:	03 0e       	.word	0x0e03;	????	
  5c:	3a 0b       	.word	0x0b3a;	????	
  5e:	3b 05       	.word	0x053b;	????	
  60:	87 40 0e 49 	mov	r0,	18702(r7);0x490e(r7)
  64:	13 3f       	jmp	$-472    	;abs 0xfe8c
  66:	0c 3c       	jmp	$+26     	;abs 0x80
  68:	0c 00       	.word	0x000c;	????	
  6a:	00 07       	.word	0x0700;	????	
  6c:	35 00       	.word	0x0035;	????	
  6e:	49 13       	.word	0x1349;	????	
  70:	00 00       	.word	0x0000;	????	
  72:	08 26       	jz	$-1006   	;abs 0xfc84
  74:	00 49       	br	r9		
  76:	13 00       	.word	0x0013;	????	
  78:	00 09       	.word	0x0900;	????	
  7a:	34 00       	.word	0x0034;	????	
  7c:	03 0e       	.word	0x0e03;	????	
  7e:	3a 0b       	.word	0x0b3a;	????	
  80:	3b 0b       	.word	0x0b3b;	????	
  82:	49 13       	.word	0x1349;	????	
  84:	3f 0c       	.word	0x0c3f;	????	
  86:	02 0a       	.word	0x0a02;	????	
  88:	00 00       	.word	0x0000;	????	
  8a:	00 01       	.word	0x0100;	????	
  8c:	11 01       	.word	0x0111;	????	
  8e:	25 0e       	.word	0x0e25;	????	
  90:	13 0b       	.word	0x0b13;	????	
  92:	03 0e       	.word	0x0e03;	????	
  94:	1b 0e       	.word	0x0e1b;	????	
  96:	11 01       	.word	0x0111;	????	
  98:	12 01       	.word	0x0112;	????	
  9a:	10 06       	.word	0x0610;	????	
  9c:	00 00       	.word	0x0000;	????	
  9e:	02 24       	jz	$+6      	;abs 0xa4
  a0:	00 0b       	.word	0x0b00;	????	
  a2:	0b 3e       	jmp	$-1000   	;abs 0xfcba
  a4:	0b 03       	.word	0x030b;	????	
  a6:	0e 00       	.word	0x000e;	????	
  a8:	00 03       	.word	0x0300;	????	
  aa:	2e 01       	.word	0x012e;	????	
  ac:	3f 0c       	.word	0x0c3f;	????	
  ae:	03 0e       	.word	0x0e03;	????	
  b0:	3a 0b       	.word	0x0b3a;	????	
  b2:	3b 0b       	.word	0x0b3b;	????	
  b4:	27 0c       	.word	0x0c27;	????	
  b6:	11 01       	.word	0x0111;	????	
  b8:	12 01       	.word	0x0112;	????	
  ba:	40 06       	.word	0x0640;	????	
  bc:	01 13       	reti			;return from interupt
  be:	00 00       	.word	0x0000;	????	
  c0:	04 05       	.word	0x0504;	????	
  c2:	00 03       	.word	0x0300;	????	
  c4:	0e 3a       	jl	$-994    	;abs 0xfce2
  c6:	0b 3b       	jl	$-488    	;abs 0xfede
  c8:	0b 49       	mov	r9,	r11	
  ca:	13 02       	.word	0x0213;	????	
  cc:	0a 00       	.word	0x000a;	????	
  ce:	00 05       	.word	0x0500;	????	
  d0:	0f 00       	.word	0x000f;	????	
  d2:	0b 0b       	.word	0x0b0b;	????	
  d4:	49 13       	.word	0x1349;	????	
  d6:	00 00       	.word	0x0000;	????	
  d8:	06 34       	jge	$+14     	;abs 0xe6
  da:	00 03       	.word	0x0300;	????	
  dc:	0e 3a       	jl	$-994    	;abs 0xfcfa
  de:	0b 3b       	jl	$-488    	;abs 0xfef6
  e0:	0b 87       	sub	r7,	r11	
  e2:	40 0e       	.word	0x0e40;	????	
  e4:	49 13       	.word	0x1349;	????	
  e6:	3f 0c       	.word	0x0c3f;	????	
  e8:	3c 0c       	.word	0x0c3c;	????	
  ea:	00 00       	.word	0x0000;	????	
  ec:	07 35       	jge	$+528    	;abs 0x2fc
  ee:	00 49       	br	r9		
  f0:	13 00       	.word	0x0013;	????	
  f2:	00 00       	.word	0x0000;	????	
  f4:	01 11       	rra	r1		
  f6:	00 10       	rrc	r0		
  f8:	06 11       	rra	r6		
  fa:	01 12       	push	r1		
  fc:	01 03       	.word	0x0301;	????	
  fe:	08 1b       	.word	0x1b08;	????	
 100:	08 25       	jz	$+530    	;abs 0x312
 102:	08 13       	reti			;return from interupt
 104:	05 00       	.word	0x0005;	????	
 106:	00 00       	.word	0x0000;	????	
 108:	01 11       	rra	r1		
 10a:	00 10       	rrc	r0		
 10c:	06 11       	rra	r6		
 10e:	01 12       	push	r1		
 110:	01 03       	.word	0x0301;	????	
 112:	08 1b       	.word	0x1b08;	????	
 114:	08 25       	jz	$+530    	;abs 0x326
 116:	08 13       	reti			;return from interupt
 118:	05 00       	.word	0x0005;	????	
 11a:	00 00       	.word	0x0000;	????	
 11c:	01 11       	rra	r1		
 11e:	00 10       	rrc	r0		
 120:	06 11       	rra	r6		
 122:	01 12       	push	r1		
 124:	01 03       	.word	0x0301;	????	
 126:	08 1b       	.word	0x1b08;	????	
 128:	08 25       	jz	$+530    	;abs 0x33a
 12a:	08 13       	reti			;return from interupt
 12c:	05 00       	.word	0x0005;	????	
 12e:	00 00       	.word	0x0000;	????	
 130:	01 11       	rra	r1		
 132:	00 10       	rrc	r0		
 134:	06 11       	rra	r6		
 136:	01 12       	push	r1		
 138:	01 03       	.word	0x0301;	????	
 13a:	08 1b       	.word	0x1b08;	????	
 13c:	08 25       	jz	$+530    	;abs 0x34e
 13e:	08 13       	reti			;return from interupt
 140:	05 00       	.word	0x0005;	????	
 142:	00 00       	.word	0x0000;	????	
 144:	01 11       	rra	r1		
 146:	00 10       	rrc	r0		
 148:	06 11       	rra	r6		
 14a:	01 12       	push	r1		
 14c:	01 03       	.word	0x0301;	????	
 14e:	08 1b       	.word	0x1b08;	????	
 150:	08 25       	jz	$+530    	;abs 0x362
 152:	08 13       	reti			;return from interupt
 154:	05 00       	.word	0x0005;	????	
 156:	00 00       	.word	0x0000;	????	
 158:	01 11       	rra	r1		
 15a:	00 10       	rrc	r0		
 15c:	06 11       	rra	r6		
 15e:	01 12       	push	r1		
 160:	01 03       	.word	0x0301;	????	
 162:	08 1b       	.word	0x1b08;	????	
 164:	08 25       	jz	$+530    	;abs 0x376
 166:	08 13       	reti			;return from interupt
 168:	05 00       	.word	0x0005;	????	
	...

Disassembly of section .debug_line:

00000000 <.debug_line>:
   0:	99 00       	.word	0x0099;	????	
   2:	00 00       	.word	0x0000;	????	
   4:	02 00       	.word	0x0002;	????	
   6:	61 00       	.word	0x0061;	????	
   8:	00 00       	.word	0x0000;	????	
   a:	01 01       	.word	0x0101;	????	
   c:	fb 0e       	.word	0x0efb;	????	
   e:	0d 00       	.word	0x000d;	????	
  10:	01 01       	.word	0x0101;	????	
  12:	01 01       	.word	0x0101;	????	
  14:	00 00       	.word	0x0000;	????	
  16:	00 01       	.word	0x0100;	????	
  18:	00 00       	.word	0x0000;	????	
  1a:	01 2f       	jc	$-508    	;abs 0xfe1e
  1c:	75 73       	subc.b	#-1,	r5	;r3 As==11
  1e:	72 2f       	jc	$-282    	;abs 0xff04
  20:	6c 69       	addc.b	@r9,	r12	
  22:	62 2f       	jc	$-314    	;abs 0xfee8
  24:	67 63       	addc.b	#2,	r7	;r3 As==10
  26:	63 2f       	jc	$-312    	;abs 0xfeee
  28:	6d 73       	subc.b	#2,	r13	;r3 As==10
  2a:	70 34       	jge	$+226    	;abs 0x10c
  2c:	33 30       	jn	$+104    	;abs 0x94
  2e:	2f 34       	jge	$+96     	;abs 0x8e
  30:	2e 36       	jge	$-930    	;abs 0xfc8e
  32:	2e 33       	jn	$-418    	;abs 0xfe90
  34:	2f 2e       	jc	$-928    	;abs 0xfc94
  36:	2e 2f       	jc	$-418    	;abs 0xfe94
  38:	2e 2e       	jc	$-930    	;abs 0xfc96
  3a:	2f 2e       	jc	$-928    	;abs 0xfc9a
  3c:	2e 2f       	jc	$-418    	;abs 0xfe9a
  3e:	2e 2e       	jc	$-930    	;abs 0xfc9c
  40:	2f 6d       	addc	@r13,	r15	
  42:	73 70       	.word	0x7073;	????	Illegal as 2-op instr
  44:	34 33       	jn	$-406    	;abs 0xfeae
  46:	30 2f       	jc	$-414    	;abs 0xfea8
  48:	69 6e       	addc.b	@r14,	r9	
  4a:	63 6c       	.word	0x6c63;	????	Illegal as 2-op instr
  4c:	75 64       	addc.b	@r4+,	r5	
  4e:	65 00       	.word	0x0065;	????	
  50:	00 61       	addc	r1,	r0	
  52:	35 2e       	jc	$-916    	;abs 0xfcbe
  54:	63 00       	.word	0x0063;	????	
  56:	00 00       	.word	0x0000;	????	
  58:	00 6d       	addc	r13,	r0	
  5a:	73 70       	.word	0x7073;	????	Illegal as 2-op instr
  5c:	34 33       	jn	$-406    	;abs 0xfec6
  5e:	30 67       	addc	@r7+,	r0	
  60:	32 35       	jge	$+614    	;abs 0x2c6
  62:	35 33       	jn	$-404    	;abs 0xfece
  64:	2e 68       	addc	@r8,	r14	
  66:	00 01       	.word	0x0100;	????	
  68:	00 00       	.word	0x0000;	????	
  6a:	00 00       	.word	0x0000;	????	
  6c:	03 02       	.word	0x0203;	????	
  6e:	3e c0 03 0b 	bic	#2819,	r14	;#0x0b03
  72:	01 16       	.word	0x1601;	????	
  74:	bc 67 83 86 	addc	@r7+,	-31101(r12);0x8683(r12)
  78:	4b 9f       	cmp.b	r15,	r11	
  7a:	4b 9f       	cmp.b	r15,	r11	
  7c:	9f 9f be 67 	cmp	26558(r15),26471(r15);0x67be(r15), 0x6767(r15)
  80:	67 67 
  82:	67 4b       	mov.b	@r11,	r7	
  84:	00 02       	.word	0x0200;	????	
  86:	04 01       	.word	0x0104;	????	
  88:	32 02       	.word	0x0232;	????	
  8a:	02 00       	.word	0x0002;	????	
  8c:	01 01       	.word	0x0101;	????	
  8e:	00 03       	.word	0x0300;	????	
  90:	02 c6       	bic	r6,	r2	
  92:	c0 03       	.word	0x03c0;	????	
  94:	2f 01       	.word	0x012f;	????	
  96:	2f 83       	decd	r15		
  98:	02 04       	.word	0x0402;	????	
  9a:	00 01       	.word	0x0100;	????	
  9c:	01 88       	sub	r8,	r1	
  9e:	00 00       	.word	0x0000;	????	
  a0:	00 02       	.word	0x0200;	????	
  a2:	00 62       	addc	r2,	r0	
  a4:	00 00       	.word	0x0000;	????	
  a6:	00 01       	.word	0x0100;	????	
  a8:	01 fb       	and	r11,	r1	
  aa:	0e 0d       	.word	0x0d0e;	????	
  ac:	00 01       	.word	0x0100;	????	
  ae:	01 01       	.word	0x0101;	????	
  b0:	01 00       	.word	0x0001;	????	
  b2:	00 00       	.word	0x0000;	????	
  b4:	01 00       	.word	0x0001;	????	
  b6:	00 01       	.word	0x0100;	????	
  b8:	2f 75       	subc	@r5,	r15	
  ba:	73 72       	.word	0x7273;	????	Illegal as 2-op instr
  bc:	2f 6c       	addc	@r12,	r15	
  be:	69 62       	addc.b	#4,	r9	;r2 As==10
  c0:	2f 67       	addc	@r7,	r15	
  c2:	63 63       	.word	0x6363;	????	Illegal as 2-op instr
  c4:	2f 6d       	addc	@r13,	r15	
  c6:	73 70       	.word	0x7073;	????	Illegal as 2-op instr
  c8:	34 33       	jn	$-406    	;abs 0xff32
  ca:	30 2f       	jc	$-414    	;abs 0xff2c
  cc:	34 2e       	jc	$-918    	;abs 0xfd36
  ce:	36 2e       	jc	$-914    	;abs 0xfd3c
  d0:	33 2f       	jc	$-408    	;abs 0xff38
  d2:	2e 2e       	jc	$-930    	;abs 0xfd30
  d4:	2f 2e       	jc	$-928    	;abs 0xfd34
  d6:	2e 2f       	jc	$-418    	;abs 0xff34
  d8:	2e 2e       	jc	$-930    	;abs 0xfd36
  da:	2f 2e       	jc	$-928    	;abs 0xfd3a
  dc:	2e 2f       	jc	$-418    	;abs 0xff3a
  de:	6d 73       	subc.b	#2,	r13	;r3 As==10
  e0:	70 34       	jge	$+226    	;abs 0x1c2
  e2:	33 30       	jn	$+104    	;abs 0x14a
  e4:	2f 69       	addc	@r9,	r15	
  e6:	6e 63       	addc.b	#2,	r14	;r3 As==10
  e8:	6c 75       	subc.b	@r5,	r12	
  ea:	64 65       	addc.b	@r5,	r4	
  ec:	00 00       	.word	0x0000;	????	
  ee:	64 74       	subc.b	@r4,	r4	
  f0:	63 2e       	jc	$-824    	;abs 0xfdb8
  f2:	63 00       	.word	0x0063;	????	
  f4:	00 00       	.word	0x0000;	????	
  f6:	00 6d       	addc	r13,	r0	
  f8:	73 70       	.word	0x7073;	????	Illegal as 2-op instr
  fa:	34 33       	jn	$-406    	;abs 0xff64
  fc:	30 67       	addc	@r7+,	r0	
  fe:	32 35       	jge	$+614    	;abs 0x364
 100:	35 33       	jn	$-404    	;abs 0xff6c
 102:	2e 68       	addc	@r8,	r14	
 104:	00 01       	.word	0x0100;	????	
 106:	00 00       	.word	0x0000;	????	
 108:	00 00       	.word	0x0000;	????	
 10a:	03 02       	.word	0x0203;	????	
 10c:	d4 c0 14 9f 	bic.b	-24812(r0),26555(r4);PC rel. 0xa022, 0x67bb(r4)
 110:	bb 67 
 112:	00 02       	.word	0x0200;	????	
 114:	04 01       	.word	0x0104;	????	
 116:	06 2e       	jc	$-1010   	;abs 0xfd24
 118:	06 bb       	bit	r11,	r6	
 11a:	4b 4b       	mov.b	r11,	r11	
 11c:	83 bc       	bit	r12,	#1	;r3 As==01
 11e:	a0 02       	.word	0x02a0;	????	
 120:	32 13       	reti			;return from interupt
 122:	9f 9f 02 04 	cmp	1026(r15),256(r15);0x0402(r15), 0x0100(r15)
 126:	00 01 
 128:	01 8b       	sub	r11,	r1	
 12a:	00 00       	.word	0x0000;	????	
 12c:	00 02       	.word	0x0200;	????	
 12e:	00 75       	subc	r5,	r0	
 130:	00 00       	.word	0x0000;	????	
 132:	00 01       	.word	0x0100;	????	
 134:	01 fb       	and	r11,	r1	
 136:	0e 0d       	.word	0x0d0e;	????	
 138:	00 01       	.word	0x0100;	????	
 13a:	01 01       	.word	0x0101;	????	
 13c:	01 00       	.word	0x0001;	????	
 13e:	00 00       	.word	0x0000;	????	
 140:	01 00       	.word	0x0001;	????	
 142:	00 01       	.word	0x0100;	????	
 144:	2f 62       	addc	#4,	r15	;r2 As==10
 146:	75 69       	addc.b	@r9+,	r5	
 148:	6c 64       	addc.b	@r4,	r12	
 14a:	2f 67       	addc	@r7,	r15	
 14c:	63 63       	.word	0x6363;	????	Illegal as 2-op instr
 14e:	2d 6d       	addc	@r13,	r13	
 150:	73 70       	.word	0x7073;	????	Illegal as 2-op instr
 152:	34 33       	jn	$-406    	;abs 0xffbc
 154:	30 2d       	jc	$+610    	;abs 0x3b6
 156:	67 52       	add.b	#4,	r7	;r2 As==10
 158:	42 52       	rla.b	r2		
 15a:	52 6f 2f 67 	addc.b	26415(r15),r2	;0x672f(r15)
 15e:	63 63       	.word	0x6363;	????	Illegal as 2-op instr
 160:	2d 6d       	addc	@r13,	r13	
 162:	73 70       	.word	0x7073;	????	Illegal as 2-op instr
 164:	34 33       	jn	$-406    	;abs 0xffce
 166:	30 2d       	jc	$+610    	;abs 0x3c8
 168:	34 2e       	jc	$-918    	;abs 0xfdd2
 16a:	36 2e       	jc	$-914    	;abs 0xfdd8
 16c:	33 7e       	.word	0x7e33;	????	Illegal as 2-op instr
 16e:	6d 73       	subc.b	#2,	r13	;r3 As==10
 170:	70 67       	addc.b	@r7+,	r0	
 172:	63 63       	.word	0x6363;	????	Illegal as 2-op instr
 174:	2d 32       	jn	$-932    	;abs 0xfdd0
 176:	30 31       	jn	$+610    	;abs 0x3d8
 178:	32 30       	jn	$+102    	;abs 0x1de
 17a:	34 30       	jn	$+106    	;abs 0x1e4
 17c:	36 2f       	jc	$-402    	;abs 0xffea
 17e:	2e 2f       	jc	$-418    	;abs 0xffdc
 180:	67 63       	addc.b	#2,	r7	;r3 As==10
 182:	63 2d       	jc	$+712    	;abs 0x44a
 184:	34 2e       	jc	$-918    	;abs 0xfdee
 186:	36 2e       	jc	$-914    	;abs 0xfdf4
 188:	33 2f       	jc	$-408    	;abs 0xfff0
 18a:	67 63       	addc.b	#2,	r7	;r3 As==10
 18c:	63 2f       	jc	$-312    	;abs 0x54
 18e:	63 6f       	.word	0x6f63;	????	Illegal as 2-op instr
 190:	6e 66       	addc.b	@r6,	r14	
 192:	69 67       	addc.b	@r7,	r9	
 194:	2f 6d       	addc	@r13,	r15	
 196:	73 70       	.word	0x7073;	????	Illegal as 2-op instr
 198:	34 33       	jn	$-406    	;abs 0x2
 19a:	30 00       	.word	0x0030;	????	
 19c:	00 63       	adc	r0		
 19e:	72 74       	subc.b	@r4+,	r2	
 1a0:	30 2e       	jc	$-926    	;abs 0xfe02
 1a2:	53 00       	.word	0x0053;	????	
 1a4:	01 00       	.word	0x0001;	????	
 1a6:	00 00       	.word	0x0000;	????	
 1a8:	00 03       	.word	0x0300;	????	
 1aa:	02 00       	.word	0x0002;	????	
 1ac:	c0 03       	.word	0x03c0;	????	
 1ae:	e8 00       	.word	0x00e8;	????	
 1b0:	01 4b       	mov	r11,	r1	
 1b2:	4b 02       	.word	0x024b;	????	
 1b4:	04 00       	.word	0x0004;	????	
 1b6:	01 01       	.word	0x0101;	????	
 1b8:	89 00       	.word	0x0089;	????	
 1ba:	00 00       	.word	0x0000;	????	
 1bc:	02 00       	.word	0x0002;	????	
 1be:	75 00       	.word	0x0075;	????	
 1c0:	00 00       	.word	0x0000;	????	
 1c2:	01 01       	.word	0x0101;	????	
 1c4:	fb 0e       	.word	0x0efb;	????	
 1c6:	0d 00       	.word	0x000d;	????	
 1c8:	01 01       	.word	0x0101;	????	
 1ca:	01 01       	.word	0x0101;	????	
 1cc:	00 00       	.word	0x0000;	????	
 1ce:	00 01       	.word	0x0100;	????	
 1d0:	00 00       	.word	0x0000;	????	
 1d2:	01 2f       	jc	$-508    	;abs 0xffd6
 1d4:	62 75       	subc.b	@r5,	r2	
 1d6:	69 6c       	addc.b	@r12,	r9	
 1d8:	64 2f       	jc	$-310    	;abs 0xa2
 1da:	67 63       	addc.b	#2,	r7	;r3 As==10
 1dc:	63 2d       	jc	$+712    	;abs 0x4a4
 1de:	6d 73       	subc.b	#2,	r13	;r3 As==10
 1e0:	70 34       	jge	$+226    	;abs 0x2c2
 1e2:	33 30       	jn	$+104    	;abs 0x24a
 1e4:	2d 67       	addc	@r7,	r13	
 1e6:	52 42 52 52 	mov.b	&0x5252,r2	
 1ea:	6f 2f       	jc	$-288    	;abs 0xca
 1ec:	67 63       	addc.b	#2,	r7	;r3 As==10
 1ee:	63 2d       	jc	$+712    	;abs 0x4b6
 1f0:	6d 73       	subc.b	#2,	r13	;r3 As==10
 1f2:	70 34       	jge	$+226    	;abs 0x2d4
 1f4:	33 30       	jn	$+104    	;abs 0x25c
 1f6:	2d 34       	jge	$+92     	;abs 0x252
 1f8:	2e 36       	jge	$-930    	;abs 0xfe56
 1fa:	2e 33       	jn	$-418    	;abs 0x58
 1fc:	7e 6d       	addc.b	@r13+,	r14	
 1fe:	73 70       	.word	0x7073;	????	Illegal as 2-op instr
 200:	67 63       	addc.b	#2,	r7	;r3 As==10
 202:	63 2d       	jc	$+712    	;abs 0x4ca
 204:	32 30       	jn	$+102    	;abs 0x26a
 206:	31 32       	jn	$-924    	;abs 0xfe6a
 208:	30 34       	jge	$+98     	;abs 0x26a
 20a:	30 36       	jge	$-926    	;abs 0xfe6c
 20c:	2f 2e       	jc	$-928    	;abs 0xfe6c
 20e:	2f 67       	addc	@r7,	r15	
 210:	63 63       	.word	0x6363;	????	Illegal as 2-op instr
 212:	2d 34       	jge	$+92     	;abs 0x26e
 214:	2e 36       	jge	$-930    	;abs 0xfe72
 216:	2e 33       	jn	$-418    	;abs 0x74
 218:	2f 67       	addc	@r7,	r15	
 21a:	63 63       	.word	0x6363;	????	Illegal as 2-op instr
 21c:	2f 63       	addc	#2,	r15	;r3 As==10
 21e:	6f 6e       	addc.b	@r14,	r15	
 220:	66 69       	addc.b	@r9,	r6	
 222:	67 2f       	jc	$-304    	;abs 0xf2
 224:	6d 73       	subc.b	#2,	r13	;r3 As==10
 226:	70 34       	jge	$+226    	;abs 0x308
 228:	33 30       	jn	$+104    	;abs 0x290
 22a:	00 00       	.word	0x0000;	????	
 22c:	63 72       	.word	0x7263;	????	Illegal as 2-op instr
 22e:	74 30       	jn	$+234    	;abs 0x318
 230:	2e 53       	incd	r14		
 232:	00 01       	.word	0x0100;	????	
 234:	00 00       	.word	0x0000;	????	
 236:	00 00       	.word	0x0000;	????	
 238:	03 02       	.word	0x0203;	????	
 23a:	0c c0       	bic	r0,	r12	
 23c:	03 99       	.word	0x9903;	????	Illegal as 2-op instr
 23e:	01 01       	.word	0x0101;	????	
 240:	02 04       	.word	0x0402;	????	
 242:	00 01       	.word	0x0100;	????	
 244:	01 8f       	sub	r15,	r1	
 246:	00 00       	.word	0x0000;	????	
 248:	00 02       	.word	0x0200;	????	
 24a:	00 75       	subc	r5,	r0	
 24c:	00 00       	.word	0x0000;	????	
 24e:	00 01       	.word	0x0100;	????	
 250:	01 fb       	and	r11,	r1	
 252:	0e 0d       	.word	0x0d0e;	????	
 254:	00 01       	.word	0x0100;	????	
 256:	01 01       	.word	0x0101;	????	
 258:	01 00       	.word	0x0001;	????	
 25a:	00 00       	.word	0x0000;	????	
 25c:	01 00       	.word	0x0001;	????	
 25e:	00 01       	.word	0x0100;	????	
 260:	2f 62       	addc	#4,	r15	;r2 As==10
 262:	75 69       	addc.b	@r9+,	r5	
 264:	6c 64       	addc.b	@r4,	r12	
 266:	2f 67       	addc	@r7,	r15	
 268:	63 63       	.word	0x6363;	????	Illegal as 2-op instr
 26a:	2d 6d       	addc	@r13,	r13	
 26c:	73 70       	.word	0x7073;	????	Illegal as 2-op instr
 26e:	34 33       	jn	$-406    	;abs 0xd8
 270:	30 2d       	jc	$+610    	;abs 0x4d2
 272:	67 52       	add.b	#4,	r7	;r2 As==10
 274:	42 52       	rla.b	r2		
 276:	52 6f 2f 67 	addc.b	26415(r15),r2	;0x672f(r15)
 27a:	63 63       	.word	0x6363;	????	Illegal as 2-op instr
 27c:	2d 6d       	addc	@r13,	r13	
 27e:	73 70       	.word	0x7073;	????	Illegal as 2-op instr
 280:	34 33       	jn	$-406    	;abs 0xea
 282:	30 2d       	jc	$+610    	;abs 0x4e4
 284:	34 2e       	jc	$-918    	;abs 0xfeee
 286:	36 2e       	jc	$-914    	;abs 0xfef4
 288:	33 7e       	.word	0x7e33;	????	Illegal as 2-op instr
 28a:	6d 73       	subc.b	#2,	r13	;r3 As==10
 28c:	70 67       	addc.b	@r7+,	r0	
 28e:	63 63       	.word	0x6363;	????	Illegal as 2-op instr
 290:	2d 32       	jn	$-932    	;abs 0xfeec
 292:	30 31       	jn	$+610    	;abs 0x4f4
 294:	32 30       	jn	$+102    	;abs 0x2fa
 296:	34 30       	jn	$+106    	;abs 0x300
 298:	36 2f       	jc	$-402    	;abs 0x106
 29a:	2e 2f       	jc	$-418    	;abs 0xf8
 29c:	67 63       	addc.b	#2,	r7	;r3 As==10
 29e:	63 2d       	jc	$+712    	;abs 0x566
 2a0:	34 2e       	jc	$-918    	;abs 0xff0a
 2a2:	36 2e       	jc	$-914    	;abs 0xff10
 2a4:	33 2f       	jc	$-408    	;abs 0x10c
 2a6:	67 63       	addc.b	#2,	r7	;r3 As==10
 2a8:	63 2f       	jc	$-312    	;abs 0x170
 2aa:	63 6f       	.word	0x6f63;	????	Illegal as 2-op instr
 2ac:	6e 66       	addc.b	@r6,	r14	
 2ae:	69 67       	addc.b	@r7,	r9	
 2b0:	2f 6d       	addc	@r13,	r15	
 2b2:	73 70       	.word	0x7073;	????	Illegal as 2-op instr
 2b4:	34 33       	jn	$-406    	;abs 0x11e
 2b6:	30 00       	.word	0x0030;	????	
 2b8:	00 63       	adc	r0		
 2ba:	72 74       	subc.b	@r4+,	r2	
 2bc:	30 2e       	jc	$-926    	;abs 0xff1e
 2be:	53 00       	.word	0x0053;	????	
 2c0:	01 00       	.word	0x0001;	????	
 2c2:	00 00       	.word	0x0000;	????	
 2c4:	00 03       	.word	0x0300;	????	
 2c6:	02 10       	rrc	r2		
 2c8:	c0 03       	.word	0x03c0;	????	
 2ca:	bc 01       	.word	0x01bc;	????	
 2cc:	01 4b       	mov	r11,	r1	
 2ce:	2f 30       	jn	$+96     	;abs 0x32e
 2d0:	67 2f       	jc	$-304    	;abs 0x1a0
 2d2:	67 02       	.word	0x0267;	????	
 2d4:	02 00       	.word	0x0002;	????	
 2d6:	01 01       	.word	0x0101;	????	
 2d8:	8f 00       	.word	0x008f;	????	
 2da:	00 00       	.word	0x0000;	????	
 2dc:	02 00       	.word	0x0002;	????	
 2de:	75 00       	.word	0x0075;	????	
 2e0:	00 00       	.word	0x0000;	????	
 2e2:	01 01       	.word	0x0101;	????	
 2e4:	fb 0e       	.word	0x0efb;	????	
 2e6:	0d 00       	.word	0x000d;	????	
 2e8:	01 01       	.word	0x0101;	????	
 2ea:	01 01       	.word	0x0101;	????	
 2ec:	00 00       	.word	0x0000;	????	
 2ee:	00 01       	.word	0x0100;	????	
 2f0:	00 00       	.word	0x0000;	????	
 2f2:	01 2f       	jc	$-508    	;abs 0xf6
 2f4:	62 75       	subc.b	@r5,	r2	
 2f6:	69 6c       	addc.b	@r12,	r9	
 2f8:	64 2f       	jc	$-310    	;abs 0x1c2
 2fa:	67 63       	addc.b	#2,	r7	;r3 As==10
 2fc:	63 2d       	jc	$+712    	;abs 0x5c4
 2fe:	6d 73       	subc.b	#2,	r13	;r3 As==10
 300:	70 34       	jge	$+226    	;abs 0x3e2
 302:	33 30       	jn	$+104    	;abs 0x36a
 304:	2d 67       	addc	@r7,	r13	
 306:	52 42 52 52 	mov.b	&0x5252,r2	
 30a:	6f 2f       	jc	$-288    	;abs 0x1ea
 30c:	67 63       	addc.b	#2,	r7	;r3 As==10
 30e:	63 2d       	jc	$+712    	;abs 0x5d6
 310:	6d 73       	subc.b	#2,	r13	;r3 As==10
 312:	70 34       	jge	$+226    	;abs 0x3f4
 314:	33 30       	jn	$+104    	;abs 0x37c
 316:	2d 34       	jge	$+92     	;abs 0x372
 318:	2e 36       	jge	$-930    	;abs 0xff76
 31a:	2e 33       	jn	$-418    	;abs 0x178
 31c:	7e 6d       	addc.b	@r13+,	r14	
 31e:	73 70       	.word	0x7073;	????	Illegal as 2-op instr
 320:	67 63       	addc.b	#2,	r7	;r3 As==10
 322:	63 2d       	jc	$+712    	;abs 0x5ea
 324:	32 30       	jn	$+102    	;abs 0x38a
 326:	31 32       	jn	$-924    	;abs 0xff8a
 328:	30 34       	jge	$+98     	;abs 0x38a
 32a:	30 36       	jge	$-926    	;abs 0xff8c
 32c:	2f 2e       	jc	$-928    	;abs 0xff8c
 32e:	2f 67       	addc	@r7,	r15	
 330:	63 63       	.word	0x6363;	????	Illegal as 2-op instr
 332:	2d 34       	jge	$+92     	;abs 0x38e
 334:	2e 36       	jge	$-930    	;abs 0xff92
 336:	2e 33       	jn	$-418    	;abs 0x194
 338:	2f 67       	addc	@r7,	r15	
 33a:	63 63       	.word	0x6363;	????	Illegal as 2-op instr
 33c:	2f 63       	addc	#2,	r15	;r3 As==10
 33e:	6f 6e       	addc.b	@r14,	r15	
 340:	66 69       	addc.b	@r9,	r6	
 342:	67 2f       	jc	$-304    	;abs 0x212
 344:	6d 73       	subc.b	#2,	r13	;r3 As==10
 346:	70 34       	jge	$+226    	;abs 0x428
 348:	33 30       	jn	$+104    	;abs 0x3b0
 34a:	00 00       	.word	0x0000;	????	
 34c:	63 72       	.word	0x7263;	????	Illegal as 2-op instr
 34e:	74 30       	jn	$+234    	;abs 0x438
 350:	2e 53       	incd	r14		
 352:	00 01       	.word	0x0100;	????	
 354:	00 00       	.word	0x0000;	????	
 356:	00 00       	.word	0x0000;	????	
 358:	03 02       	.word	0x0203;	????	
 35a:	28 c0       	bic	@r0,	r8	
 35c:	03 d6       	.word	0xd603;	????	Illegal as 2-op instr
 35e:	01 01       	.word	0x0101;	????	
 360:	4b 2f       	jc	$-360    	;abs 0x1f8
 362:	30 67       	addc	@r7+,	r0	
 364:	2f 4b       	mov	@r11,	r15	
 366:	02 02       	.word	0x0202;	????	
 368:	00 01       	.word	0x0100;	????	
 36a:	01 8a       	sub	r10,	r1	
 36c:	00 00       	.word	0x0000;	????	
 36e:	00 02       	.word	0x0200;	????	
 370:	00 75       	subc	r5,	r0	
 372:	00 00       	.word	0x0000;	????	
 374:	00 01       	.word	0x0100;	????	
 376:	01 fb       	and	r11,	r1	
 378:	0e 0d       	.word	0x0d0e;	????	
 37a:	00 01       	.word	0x0100;	????	
 37c:	01 01       	.word	0x0101;	????	
 37e:	01 00       	.word	0x0001;	????	
 380:	00 00       	.word	0x0000;	????	
 382:	01 00       	.word	0x0001;	????	
 384:	00 01       	.word	0x0100;	????	
 386:	2f 62       	addc	#4,	r15	;r2 As==10
 388:	75 69       	addc.b	@r9+,	r5	
 38a:	6c 64       	addc.b	@r4,	r12	
 38c:	2f 67       	addc	@r7,	r15	
 38e:	63 63       	.word	0x6363;	????	Illegal as 2-op instr
 390:	2d 6d       	addc	@r13,	r13	
 392:	73 70       	.word	0x7073;	????	Illegal as 2-op instr
 394:	34 33       	jn	$-406    	;abs 0x1fe
 396:	30 2d       	jc	$+610    	;abs 0x5f8
 398:	67 52       	add.b	#4,	r7	;r2 As==10
 39a:	42 52       	rla.b	r2		
 39c:	52 6f 2f 67 	addc.b	26415(r15),r2	;0x672f(r15)
 3a0:	63 63       	.word	0x6363;	????	Illegal as 2-op instr
 3a2:	2d 6d       	addc	@r13,	r13	
 3a4:	73 70       	.word	0x7073;	????	Illegal as 2-op instr
 3a6:	34 33       	jn	$-406    	;abs 0x210
 3a8:	30 2d       	jc	$+610    	;abs 0x60a
 3aa:	34 2e       	jc	$-918    	;abs 0x14
 3ac:	36 2e       	jc	$-914    	;abs 0x1a
 3ae:	33 7e       	.word	0x7e33;	????	Illegal as 2-op instr
 3b0:	6d 73       	subc.b	#2,	r13	;r3 As==10
 3b2:	70 67       	addc.b	@r7+,	r0	
 3b4:	63 63       	.word	0x6363;	????	Illegal as 2-op instr
 3b6:	2d 32       	jn	$-932    	;abs 0x12
 3b8:	30 31       	jn	$+610    	;abs 0x61a
 3ba:	32 30       	jn	$+102    	;abs 0x420
 3bc:	34 30       	jn	$+106    	;abs 0x426
 3be:	36 2f       	jc	$-402    	;abs 0x22c
 3c0:	2e 2f       	jc	$-418    	;abs 0x21e
 3c2:	67 63       	addc.b	#2,	r7	;r3 As==10
 3c4:	63 2d       	jc	$+712    	;abs 0x68c
 3c6:	34 2e       	jc	$-918    	;abs 0x30
 3c8:	36 2e       	jc	$-914    	;abs 0x36
 3ca:	33 2f       	jc	$-408    	;abs 0x232
 3cc:	67 63       	addc.b	#2,	r7	;r3 As==10
 3ce:	63 2f       	jc	$-312    	;abs 0x296
 3d0:	63 6f       	.word	0x6f63;	????	Illegal as 2-op instr
 3d2:	6e 66       	addc.b	@r6,	r14	
 3d4:	69 67       	addc.b	@r7,	r9	
 3d6:	2f 6d       	addc	@r13,	r15	
 3d8:	73 70       	.word	0x7073;	????	Illegal as 2-op instr
 3da:	34 33       	jn	$-406    	;abs 0x244
 3dc:	30 00       	.word	0x0030;	????	
 3de:	00 63       	adc	r0		
 3e0:	72 74       	subc.b	@r4+,	r2	
 3e2:	30 2e       	jc	$-926    	;abs 0x44
 3e4:	53 00       	.word	0x0053;	????	
 3e6:	01 00       	.word	0x0001;	????	
 3e8:	00 00       	.word	0x0000;	????	
 3ea:	00 03       	.word	0x0300;	????	
 3ec:	02 bc       	bit	r12,	r2	
 3ee:	c0 03       	.word	0x03c0;	????	
 3f0:	fe 01       	.word	0x01fe;	????	
 3f2:	01 4b       	mov	r11,	r1	
 3f4:	02 02       	.word	0x0202;	????	
 3f6:	00 01       	.word	0x0100;	????	
 3f8:	01 89       	sub	r9,	r1	
 3fa:	00 00       	.word	0x0000;	????	
 3fc:	00 02       	.word	0x0200;	????	
 3fe:	00 75       	subc	r5,	r0	
 400:	00 00       	.word	0x0000;	????	
 402:	00 01       	.word	0x0100;	????	
 404:	01 fb       	and	r11,	r1	
 406:	0e 0d       	.word	0x0d0e;	????	
 408:	00 01       	.word	0x0100;	????	
 40a:	01 01       	.word	0x0101;	????	
 40c:	01 00       	.word	0x0001;	????	
 40e:	00 00       	.word	0x0000;	????	
 410:	01 00       	.word	0x0001;	????	
 412:	00 01       	.word	0x0100;	????	
 414:	2f 62       	addc	#4,	r15	;r2 As==10
 416:	75 69       	addc.b	@r9+,	r5	
 418:	6c 64       	addc.b	@r4,	r12	
 41a:	2f 67       	addc	@r7,	r15	
 41c:	63 63       	.word	0x6363;	????	Illegal as 2-op instr
 41e:	2d 6d       	addc	@r13,	r13	
 420:	73 70       	.word	0x7073;	????	Illegal as 2-op instr
 422:	34 33       	jn	$-406    	;abs 0x28c
 424:	30 2d       	jc	$+610    	;abs 0x686
 426:	67 52       	add.b	#4,	r7	;r2 As==10
 428:	42 52       	rla.b	r2		
 42a:	52 6f 2f 67 	addc.b	26415(r15),r2	;0x672f(r15)
 42e:	63 63       	.word	0x6363;	????	Illegal as 2-op instr
 430:	2d 6d       	addc	@r13,	r13	
 432:	73 70       	.word	0x7073;	????	Illegal as 2-op instr
 434:	34 33       	jn	$-406    	;abs 0x29e
 436:	30 2d       	jc	$+610    	;abs 0x698
 438:	34 2e       	jc	$-918    	;abs 0xa2
 43a:	36 2e       	jc	$-914    	;abs 0xa8
 43c:	33 7e       	.word	0x7e33;	????	Illegal as 2-op instr
 43e:	6d 73       	subc.b	#2,	r13	;r3 As==10
 440:	70 67       	addc.b	@r7+,	r0	
 442:	63 63       	.word	0x6363;	????	Illegal as 2-op instr
 444:	2d 32       	jn	$-932    	;abs 0xa0
 446:	30 31       	jn	$+610    	;abs 0x6a8
 448:	32 30       	jn	$+102    	;abs 0x4ae
 44a:	34 30       	jn	$+106    	;abs 0x4b4
 44c:	36 2f       	jc	$-402    	;abs 0x2ba
 44e:	2e 2f       	jc	$-418    	;abs 0x2ac
 450:	67 63       	addc.b	#2,	r7	;r3 As==10
 452:	63 2d       	jc	$+712    	;abs 0x71a
 454:	34 2e       	jc	$-918    	;abs 0xbe
 456:	36 2e       	jc	$-914    	;abs 0xc4
 458:	33 2f       	jc	$-408    	;abs 0x2c0
 45a:	67 63       	addc.b	#2,	r7	;r3 As==10
 45c:	63 2f       	jc	$-312    	;abs 0x324
 45e:	63 6f       	.word	0x6f63;	????	Illegal as 2-op instr
 460:	6e 66       	addc.b	@r6,	r14	
 462:	69 67       	addc.b	@r7,	r9	
 464:	2f 6d       	addc	@r13,	r15	
 466:	73 70       	.word	0x7073;	????	Illegal as 2-op instr
 468:	34 33       	jn	$-406    	;abs 0x2d2
 46a:	30 00       	.word	0x0030;	????	
 46c:	00 63       	adc	r0		
 46e:	72 74       	subc.b	@r4+,	r2	
 470:	30 2e       	jc	$-926    	;abs 0xd2
 472:	53 00       	.word	0x0053;	????	
 474:	01 00       	.word	0x0001;	????	
 476:	00 00       	.word	0x0000;	????	
 478:	00 03       	.word	0x0300;	????	
 47a:	02 6e       	addc	r14,	r2	
 47c:	c1 03       	.word	0x03c1;	????	
 47e:	cd 02       	.word	0x02cd;	????	
 480:	01 02       	.word	0x0201;	????	
 482:	02 00       	.word	0x0002;	????	
 484:	01 01       	.word	0x0101;	????	

Disassembly of section .debug_frame:

00000000 <.debug_frame>:
   0:	0e 00       	.word	0x000e;	????	
   2:	00 00       	.word	0x0000;	????	
   4:	ff ff ff ff 	and.b	@r15+,	-1(r15)	;0xffff(r15)
   8:	01 00       	.word	0x0001;	????	
   a:	01 7e       	subc	r14,	r1	
   c:	00 0c       	.word	0x0c00;	????	
   e:	01 02       	.word	0x0201;	????	
  10:	80 01       	.word	0x0180;	????	
  12:	08 00       	.word	0x0008;	????	
  14:	00 00       	.word	0x0000;	????	
  16:	00 00       	.word	0x0000;	????	
  18:	00 00       	.word	0x0000;	????	
  1a:	3e c0 7e 00 	bic	#126,	r14	;#0x007e
  1e:	0e 00       	.word	0x000e;	????	
  20:	00 00       	.word	0x0000;	????	
  22:	00 00       	.word	0x0000;	????	
  24:	00 00       	.word	0x0000;	????	
  26:	c6 c0 0e 00 	bic.b	r0,	14(r6)	;0x000e(r6)
  2a:	42 0e       	.word	0x0e42;	????	
  2c:	04 8f       	sub	r15,	r4	
  2e:	02 00       	.word	0x0002;	????	
  30:	0e 00       	.word	0x000e;	????	
  32:	00 00       	.word	0x0000;	????	
  34:	ff ff ff ff 	and.b	@r15+,	-1(r15)	;0xffff(r15)
  38:	01 00       	.word	0x0001;	????	
  3a:	01 7e       	subc	r14,	r1	
  3c:	00 0c       	.word	0x0c00;	????	
  3e:	01 02       	.word	0x0201;	????	
  40:	80 01       	.word	0x0180;	????	
  42:	0c 00       	.word	0x000c;	????	
  44:	00 00       	.word	0x0000;	????	
  46:	30 00       	.word	0x0030;	????	
  48:	00 00       	.word	0x0000;	????	
  4a:	d4 c0 9a 00 	bic.b	154(r0),3650(r4);PC rel. 0x00e6, 0x0e42(r4)
  4e:	42 0e 
  50:	06 00       	.word	0x0006;	????	

Disassembly of section .debug_str:

00000000 <.debug_str>:
   0:	54 69 6d 65 	addc.b	25965(r9),r4	;0x656d(r9)
   4:	72 30       	jn	$+230    	;abs 0xea
   6:	5f 41 30 5f 	mov.b	24368(r1),r15	;0x5f30(r1)
   a:	49 53       	add.b	#0,	r9	;r3 As==00
   c:	52 00       	.word	0x0052;	????	
   e:	5f 5f 42 43 	add.b	17218(r15),r15	;0x4342(r15)
  12:	53 43       	.word	0x4353;	????	Illegal as 2-op instr
  14:	54 4c 31 00 	mov.b	49(r12),r4	;0x0031(r12)
  18:	61 35       	jge	$+708    	;abs 0x2dc
  1a:	2e 63       	addc	#2,	r14	;r3 As==10
  1c:	00 5f       	add	r15,	r0	
  1e:	5f 54 41 30 	add.b	12353(r4),r15	;0x3041(r4)
  22:	43 43       	clr.b	#0		;r3 As==00
  24:	52 30       	jn	$+166    	;abs 0xca
  26:	00 5f       	add	r15,	r0	
  28:	5f 50 31 44 	add.b	17457(r0),r15	;PC rel. 0x445b
  2c:	49 52       	add.b	r2,	r9	
  2e:	00 5f       	add	r15,	r0	
  30:	5f 54 41 30 	add.b	12353(r4),r15	;0x3041(r4)
  34:	43 54       	.word	0x5443;	????	Illegal as 2-op instr
  36:	4c 00       	.word	0x004c;	????	
  38:	6d 6f       	addc.b	@r15,	r13	
  3a:	64 65       	addc.b	@r5,	r4	
  3c:	00 47       	br	r7		
  3e:	4e 55       	add.b	r5,	r14	
  40:	20 43       	br	#2		;r3 As==10
  42:	20 34       	jge	$+66     	;abs 0x84
  44:	2e 36       	jge	$-930    	;abs 0xfca2
  46:	2e 33       	jn	$-418    	;abs 0xfea4
  48:	20 32       	jn	$-958    	;abs 0xfc8a
  4a:	30 31       	jn	$+610    	;abs 0x2ac
  4c:	32 30       	jn	$+102    	;abs 0xb2
  4e:	33 30       	jn	$+104    	;abs 0xb6
  50:	31 20       	jnz	$+100    	;abs 0xb4
  52:	28 6d       	addc	@r13,	r8	
  54:	73 70       	.word	0x7073;	????	Illegal as 2-op instr
  56:	67 63       	addc.b	#2,	r7	;r3 As==10
  58:	63 20       	jnz	$+200    	;abs 0x120
  5a:	4c 54       	add.b	r4,	r12	
  5c:	53 20       	jnz	$+168    	;abs 0x104
  5e:	32 30       	jn	$+102    	;abs 0xc4
  60:	31 32       	jn	$-924    	;abs 0xfcc4
  62:	30 34       	jge	$+98     	;abs 0xc4
  64:	30 36       	jge	$-926    	;abs 0xfcc6
  66:	20 75       	subc	@r5,	r0	
  68:	6e 70       	subc.b	@r0,	r14	
  6a:	61 74       	subc.b	@r4,	r1	
  6c:	63 68       	.word	0x6863;	????	Illegal as 2-op instr
  6e:	65 64       	addc.b	@r4,	r5	
  70:	29 00       	.word	0x0029;	????	
  72:	5f 5f 54 41 	add.b	16724(r15),r15	;0x4154(r15)
  76:	30 43       	br	#-1		;r3 As==11
  78:	43 52       	.word	0x5243;	????	Illegal as 2-op instr
  7a:	31 00       	.word	0x0031;	????	
  7c:	5f 5f 50 31 	add.b	12624(r15),r15	;0x3150(r15)
  80:	49 45       	mov.b	r5,	r9	
  82:	00 5f       	add	r15,	r0	
  84:	5f 54 41 30 	add.b	12353(r4),r15	;0x3041(r4)
  88:	43 43       	clr.b	#0		;r3 As==00
  8a:	54 4c 30 00 	mov.b	48(r12),r4	;0x0030(r12)
  8e:	5f 5f 54 41 	add.b	16724(r15),r15	;0x4154(r15)
  92:	30 43       	br	#-1		;r3 As==11
  94:	43 54       	.word	0x5443;	????	Illegal as 2-op instr
  96:	4c 31       	jn	$+666    	;abs 0x330
  98:	00 5f       	add	r15,	r0	
  9a:	5f 43       	mov.b	#1,	r15	;r3 As==01
  9c:	41 4c       	mov.b	r12,	r1	
  9e:	42 43       	clr.b	r2		
  a0:	31 5f       	add	@r15+,	r1	
  a2:	31 4d       	mov	@r13+,	r1	
  a4:	48 5a       	add.b	r10,	r8	
  a6:	00 75       	subc	r5,	r0	
  a8:	6e 73       	subc.b	#2,	r14	;r3 As==10
  aa:	69 67       	addc.b	@r7,	r9	
  ac:	6e 65       	addc.b	@r5,	r14	
  ae:	64 20       	jnz	$+202    	;abs 0x178
  b0:	63 68       	.word	0x6863;	????	Illegal as 2-op instr
  b2:	61 72       	subc.b	#4,	r1	;r2 As==10
  b4:	00 5f       	add	r15,	r0	
  b6:	5f 44 43 4f 	mov.b	20291(r4),r15	;0x4f43(r4)
  ba:	43 54       	.word	0x5443;	????	Illegal as 2-op instr
  bc:	4c 00       	.word	0x004c;	????	
  be:	6d 61       	addc.b	@r1,	r13	
  c0:	69 6e       	addc.b	@r14,	r9	
  c2:	00 5f       	add	r15,	r0	
  c4:	5f 43       	mov.b	#1,	r15	;r3 As==01
  c6:	41 4c       	mov.b	r12,	r1	
  c8:	44 43       	clr.b	r4		
  ca:	4f 5f       	rla.b	r15		
  cc:	31 4d       	mov	@r13+,	r1	
  ce:	48 5a       	add.b	r10,	r8	
  d0:	00 5f       	add	r15,	r0	
  d2:	5f 50 31 49 	add.b	18737(r0),r15	;PC rel. 0x4a05
  d6:	46 47       	mov.b	r7,	r6	
  d8:	00 2f       	jc	$-510    	;abs 0xfeda
  da:	68 6f       	addc.b	@r15,	r8	
  dc:	6d 65       	addc.b	@r5,	r13	
  de:	2f 72       	subc	#4,	r15	;r2 As==10
  e0:	65 70       	subc.b	@r0,	r5	
  e2:	74 61       	addc.b	@r1+,	r4	
  e4:	72 2f       	jc	$-282    	;abs 0xffca
  e6:	44 6f       	addc.b	r15,	r4	
  e8:	63 75       	.word	0x7563;	????	Illegal as 2-op instr
  ea:	6d 65       	addc.b	@r5,	r13	
  ec:	6e 74       	subc.b	@r4,	r14	
  ee:	73 2f       	jc	$-280    	;abs 0xffd6
  f0:	53 65       	.word	0x6553;	????	Illegal as 2-op instr
  f2:	6e 69       	addc.b	@r9,	r14	
  f4:	6f 72       	subc.b	#4,	r15	;r2 As==10
  f6:	2d 44       	mov	@r4,	r13	
  f8:	65 73       	subc.b	#2,	r5	;r3 As==10
  fa:	69 67       	addc.b	@r7,	r9	
  fc:	6e 2f       	jc	$-290    	;abs 0xffda
  fe:	53 65       	.word	0x6553;	????	Illegal as 2-op instr
 100:	6d 65       	addc.b	@r5,	r13	
 102:	73 74       	.word	0x7473;	????	Illegal as 2-op instr
 104:	65 72       	subc.b	#4,	r5	;r2 As==10
 106:	20 32       	jn	$-958    	;abs 0xfd48
 108:	2f 45       	mov	@r5,	r15	
 10a:	44 4d       	mov.b	r13,	r4	
 10c:	4d 53       	add.b	#0,	r13	;r3 As==00
 10e:	2d 54       	add	@r4,	r13	
 110:	65 6d       	addc.b	@r13,	r5	
 112:	70 65       	addc.b	@r5+,	r0	
 114:	72 61       	addc.b	@r1+,	r2	
 116:	74 75       	subc.b	@r5+,	r4	
 118:	72 65       	addc.b	@r5+,	r2	
 11a:	2d 43       	mov	#2,	r13	;r3 As==10
 11c:	6f 6e       	addc.b	@r14,	r15	
 11e:	74 72       	subc.b	#8,	r4	;r2 As==11
 120:	6f 6c       	addc.b	@r12,	r15	
 122:	6c 65       	addc.b	@r5,	r12	
 124:	72 2f       	jc	$-282    	;abs 0xa
 126:	4c 45       	mov.b	r5,	r12	
 128:	44 2d       	jc	$+650    	;abs 0x3b2
 12a:	64 69       	addc.b	@r9,	r4	
 12c:	6d 6d       	addc.b	@r13,	r13	
 12e:	65 72       	subc.b	#4,	r5	;r2 As==10
 130:	00 5f       	add	r15,	r0	
 132:	5f 50 31 49 	add.b	18737(r0),r15	;PC rel. 0x4a65
 136:	45 53       	add.b	#0,	r5	;r3 As==00
 138:	00 5f       	add	r15,	r0	
 13a:	5f 50 31 4f 	add.b	20273(r0),r15	;PC rel. 0x506d
 13e:	55 54 00 5f 	add.b	24320(r4),r5	;0x5f00(r4)
 142:	5f 57 44 54 	add.b	21572(r7),r15	;0x5444(r7)
 146:	43 54       	.word	0x5443;	????	Illegal as 2-op instr
 148:	4c 00       	.word	0x004c;	????	
 14a:	6e 75       	subc.b	@r5,	r14	
 14c:	6d 62       	addc.b	#4,	r13	;r2 As==10
 14e:	65 72       	subc.b	#4,	r5	;r2 As==10
 150:	00 75       	subc	r5,	r0	
 152:	6e 73       	subc.b	#2,	r14	;r3 As==10
 154:	69 67       	addc.b	@r7,	r9	
 156:	6e 65       	addc.b	@r5,	r14	
 158:	64 20       	jnz	$+202    	;abs 0x222
 15a:	69 6e       	addc.b	@r14,	r9	
 15c:	74 00       	.word	0x0074;	????	
 15e:	5f 5f 50 31 	add.b	12624(r15),r15	;0x3150(r15)
 162:	53 45       	.word	0x4553;	????	Illegal as 2-op instr
 164:	4c 00       	.word	0x004c;	????	
 166:	5f 5f 41 44 	add.b	17473(r15),r15	;0x4441(r15)
 16a:	43 31       	jn	$+648    	;abs 0x3f2
 16c:	30 43       	br	#-1		;r3 As==11
 16e:	54 4c 31 00 	mov.b	49(r12),r4	;0x0031(r12)
 172:	5f 5f 41 44 	add.b	17473(r15),r15	;0x4441(r15)
 176:	43 31       	jn	$+648    	;abs 0x3fe
 178:	30 44       	br	@r4+		
 17a:	54 43       	mov.b	#1,	r4	;r3 As==01
 17c:	31 00       	.word	0x0031;	????	
 17e:	5f 5f 41 44 	add.b	17473(r15),r15	;0x4441(r15)
 182:	43 31       	jn	$+648    	;abs 0x40a
 184:	30 44       	br	@r4+		
 186:	54 43       	mov.b	#1,	r4	;r3 As==01
 188:	30 00       	.word	0x0030;	????	
 18a:	5f 5f 41 44 	add.b	17473(r15),r15	;0x4441(r15)
 18e:	43 31       	jn	$+648    	;abs 0x416
 190:	30 43       	br	#-1		;r3 As==11
 192:	54 4c 30 00 	mov.b	48(r12),r4	;0x0030(r12)
 196:	70 6f       	addc.b	@r15+,	r0	
 198:	69 6e       	addc.b	@r14,	r9	
 19a:	74 65       	addc.b	@r5+,	r4	
 19c:	72 00       	.word	0x0072;	????	
 19e:	5f 5f 41 44 	add.b	17473(r15),r15	;0x4441(r15)
 1a2:	43 31       	jn	$+648    	;abs 0x42a
 1a4:	30 41       	ret			
 1a6:	45 30       	jn	$+140    	;abs 0x232
 1a8:	00 63       	adc	r0		
 1aa:	68 61       	addc.b	@r1,	r8	
 1ac:	6e 6e       	addc.b	@r14,	r14	
 1ae:	65 6c       	addc.b	@r12,	r5	
 1b0:	00 64       	addc	r4,	r0	
 1b2:	74 63       	addc.b	#-1,	r4	;r3 As==11
 1b4:	2e 63       	addc	#2,	r14	;r3 As==10
 1b6:	00 5f       	add	r15,	r0	
 1b8:	5f 41 44 43 	mov.b	17220(r1),r15	;0x4344(r1)
 1bc:	31 30       	jn	$+100    	;abs 0x220
 1be:	53 41       	.word	0x4153;	????	Illegal as 2-op instr
 1c0:	00 69       	addc	r9,	r0	
 1c2:	6e 69       	addc.b	@r9,	r14	
 1c4:	74 69       	addc.b	@r9+,	r4	
 1c6:	61 6c       	addc.b	@r12,	r1	
 1c8:	69 7a       	subc.b	@r10,	r9	
 1ca:	65 5f       	add.b	@r15,	r5	
 1cc:	64 74       	subc.b	@r4,	r4	
 1ce:	63 00       	.word	0x0063;	????	

Disassembly of section .debug_loc:

00000000 <.debug_loc>:
   0:	c6 c0 c8 c0 	bic.b	r0,	-16184(r6);0xc0c8(r6)
   4:	02 00       	.word	0x0002;	????	
   6:	71 00       	.word	0x0071;	????	
   8:	c8 c0 d4 c0 	bic.b	r0,	-16172(r8);0xc0d4(r8)
   c:	02 00       	.word	0x0002;	????	
   e:	71 02       	.word	0x0271;	????	
  10:	00 00       	.word	0x0000;	????	
  12:	00 00       	.word	0x0000;	????	
  14:	00 00       	.word	0x0000;	????	
  16:	02 00       	.word	0x0002;	????	
  18:	02 00       	.word	0x0002;	????	
  1a:	71 02       	.word	0x0271;	????	
  1c:	02 00       	.word	0x0002;	????	
  1e:	9a 00       	.word	0x009a;	????	
  20:	02 00       	.word	0x0002;	????	
  22:	71 06       	.word	0x0671;	????	
  24:	00 00       	.word	0x0000;	????	
	...

Disassembly of section .debug_ranges:

00000000 <.debug_ranges>:
   0:	c6 c0 d4 c0 	bic.b	r0,	-16172(r6);0xc0d4(r6)
   4:	3e c0 bc c0 	bic	#-16196,r14	;#0xc0bc
   8:	00 00       	.word	0x0000;	????	
	...
